ARM GAS  /tmp/ccdWnOQF.s 			page 1


   1              		.cpu cortex-m4
   2              		.arch armv7e-m
   3              		.fpu fpv4-sp-d16
   4              		.eabi_attribute 27, 1
   5              		.eabi_attribute 28, 1
   6              		.eabi_attribute 20, 1
   7              		.eabi_attribute 21, 1
   8              		.eabi_attribute 23, 3
   9              		.eabi_attribute 24, 1
  10              		.eabi_attribute 25, 1
  11              		.eabi_attribute 26, 1
  12              		.eabi_attribute 30, 1
  13              		.eabi_attribute 34, 1
  14              		.eabi_attribute 18, 4
  15              		.file	"stm32l4xx_ll_usb.c"
  16              		.text
  17              	.Ltext0:
  18              		.cfi_sections	.debug_frame
  19              		.file 1 "Drivers/STM32L4xx_HAL_Driver/Src/stm32l4xx_ll_usb.c"
  20              		.section	.text.USB_CoreReset,"ax",%progbits
  21              		.align	1
  22              		.syntax unified
  23              		.thumb
  24              		.thumb_func
  26              	USB_CoreReset:
  27              	.LVL0:
  28              	.LFB166:
   1:Drivers/STM32L4xx_HAL_Driver/Src/stm32l4xx_ll_usb.c **** /**
   2:Drivers/STM32L4xx_HAL_Driver/Src/stm32l4xx_ll_usb.c ****   ******************************************************************************
   3:Drivers/STM32L4xx_HAL_Driver/Src/stm32l4xx_ll_usb.c ****   * @file    stm32l4xx_ll_usb.c
   4:Drivers/STM32L4xx_HAL_Driver/Src/stm32l4xx_ll_usb.c ****   * @author  MCD Application Team
   5:Drivers/STM32L4xx_HAL_Driver/Src/stm32l4xx_ll_usb.c ****   * @brief   USB Low Layer HAL module driver.
   6:Drivers/STM32L4xx_HAL_Driver/Src/stm32l4xx_ll_usb.c ****   *
   7:Drivers/STM32L4xx_HAL_Driver/Src/stm32l4xx_ll_usb.c ****   *          This file provides firmware functions to manage the following
   8:Drivers/STM32L4xx_HAL_Driver/Src/stm32l4xx_ll_usb.c ****   *          functionalities of the USB Peripheral Controller:
   9:Drivers/STM32L4xx_HAL_Driver/Src/stm32l4xx_ll_usb.c ****   *           + Initialization/de-initialization functions
  10:Drivers/STM32L4xx_HAL_Driver/Src/stm32l4xx_ll_usb.c ****   *           + I/O operation functions
  11:Drivers/STM32L4xx_HAL_Driver/Src/stm32l4xx_ll_usb.c ****   *           + Peripheral Control functions
  12:Drivers/STM32L4xx_HAL_Driver/Src/stm32l4xx_ll_usb.c ****   *           + Peripheral State functions
  13:Drivers/STM32L4xx_HAL_Driver/Src/stm32l4xx_ll_usb.c ****   *
  14:Drivers/STM32L4xx_HAL_Driver/Src/stm32l4xx_ll_usb.c ****   ******************************************************************************
  15:Drivers/STM32L4xx_HAL_Driver/Src/stm32l4xx_ll_usb.c ****   * @attention
  16:Drivers/STM32L4xx_HAL_Driver/Src/stm32l4xx_ll_usb.c ****   *
  17:Drivers/STM32L4xx_HAL_Driver/Src/stm32l4xx_ll_usb.c ****   * Copyright (c) 2017 STMicroelectronics.
  18:Drivers/STM32L4xx_HAL_Driver/Src/stm32l4xx_ll_usb.c ****   * All rights reserved.
  19:Drivers/STM32L4xx_HAL_Driver/Src/stm32l4xx_ll_usb.c ****   *
  20:Drivers/STM32L4xx_HAL_Driver/Src/stm32l4xx_ll_usb.c ****   * This software is licensed under terms that can be found in the LICENSE file
  21:Drivers/STM32L4xx_HAL_Driver/Src/stm32l4xx_ll_usb.c ****   * in the root directory of this software component.
  22:Drivers/STM32L4xx_HAL_Driver/Src/stm32l4xx_ll_usb.c ****   * If no LICENSE file comes with this software, it is provided AS-IS.
  23:Drivers/STM32L4xx_HAL_Driver/Src/stm32l4xx_ll_usb.c ****   *
  24:Drivers/STM32L4xx_HAL_Driver/Src/stm32l4xx_ll_usb.c ****   ******************************************************************************
  25:Drivers/STM32L4xx_HAL_Driver/Src/stm32l4xx_ll_usb.c ****   @verbatim
  26:Drivers/STM32L4xx_HAL_Driver/Src/stm32l4xx_ll_usb.c ****   ==============================================================================
  27:Drivers/STM32L4xx_HAL_Driver/Src/stm32l4xx_ll_usb.c ****                     ##### How to use this driver #####
  28:Drivers/STM32L4xx_HAL_Driver/Src/stm32l4xx_ll_usb.c ****   ==============================================================================
  29:Drivers/STM32L4xx_HAL_Driver/Src/stm32l4xx_ll_usb.c ****     [..]
  30:Drivers/STM32L4xx_HAL_Driver/Src/stm32l4xx_ll_usb.c ****       (#) Fill parameters of Init structure in USB_OTG_CfgTypeDef structure.
ARM GAS  /tmp/ccdWnOQF.s 			page 2


  31:Drivers/STM32L4xx_HAL_Driver/Src/stm32l4xx_ll_usb.c **** 
  32:Drivers/STM32L4xx_HAL_Driver/Src/stm32l4xx_ll_usb.c ****       (#) Call USB_CoreInit() API to initialize the USB Core peripheral.
  33:Drivers/STM32L4xx_HAL_Driver/Src/stm32l4xx_ll_usb.c **** 
  34:Drivers/STM32L4xx_HAL_Driver/Src/stm32l4xx_ll_usb.c ****       (#) The upper HAL HCD/PCD driver will call the right routines for its internal processes.
  35:Drivers/STM32L4xx_HAL_Driver/Src/stm32l4xx_ll_usb.c **** 
  36:Drivers/STM32L4xx_HAL_Driver/Src/stm32l4xx_ll_usb.c ****   @endverbatim
  37:Drivers/STM32L4xx_HAL_Driver/Src/stm32l4xx_ll_usb.c **** 
  38:Drivers/STM32L4xx_HAL_Driver/Src/stm32l4xx_ll_usb.c ****   ******************************************************************************
  39:Drivers/STM32L4xx_HAL_Driver/Src/stm32l4xx_ll_usb.c ****   */
  40:Drivers/STM32L4xx_HAL_Driver/Src/stm32l4xx_ll_usb.c **** 
  41:Drivers/STM32L4xx_HAL_Driver/Src/stm32l4xx_ll_usb.c **** /* Includes ------------------------------------------------------------------*/
  42:Drivers/STM32L4xx_HAL_Driver/Src/stm32l4xx_ll_usb.c **** #include "stm32l4xx_hal.h"
  43:Drivers/STM32L4xx_HAL_Driver/Src/stm32l4xx_ll_usb.c **** 
  44:Drivers/STM32L4xx_HAL_Driver/Src/stm32l4xx_ll_usb.c **** /** @addtogroup STM32L4xx_LL_USB_DRIVER
  45:Drivers/STM32L4xx_HAL_Driver/Src/stm32l4xx_ll_usb.c ****   * @{
  46:Drivers/STM32L4xx_HAL_Driver/Src/stm32l4xx_ll_usb.c ****   */
  47:Drivers/STM32L4xx_HAL_Driver/Src/stm32l4xx_ll_usb.c **** 
  48:Drivers/STM32L4xx_HAL_Driver/Src/stm32l4xx_ll_usb.c **** #if defined (HAL_PCD_MODULE_ENABLED) || defined (HAL_HCD_MODULE_ENABLED)
  49:Drivers/STM32L4xx_HAL_Driver/Src/stm32l4xx_ll_usb.c **** #if defined (USB) || defined (USB_OTG_FS)
  50:Drivers/STM32L4xx_HAL_Driver/Src/stm32l4xx_ll_usb.c **** /* Private typedef -----------------------------------------------------------*/
  51:Drivers/STM32L4xx_HAL_Driver/Src/stm32l4xx_ll_usb.c **** /* Private define ------------------------------------------------------------*/
  52:Drivers/STM32L4xx_HAL_Driver/Src/stm32l4xx_ll_usb.c **** /* Private macro -------------------------------------------------------------*/
  53:Drivers/STM32L4xx_HAL_Driver/Src/stm32l4xx_ll_usb.c **** /* Private variables ---------------------------------------------------------*/
  54:Drivers/STM32L4xx_HAL_Driver/Src/stm32l4xx_ll_usb.c **** /* Private function prototypes -----------------------------------------------*/
  55:Drivers/STM32L4xx_HAL_Driver/Src/stm32l4xx_ll_usb.c **** /* Private functions ---------------------------------------------------------*/
  56:Drivers/STM32L4xx_HAL_Driver/Src/stm32l4xx_ll_usb.c **** #if defined (USB_OTG_FS)
  57:Drivers/STM32L4xx_HAL_Driver/Src/stm32l4xx_ll_usb.c **** static HAL_StatusTypeDef USB_CoreReset(USB_OTG_GlobalTypeDef *USBx);
  58:Drivers/STM32L4xx_HAL_Driver/Src/stm32l4xx_ll_usb.c **** 
  59:Drivers/STM32L4xx_HAL_Driver/Src/stm32l4xx_ll_usb.c **** /* Exported functions --------------------------------------------------------*/
  60:Drivers/STM32L4xx_HAL_Driver/Src/stm32l4xx_ll_usb.c **** /** @defgroup USB_LL_Exported_Functions USB Low Layer Exported Functions
  61:Drivers/STM32L4xx_HAL_Driver/Src/stm32l4xx_ll_usb.c ****   * @{
  62:Drivers/STM32L4xx_HAL_Driver/Src/stm32l4xx_ll_usb.c ****   */
  63:Drivers/STM32L4xx_HAL_Driver/Src/stm32l4xx_ll_usb.c **** 
  64:Drivers/STM32L4xx_HAL_Driver/Src/stm32l4xx_ll_usb.c **** /** @defgroup USB_LL_Exported_Functions_Group1 Initialization/de-initialization functions
  65:Drivers/STM32L4xx_HAL_Driver/Src/stm32l4xx_ll_usb.c ****   *  @brief    Initialization and Configuration functions
  66:Drivers/STM32L4xx_HAL_Driver/Src/stm32l4xx_ll_usb.c ****   *
  67:Drivers/STM32L4xx_HAL_Driver/Src/stm32l4xx_ll_usb.c **** @verbatim
  68:Drivers/STM32L4xx_HAL_Driver/Src/stm32l4xx_ll_usb.c ****  ===============================================================================
  69:Drivers/STM32L4xx_HAL_Driver/Src/stm32l4xx_ll_usb.c ****                       ##### Initialization/de-initialization functions #####
  70:Drivers/STM32L4xx_HAL_Driver/Src/stm32l4xx_ll_usb.c ****  ===============================================================================
  71:Drivers/STM32L4xx_HAL_Driver/Src/stm32l4xx_ll_usb.c **** 
  72:Drivers/STM32L4xx_HAL_Driver/Src/stm32l4xx_ll_usb.c **** @endverbatim
  73:Drivers/STM32L4xx_HAL_Driver/Src/stm32l4xx_ll_usb.c ****   * @{
  74:Drivers/STM32L4xx_HAL_Driver/Src/stm32l4xx_ll_usb.c ****   */
  75:Drivers/STM32L4xx_HAL_Driver/Src/stm32l4xx_ll_usb.c **** 
  76:Drivers/STM32L4xx_HAL_Driver/Src/stm32l4xx_ll_usb.c **** /**
  77:Drivers/STM32L4xx_HAL_Driver/Src/stm32l4xx_ll_usb.c ****   * @brief  Initializes the USB Core
  78:Drivers/STM32L4xx_HAL_Driver/Src/stm32l4xx_ll_usb.c ****   * @param  USBx USB Instance
  79:Drivers/STM32L4xx_HAL_Driver/Src/stm32l4xx_ll_usb.c ****   * @param  cfg pointer to a USB_OTG_CfgTypeDef structure that contains
  80:Drivers/STM32L4xx_HAL_Driver/Src/stm32l4xx_ll_usb.c ****   *         the configuration information for the specified USBx peripheral.
  81:Drivers/STM32L4xx_HAL_Driver/Src/stm32l4xx_ll_usb.c ****   * @retval HAL status
  82:Drivers/STM32L4xx_HAL_Driver/Src/stm32l4xx_ll_usb.c ****   */
  83:Drivers/STM32L4xx_HAL_Driver/Src/stm32l4xx_ll_usb.c **** HAL_StatusTypeDef USB_CoreInit(USB_OTG_GlobalTypeDef *USBx, USB_OTG_CfgTypeDef cfg)
  84:Drivers/STM32L4xx_HAL_Driver/Src/stm32l4xx_ll_usb.c **** {
  85:Drivers/STM32L4xx_HAL_Driver/Src/stm32l4xx_ll_usb.c ****   HAL_StatusTypeDef ret;
  86:Drivers/STM32L4xx_HAL_Driver/Src/stm32l4xx_ll_usb.c **** 
  87:Drivers/STM32L4xx_HAL_Driver/Src/stm32l4xx_ll_usb.c ****   /* Select FS Embedded PHY */
ARM GAS  /tmp/ccdWnOQF.s 			page 3


  88:Drivers/STM32L4xx_HAL_Driver/Src/stm32l4xx_ll_usb.c ****   USBx->GUSBCFG |= USB_OTG_GUSBCFG_PHYSEL;
  89:Drivers/STM32L4xx_HAL_Driver/Src/stm32l4xx_ll_usb.c **** 
  90:Drivers/STM32L4xx_HAL_Driver/Src/stm32l4xx_ll_usb.c ****   /* Reset after a PHY select */
  91:Drivers/STM32L4xx_HAL_Driver/Src/stm32l4xx_ll_usb.c ****   ret = USB_CoreReset(USBx);
  92:Drivers/STM32L4xx_HAL_Driver/Src/stm32l4xx_ll_usb.c **** 
  93:Drivers/STM32L4xx_HAL_Driver/Src/stm32l4xx_ll_usb.c ****   if (cfg.battery_charging_enable == 0U)
  94:Drivers/STM32L4xx_HAL_Driver/Src/stm32l4xx_ll_usb.c ****   {
  95:Drivers/STM32L4xx_HAL_Driver/Src/stm32l4xx_ll_usb.c ****     /* Activate the USB Transceiver */
  96:Drivers/STM32L4xx_HAL_Driver/Src/stm32l4xx_ll_usb.c ****     USBx->GCCFG |= USB_OTG_GCCFG_PWRDWN;
  97:Drivers/STM32L4xx_HAL_Driver/Src/stm32l4xx_ll_usb.c ****   }
  98:Drivers/STM32L4xx_HAL_Driver/Src/stm32l4xx_ll_usb.c ****   else
  99:Drivers/STM32L4xx_HAL_Driver/Src/stm32l4xx_ll_usb.c ****   {
 100:Drivers/STM32L4xx_HAL_Driver/Src/stm32l4xx_ll_usb.c ****     /* Deactivate the USB Transceiver */
 101:Drivers/STM32L4xx_HAL_Driver/Src/stm32l4xx_ll_usb.c ****     USBx->GCCFG &= ~(USB_OTG_GCCFG_PWRDWN);
 102:Drivers/STM32L4xx_HAL_Driver/Src/stm32l4xx_ll_usb.c ****   }
 103:Drivers/STM32L4xx_HAL_Driver/Src/stm32l4xx_ll_usb.c **** 
 104:Drivers/STM32L4xx_HAL_Driver/Src/stm32l4xx_ll_usb.c ****   return ret;
 105:Drivers/STM32L4xx_HAL_Driver/Src/stm32l4xx_ll_usb.c **** }
 106:Drivers/STM32L4xx_HAL_Driver/Src/stm32l4xx_ll_usb.c **** 
 107:Drivers/STM32L4xx_HAL_Driver/Src/stm32l4xx_ll_usb.c **** 
 108:Drivers/STM32L4xx_HAL_Driver/Src/stm32l4xx_ll_usb.c **** /**
 109:Drivers/STM32L4xx_HAL_Driver/Src/stm32l4xx_ll_usb.c ****   * @brief  Set the USB turnaround time
 110:Drivers/STM32L4xx_HAL_Driver/Src/stm32l4xx_ll_usb.c ****   * @param  USBx USB Instance
 111:Drivers/STM32L4xx_HAL_Driver/Src/stm32l4xx_ll_usb.c ****   * @param  hclk: AHB clock frequency
 112:Drivers/STM32L4xx_HAL_Driver/Src/stm32l4xx_ll_usb.c ****   * @retval USB turnaround time In PHY Clocks number
 113:Drivers/STM32L4xx_HAL_Driver/Src/stm32l4xx_ll_usb.c ****   */
 114:Drivers/STM32L4xx_HAL_Driver/Src/stm32l4xx_ll_usb.c **** HAL_StatusTypeDef USB_SetTurnaroundTime(USB_OTG_GlobalTypeDef *USBx,
 115:Drivers/STM32L4xx_HAL_Driver/Src/stm32l4xx_ll_usb.c ****                                         uint32_t hclk, uint8_t speed)
 116:Drivers/STM32L4xx_HAL_Driver/Src/stm32l4xx_ll_usb.c **** {
 117:Drivers/STM32L4xx_HAL_Driver/Src/stm32l4xx_ll_usb.c ****   uint32_t UsbTrd;
 118:Drivers/STM32L4xx_HAL_Driver/Src/stm32l4xx_ll_usb.c **** 
 119:Drivers/STM32L4xx_HAL_Driver/Src/stm32l4xx_ll_usb.c ****   /* The USBTRD is configured according to the tables below, depending on AHB frequency
 120:Drivers/STM32L4xx_HAL_Driver/Src/stm32l4xx_ll_usb.c ****   used by application. In the low AHB frequency range it is used to stretch enough the USB response
 121:Drivers/STM32L4xx_HAL_Driver/Src/stm32l4xx_ll_usb.c ****   time to IN tokens, the USB turnaround time, so to compensate for the longer AHB read access
 122:Drivers/STM32L4xx_HAL_Driver/Src/stm32l4xx_ll_usb.c ****   latency to the Data FIFO */
 123:Drivers/STM32L4xx_HAL_Driver/Src/stm32l4xx_ll_usb.c ****   if (speed == USBD_FS_SPEED)
 124:Drivers/STM32L4xx_HAL_Driver/Src/stm32l4xx_ll_usb.c ****   {
 125:Drivers/STM32L4xx_HAL_Driver/Src/stm32l4xx_ll_usb.c ****     if ((hclk >= 14200000U) && (hclk < 15000000U))
 126:Drivers/STM32L4xx_HAL_Driver/Src/stm32l4xx_ll_usb.c ****     {
 127:Drivers/STM32L4xx_HAL_Driver/Src/stm32l4xx_ll_usb.c ****       /* hclk Clock Range between 14.2-15 MHz */
 128:Drivers/STM32L4xx_HAL_Driver/Src/stm32l4xx_ll_usb.c ****       UsbTrd = 0xFU;
 129:Drivers/STM32L4xx_HAL_Driver/Src/stm32l4xx_ll_usb.c ****     }
 130:Drivers/STM32L4xx_HAL_Driver/Src/stm32l4xx_ll_usb.c ****     else if ((hclk >= 15000000U) && (hclk < 16000000U))
 131:Drivers/STM32L4xx_HAL_Driver/Src/stm32l4xx_ll_usb.c ****     {
 132:Drivers/STM32L4xx_HAL_Driver/Src/stm32l4xx_ll_usb.c ****       /* hclk Clock Range between 15-16 MHz */
 133:Drivers/STM32L4xx_HAL_Driver/Src/stm32l4xx_ll_usb.c ****       UsbTrd = 0xEU;
 134:Drivers/STM32L4xx_HAL_Driver/Src/stm32l4xx_ll_usb.c ****     }
 135:Drivers/STM32L4xx_HAL_Driver/Src/stm32l4xx_ll_usb.c ****     else if ((hclk >= 16000000U) && (hclk < 17200000U))
 136:Drivers/STM32L4xx_HAL_Driver/Src/stm32l4xx_ll_usb.c ****     {
 137:Drivers/STM32L4xx_HAL_Driver/Src/stm32l4xx_ll_usb.c ****       /* hclk Clock Range between 16-17.2 MHz */
 138:Drivers/STM32L4xx_HAL_Driver/Src/stm32l4xx_ll_usb.c ****       UsbTrd = 0xDU;
 139:Drivers/STM32L4xx_HAL_Driver/Src/stm32l4xx_ll_usb.c ****     }
 140:Drivers/STM32L4xx_HAL_Driver/Src/stm32l4xx_ll_usb.c ****     else if ((hclk >= 17200000U) && (hclk < 18500000U))
 141:Drivers/STM32L4xx_HAL_Driver/Src/stm32l4xx_ll_usb.c ****     {
 142:Drivers/STM32L4xx_HAL_Driver/Src/stm32l4xx_ll_usb.c ****       /* hclk Clock Range between 17.2-18.5 MHz */
 143:Drivers/STM32L4xx_HAL_Driver/Src/stm32l4xx_ll_usb.c ****       UsbTrd = 0xCU;
 144:Drivers/STM32L4xx_HAL_Driver/Src/stm32l4xx_ll_usb.c ****     }
ARM GAS  /tmp/ccdWnOQF.s 			page 4


 145:Drivers/STM32L4xx_HAL_Driver/Src/stm32l4xx_ll_usb.c ****     else if ((hclk >= 18500000U) && (hclk < 20000000U))
 146:Drivers/STM32L4xx_HAL_Driver/Src/stm32l4xx_ll_usb.c ****     {
 147:Drivers/STM32L4xx_HAL_Driver/Src/stm32l4xx_ll_usb.c ****       /* hclk Clock Range between 18.5-20 MHz */
 148:Drivers/STM32L4xx_HAL_Driver/Src/stm32l4xx_ll_usb.c ****       UsbTrd = 0xBU;
 149:Drivers/STM32L4xx_HAL_Driver/Src/stm32l4xx_ll_usb.c ****     }
 150:Drivers/STM32L4xx_HAL_Driver/Src/stm32l4xx_ll_usb.c ****     else if ((hclk >= 20000000U) && (hclk < 21800000U))
 151:Drivers/STM32L4xx_HAL_Driver/Src/stm32l4xx_ll_usb.c ****     {
 152:Drivers/STM32L4xx_HAL_Driver/Src/stm32l4xx_ll_usb.c ****       /* hclk Clock Range between 20-21.8 MHz */
 153:Drivers/STM32L4xx_HAL_Driver/Src/stm32l4xx_ll_usb.c ****       UsbTrd = 0xAU;
 154:Drivers/STM32L4xx_HAL_Driver/Src/stm32l4xx_ll_usb.c ****     }
 155:Drivers/STM32L4xx_HAL_Driver/Src/stm32l4xx_ll_usb.c ****     else if ((hclk >= 21800000U) && (hclk < 24000000U))
 156:Drivers/STM32L4xx_HAL_Driver/Src/stm32l4xx_ll_usb.c ****     {
 157:Drivers/STM32L4xx_HAL_Driver/Src/stm32l4xx_ll_usb.c ****       /* hclk Clock Range between 21.8-24 MHz */
 158:Drivers/STM32L4xx_HAL_Driver/Src/stm32l4xx_ll_usb.c ****       UsbTrd = 0x9U;
 159:Drivers/STM32L4xx_HAL_Driver/Src/stm32l4xx_ll_usb.c ****     }
 160:Drivers/STM32L4xx_HAL_Driver/Src/stm32l4xx_ll_usb.c ****     else if ((hclk >= 24000000U) && (hclk < 27700000U))
 161:Drivers/STM32L4xx_HAL_Driver/Src/stm32l4xx_ll_usb.c ****     {
 162:Drivers/STM32L4xx_HAL_Driver/Src/stm32l4xx_ll_usb.c ****       /* hclk Clock Range between 24-27.7 MHz */
 163:Drivers/STM32L4xx_HAL_Driver/Src/stm32l4xx_ll_usb.c ****       UsbTrd = 0x8U;
 164:Drivers/STM32L4xx_HAL_Driver/Src/stm32l4xx_ll_usb.c ****     }
 165:Drivers/STM32L4xx_HAL_Driver/Src/stm32l4xx_ll_usb.c ****     else if ((hclk >= 27700000U) && (hclk < 32000000U))
 166:Drivers/STM32L4xx_HAL_Driver/Src/stm32l4xx_ll_usb.c ****     {
 167:Drivers/STM32L4xx_HAL_Driver/Src/stm32l4xx_ll_usb.c ****       /* hclk Clock Range between 27.7-32 MHz */
 168:Drivers/STM32L4xx_HAL_Driver/Src/stm32l4xx_ll_usb.c ****       UsbTrd = 0x7U;
 169:Drivers/STM32L4xx_HAL_Driver/Src/stm32l4xx_ll_usb.c ****     }
 170:Drivers/STM32L4xx_HAL_Driver/Src/stm32l4xx_ll_usb.c ****     else /* if(hclk >= 32000000) */
 171:Drivers/STM32L4xx_HAL_Driver/Src/stm32l4xx_ll_usb.c ****     {
 172:Drivers/STM32L4xx_HAL_Driver/Src/stm32l4xx_ll_usb.c ****       /* hclk Clock Range between 32-200 MHz */
 173:Drivers/STM32L4xx_HAL_Driver/Src/stm32l4xx_ll_usb.c ****       UsbTrd = 0x6U;
 174:Drivers/STM32L4xx_HAL_Driver/Src/stm32l4xx_ll_usb.c ****     }
 175:Drivers/STM32L4xx_HAL_Driver/Src/stm32l4xx_ll_usb.c ****   }
 176:Drivers/STM32L4xx_HAL_Driver/Src/stm32l4xx_ll_usb.c ****   else
 177:Drivers/STM32L4xx_HAL_Driver/Src/stm32l4xx_ll_usb.c ****   {
 178:Drivers/STM32L4xx_HAL_Driver/Src/stm32l4xx_ll_usb.c ****     UsbTrd = USBD_DEFAULT_TRDT_VALUE;
 179:Drivers/STM32L4xx_HAL_Driver/Src/stm32l4xx_ll_usb.c ****   }
 180:Drivers/STM32L4xx_HAL_Driver/Src/stm32l4xx_ll_usb.c **** 
 181:Drivers/STM32L4xx_HAL_Driver/Src/stm32l4xx_ll_usb.c ****   USBx->GUSBCFG &= ~USB_OTG_GUSBCFG_TRDT;
 182:Drivers/STM32L4xx_HAL_Driver/Src/stm32l4xx_ll_usb.c ****   USBx->GUSBCFG |= (uint32_t)((UsbTrd << 10) & USB_OTG_GUSBCFG_TRDT);
 183:Drivers/STM32L4xx_HAL_Driver/Src/stm32l4xx_ll_usb.c **** 
 184:Drivers/STM32L4xx_HAL_Driver/Src/stm32l4xx_ll_usb.c ****   return HAL_OK;
 185:Drivers/STM32L4xx_HAL_Driver/Src/stm32l4xx_ll_usb.c **** }
 186:Drivers/STM32L4xx_HAL_Driver/Src/stm32l4xx_ll_usb.c **** 
 187:Drivers/STM32L4xx_HAL_Driver/Src/stm32l4xx_ll_usb.c **** /**
 188:Drivers/STM32L4xx_HAL_Driver/Src/stm32l4xx_ll_usb.c ****   * @brief  USB_EnableGlobalInt
 189:Drivers/STM32L4xx_HAL_Driver/Src/stm32l4xx_ll_usb.c ****   *         Enables the controller's Global Int in the AHB Config reg
 190:Drivers/STM32L4xx_HAL_Driver/Src/stm32l4xx_ll_usb.c ****   * @param  USBx  Selected device
 191:Drivers/STM32L4xx_HAL_Driver/Src/stm32l4xx_ll_usb.c ****   * @retval HAL status
 192:Drivers/STM32L4xx_HAL_Driver/Src/stm32l4xx_ll_usb.c ****   */
 193:Drivers/STM32L4xx_HAL_Driver/Src/stm32l4xx_ll_usb.c **** HAL_StatusTypeDef USB_EnableGlobalInt(USB_OTG_GlobalTypeDef *USBx)
 194:Drivers/STM32L4xx_HAL_Driver/Src/stm32l4xx_ll_usb.c **** {
 195:Drivers/STM32L4xx_HAL_Driver/Src/stm32l4xx_ll_usb.c ****   USBx->GAHBCFG |= USB_OTG_GAHBCFG_GINT;
 196:Drivers/STM32L4xx_HAL_Driver/Src/stm32l4xx_ll_usb.c ****   return HAL_OK;
 197:Drivers/STM32L4xx_HAL_Driver/Src/stm32l4xx_ll_usb.c **** }
 198:Drivers/STM32L4xx_HAL_Driver/Src/stm32l4xx_ll_usb.c **** 
 199:Drivers/STM32L4xx_HAL_Driver/Src/stm32l4xx_ll_usb.c **** /**
 200:Drivers/STM32L4xx_HAL_Driver/Src/stm32l4xx_ll_usb.c ****   * @brief  USB_DisableGlobalInt
 201:Drivers/STM32L4xx_HAL_Driver/Src/stm32l4xx_ll_usb.c ****   *         Disable the controller's Global Int in the AHB Config reg
ARM GAS  /tmp/ccdWnOQF.s 			page 5


 202:Drivers/STM32L4xx_HAL_Driver/Src/stm32l4xx_ll_usb.c ****   * @param  USBx  Selected device
 203:Drivers/STM32L4xx_HAL_Driver/Src/stm32l4xx_ll_usb.c ****   * @retval HAL status
 204:Drivers/STM32L4xx_HAL_Driver/Src/stm32l4xx_ll_usb.c ****   */
 205:Drivers/STM32L4xx_HAL_Driver/Src/stm32l4xx_ll_usb.c **** HAL_StatusTypeDef USB_DisableGlobalInt(USB_OTG_GlobalTypeDef *USBx)
 206:Drivers/STM32L4xx_HAL_Driver/Src/stm32l4xx_ll_usb.c **** {
 207:Drivers/STM32L4xx_HAL_Driver/Src/stm32l4xx_ll_usb.c ****   USBx->GAHBCFG &= ~USB_OTG_GAHBCFG_GINT;
 208:Drivers/STM32L4xx_HAL_Driver/Src/stm32l4xx_ll_usb.c ****   return HAL_OK;
 209:Drivers/STM32L4xx_HAL_Driver/Src/stm32l4xx_ll_usb.c **** }
 210:Drivers/STM32L4xx_HAL_Driver/Src/stm32l4xx_ll_usb.c **** 
 211:Drivers/STM32L4xx_HAL_Driver/Src/stm32l4xx_ll_usb.c **** /**
 212:Drivers/STM32L4xx_HAL_Driver/Src/stm32l4xx_ll_usb.c ****   * @brief  USB_SetCurrentMode Set functional mode
 213:Drivers/STM32L4xx_HAL_Driver/Src/stm32l4xx_ll_usb.c ****   * @param  USBx  Selected device
 214:Drivers/STM32L4xx_HAL_Driver/Src/stm32l4xx_ll_usb.c ****   * @param  mode  current core mode
 215:Drivers/STM32L4xx_HAL_Driver/Src/stm32l4xx_ll_usb.c ****   *          This parameter can be one of these values:
 216:Drivers/STM32L4xx_HAL_Driver/Src/stm32l4xx_ll_usb.c ****   *            @arg USB_DEVICE_MODE Peripheral mode
 217:Drivers/STM32L4xx_HAL_Driver/Src/stm32l4xx_ll_usb.c ****   *            @arg USB_HOST_MODE Host mode
 218:Drivers/STM32L4xx_HAL_Driver/Src/stm32l4xx_ll_usb.c ****   * @retval HAL status
 219:Drivers/STM32L4xx_HAL_Driver/Src/stm32l4xx_ll_usb.c ****   */
 220:Drivers/STM32L4xx_HAL_Driver/Src/stm32l4xx_ll_usb.c **** HAL_StatusTypeDef USB_SetCurrentMode(USB_OTG_GlobalTypeDef *USBx, USB_ModeTypeDef mode)
 221:Drivers/STM32L4xx_HAL_Driver/Src/stm32l4xx_ll_usb.c **** {
 222:Drivers/STM32L4xx_HAL_Driver/Src/stm32l4xx_ll_usb.c ****   uint32_t ms = 0U;
 223:Drivers/STM32L4xx_HAL_Driver/Src/stm32l4xx_ll_usb.c **** 
 224:Drivers/STM32L4xx_HAL_Driver/Src/stm32l4xx_ll_usb.c ****   USBx->GUSBCFG &= ~(USB_OTG_GUSBCFG_FHMOD | USB_OTG_GUSBCFG_FDMOD);
 225:Drivers/STM32L4xx_HAL_Driver/Src/stm32l4xx_ll_usb.c **** 
 226:Drivers/STM32L4xx_HAL_Driver/Src/stm32l4xx_ll_usb.c ****   if (mode == USB_HOST_MODE)
 227:Drivers/STM32L4xx_HAL_Driver/Src/stm32l4xx_ll_usb.c ****   {
 228:Drivers/STM32L4xx_HAL_Driver/Src/stm32l4xx_ll_usb.c ****     USBx->GUSBCFG |= USB_OTG_GUSBCFG_FHMOD;
 229:Drivers/STM32L4xx_HAL_Driver/Src/stm32l4xx_ll_usb.c **** 
 230:Drivers/STM32L4xx_HAL_Driver/Src/stm32l4xx_ll_usb.c ****     do
 231:Drivers/STM32L4xx_HAL_Driver/Src/stm32l4xx_ll_usb.c ****     {
 232:Drivers/STM32L4xx_HAL_Driver/Src/stm32l4xx_ll_usb.c ****       HAL_Delay(1U);
 233:Drivers/STM32L4xx_HAL_Driver/Src/stm32l4xx_ll_usb.c ****       ms++;
 234:Drivers/STM32L4xx_HAL_Driver/Src/stm32l4xx_ll_usb.c ****     } while ((USB_GetMode(USBx) != (uint32_t)USB_HOST_MODE) && (ms < 50U));
 235:Drivers/STM32L4xx_HAL_Driver/Src/stm32l4xx_ll_usb.c ****   }
 236:Drivers/STM32L4xx_HAL_Driver/Src/stm32l4xx_ll_usb.c ****   else if (mode == USB_DEVICE_MODE)
 237:Drivers/STM32L4xx_HAL_Driver/Src/stm32l4xx_ll_usb.c ****   {
 238:Drivers/STM32L4xx_HAL_Driver/Src/stm32l4xx_ll_usb.c ****     USBx->GUSBCFG |= USB_OTG_GUSBCFG_FDMOD;
 239:Drivers/STM32L4xx_HAL_Driver/Src/stm32l4xx_ll_usb.c **** 
 240:Drivers/STM32L4xx_HAL_Driver/Src/stm32l4xx_ll_usb.c ****     do
 241:Drivers/STM32L4xx_HAL_Driver/Src/stm32l4xx_ll_usb.c ****     {
 242:Drivers/STM32L4xx_HAL_Driver/Src/stm32l4xx_ll_usb.c ****       HAL_Delay(1U);
 243:Drivers/STM32L4xx_HAL_Driver/Src/stm32l4xx_ll_usb.c ****       ms++;
 244:Drivers/STM32L4xx_HAL_Driver/Src/stm32l4xx_ll_usb.c ****     } while ((USB_GetMode(USBx) != (uint32_t)USB_DEVICE_MODE) && (ms < 50U));
 245:Drivers/STM32L4xx_HAL_Driver/Src/stm32l4xx_ll_usb.c ****   }
 246:Drivers/STM32L4xx_HAL_Driver/Src/stm32l4xx_ll_usb.c ****   else
 247:Drivers/STM32L4xx_HAL_Driver/Src/stm32l4xx_ll_usb.c ****   {
 248:Drivers/STM32L4xx_HAL_Driver/Src/stm32l4xx_ll_usb.c ****     return HAL_ERROR;
 249:Drivers/STM32L4xx_HAL_Driver/Src/stm32l4xx_ll_usb.c ****   }
 250:Drivers/STM32L4xx_HAL_Driver/Src/stm32l4xx_ll_usb.c **** 
 251:Drivers/STM32L4xx_HAL_Driver/Src/stm32l4xx_ll_usb.c ****   if (ms == 50U)
 252:Drivers/STM32L4xx_HAL_Driver/Src/stm32l4xx_ll_usb.c ****   {
 253:Drivers/STM32L4xx_HAL_Driver/Src/stm32l4xx_ll_usb.c ****     return HAL_ERROR;
 254:Drivers/STM32L4xx_HAL_Driver/Src/stm32l4xx_ll_usb.c ****   }
 255:Drivers/STM32L4xx_HAL_Driver/Src/stm32l4xx_ll_usb.c **** 
 256:Drivers/STM32L4xx_HAL_Driver/Src/stm32l4xx_ll_usb.c ****   return HAL_OK;
 257:Drivers/STM32L4xx_HAL_Driver/Src/stm32l4xx_ll_usb.c **** }
 258:Drivers/STM32L4xx_HAL_Driver/Src/stm32l4xx_ll_usb.c **** 
ARM GAS  /tmp/ccdWnOQF.s 			page 6


 259:Drivers/STM32L4xx_HAL_Driver/Src/stm32l4xx_ll_usb.c **** /**
 260:Drivers/STM32L4xx_HAL_Driver/Src/stm32l4xx_ll_usb.c ****   * @brief  USB_DevInit Initializes the USB_OTG controller registers
 261:Drivers/STM32L4xx_HAL_Driver/Src/stm32l4xx_ll_usb.c ****   *         for device mode
 262:Drivers/STM32L4xx_HAL_Driver/Src/stm32l4xx_ll_usb.c ****   * @param  USBx  Selected device
 263:Drivers/STM32L4xx_HAL_Driver/Src/stm32l4xx_ll_usb.c ****   * @param  cfg   pointer to a USB_OTG_CfgTypeDef structure that contains
 264:Drivers/STM32L4xx_HAL_Driver/Src/stm32l4xx_ll_usb.c ****   *         the configuration information for the specified USBx peripheral.
 265:Drivers/STM32L4xx_HAL_Driver/Src/stm32l4xx_ll_usb.c ****   * @retval HAL status
 266:Drivers/STM32L4xx_HAL_Driver/Src/stm32l4xx_ll_usb.c ****   */
 267:Drivers/STM32L4xx_HAL_Driver/Src/stm32l4xx_ll_usb.c **** HAL_StatusTypeDef USB_DevInit(USB_OTG_GlobalTypeDef *USBx, USB_OTG_CfgTypeDef cfg)
 268:Drivers/STM32L4xx_HAL_Driver/Src/stm32l4xx_ll_usb.c **** {
 269:Drivers/STM32L4xx_HAL_Driver/Src/stm32l4xx_ll_usb.c ****   HAL_StatusTypeDef ret = HAL_OK;
 270:Drivers/STM32L4xx_HAL_Driver/Src/stm32l4xx_ll_usb.c ****   uint32_t USBx_BASE = (uint32_t)USBx;
 271:Drivers/STM32L4xx_HAL_Driver/Src/stm32l4xx_ll_usb.c ****   uint32_t i;
 272:Drivers/STM32L4xx_HAL_Driver/Src/stm32l4xx_ll_usb.c **** 
 273:Drivers/STM32L4xx_HAL_Driver/Src/stm32l4xx_ll_usb.c ****   for (i = 0U; i < 15U; i++)
 274:Drivers/STM32L4xx_HAL_Driver/Src/stm32l4xx_ll_usb.c ****   {
 275:Drivers/STM32L4xx_HAL_Driver/Src/stm32l4xx_ll_usb.c ****     USBx->DIEPTXF[i] = 0U;
 276:Drivers/STM32L4xx_HAL_Driver/Src/stm32l4xx_ll_usb.c ****   }
 277:Drivers/STM32L4xx_HAL_Driver/Src/stm32l4xx_ll_usb.c **** 
 278:Drivers/STM32L4xx_HAL_Driver/Src/stm32l4xx_ll_usb.c ****   /* VBUS Sensing setup */
 279:Drivers/STM32L4xx_HAL_Driver/Src/stm32l4xx_ll_usb.c ****   if (cfg.vbus_sensing_enable == 0U)
 280:Drivers/STM32L4xx_HAL_Driver/Src/stm32l4xx_ll_usb.c ****   {
 281:Drivers/STM32L4xx_HAL_Driver/Src/stm32l4xx_ll_usb.c ****     USBx_DEVICE->DCTL |= USB_OTG_DCTL_SDIS;
 282:Drivers/STM32L4xx_HAL_Driver/Src/stm32l4xx_ll_usb.c **** 
 283:Drivers/STM32L4xx_HAL_Driver/Src/stm32l4xx_ll_usb.c ****     /* Deactivate VBUS Sensing B */
 284:Drivers/STM32L4xx_HAL_Driver/Src/stm32l4xx_ll_usb.c ****     USBx->GCCFG &= ~USB_OTG_GCCFG_VBDEN;
 285:Drivers/STM32L4xx_HAL_Driver/Src/stm32l4xx_ll_usb.c **** 
 286:Drivers/STM32L4xx_HAL_Driver/Src/stm32l4xx_ll_usb.c ****     /* B-peripheral session valid override enable */
 287:Drivers/STM32L4xx_HAL_Driver/Src/stm32l4xx_ll_usb.c ****     USBx->GOTGCTL |= USB_OTG_GOTGCTL_BVALOEN;
 288:Drivers/STM32L4xx_HAL_Driver/Src/stm32l4xx_ll_usb.c ****     USBx->GOTGCTL |= USB_OTG_GOTGCTL_BVALOVAL;
 289:Drivers/STM32L4xx_HAL_Driver/Src/stm32l4xx_ll_usb.c ****   }
 290:Drivers/STM32L4xx_HAL_Driver/Src/stm32l4xx_ll_usb.c ****   else
 291:Drivers/STM32L4xx_HAL_Driver/Src/stm32l4xx_ll_usb.c ****   {
 292:Drivers/STM32L4xx_HAL_Driver/Src/stm32l4xx_ll_usb.c ****     /* Enable HW VBUS sensing */
 293:Drivers/STM32L4xx_HAL_Driver/Src/stm32l4xx_ll_usb.c ****     USBx->GCCFG |= USB_OTG_GCCFG_VBDEN;
 294:Drivers/STM32L4xx_HAL_Driver/Src/stm32l4xx_ll_usb.c ****   }
 295:Drivers/STM32L4xx_HAL_Driver/Src/stm32l4xx_ll_usb.c **** 
 296:Drivers/STM32L4xx_HAL_Driver/Src/stm32l4xx_ll_usb.c ****   /* Restart the Phy Clock */
 297:Drivers/STM32L4xx_HAL_Driver/Src/stm32l4xx_ll_usb.c ****   USBx_PCGCCTL = 0U;
 298:Drivers/STM32L4xx_HAL_Driver/Src/stm32l4xx_ll_usb.c **** 
 299:Drivers/STM32L4xx_HAL_Driver/Src/stm32l4xx_ll_usb.c ****   /* Device mode configuration */
 300:Drivers/STM32L4xx_HAL_Driver/Src/stm32l4xx_ll_usb.c ****   USBx_DEVICE->DCFG |= DCFG_FRAME_INTERVAL_80;
 301:Drivers/STM32L4xx_HAL_Driver/Src/stm32l4xx_ll_usb.c **** 
 302:Drivers/STM32L4xx_HAL_Driver/Src/stm32l4xx_ll_usb.c ****   /* Set Core speed to Full speed mode */
 303:Drivers/STM32L4xx_HAL_Driver/Src/stm32l4xx_ll_usb.c ****   (void)USB_SetDevSpeed(USBx, USB_OTG_SPEED_FULL);
 304:Drivers/STM32L4xx_HAL_Driver/Src/stm32l4xx_ll_usb.c **** 
 305:Drivers/STM32L4xx_HAL_Driver/Src/stm32l4xx_ll_usb.c ****   /* Flush the FIFOs */
 306:Drivers/STM32L4xx_HAL_Driver/Src/stm32l4xx_ll_usb.c ****   if (USB_FlushTxFifo(USBx, 0x10U) != HAL_OK) /* all Tx FIFOs */
 307:Drivers/STM32L4xx_HAL_Driver/Src/stm32l4xx_ll_usb.c ****   {
 308:Drivers/STM32L4xx_HAL_Driver/Src/stm32l4xx_ll_usb.c ****     ret = HAL_ERROR;
 309:Drivers/STM32L4xx_HAL_Driver/Src/stm32l4xx_ll_usb.c ****   }
 310:Drivers/STM32L4xx_HAL_Driver/Src/stm32l4xx_ll_usb.c **** 
 311:Drivers/STM32L4xx_HAL_Driver/Src/stm32l4xx_ll_usb.c ****   if (USB_FlushRxFifo(USBx) != HAL_OK)
 312:Drivers/STM32L4xx_HAL_Driver/Src/stm32l4xx_ll_usb.c ****   {
 313:Drivers/STM32L4xx_HAL_Driver/Src/stm32l4xx_ll_usb.c ****     ret = HAL_ERROR;
 314:Drivers/STM32L4xx_HAL_Driver/Src/stm32l4xx_ll_usb.c ****   }
 315:Drivers/STM32L4xx_HAL_Driver/Src/stm32l4xx_ll_usb.c **** 
ARM GAS  /tmp/ccdWnOQF.s 			page 7


 316:Drivers/STM32L4xx_HAL_Driver/Src/stm32l4xx_ll_usb.c ****   /* Clear all pending Device Interrupts */
 317:Drivers/STM32L4xx_HAL_Driver/Src/stm32l4xx_ll_usb.c ****   USBx_DEVICE->DIEPMSK = 0U;
 318:Drivers/STM32L4xx_HAL_Driver/Src/stm32l4xx_ll_usb.c ****   USBx_DEVICE->DOEPMSK = 0U;
 319:Drivers/STM32L4xx_HAL_Driver/Src/stm32l4xx_ll_usb.c ****   USBx_DEVICE->DAINTMSK = 0U;
 320:Drivers/STM32L4xx_HAL_Driver/Src/stm32l4xx_ll_usb.c **** 
 321:Drivers/STM32L4xx_HAL_Driver/Src/stm32l4xx_ll_usb.c ****   for (i = 0U; i < cfg.dev_endpoints; i++)
 322:Drivers/STM32L4xx_HAL_Driver/Src/stm32l4xx_ll_usb.c ****   {
 323:Drivers/STM32L4xx_HAL_Driver/Src/stm32l4xx_ll_usb.c ****     if ((USBx_INEP(i)->DIEPCTL & USB_OTG_DIEPCTL_EPENA) == USB_OTG_DIEPCTL_EPENA)
 324:Drivers/STM32L4xx_HAL_Driver/Src/stm32l4xx_ll_usb.c ****     {
 325:Drivers/STM32L4xx_HAL_Driver/Src/stm32l4xx_ll_usb.c ****       if (i == 0U)
 326:Drivers/STM32L4xx_HAL_Driver/Src/stm32l4xx_ll_usb.c ****       {
 327:Drivers/STM32L4xx_HAL_Driver/Src/stm32l4xx_ll_usb.c ****         USBx_INEP(i)->DIEPCTL = USB_OTG_DIEPCTL_SNAK;
 328:Drivers/STM32L4xx_HAL_Driver/Src/stm32l4xx_ll_usb.c ****       }
 329:Drivers/STM32L4xx_HAL_Driver/Src/stm32l4xx_ll_usb.c ****       else
 330:Drivers/STM32L4xx_HAL_Driver/Src/stm32l4xx_ll_usb.c ****       {
 331:Drivers/STM32L4xx_HAL_Driver/Src/stm32l4xx_ll_usb.c ****         USBx_INEP(i)->DIEPCTL = USB_OTG_DIEPCTL_EPDIS | USB_OTG_DIEPCTL_SNAK;
 332:Drivers/STM32L4xx_HAL_Driver/Src/stm32l4xx_ll_usb.c ****       }
 333:Drivers/STM32L4xx_HAL_Driver/Src/stm32l4xx_ll_usb.c ****     }
 334:Drivers/STM32L4xx_HAL_Driver/Src/stm32l4xx_ll_usb.c ****     else
 335:Drivers/STM32L4xx_HAL_Driver/Src/stm32l4xx_ll_usb.c ****     {
 336:Drivers/STM32L4xx_HAL_Driver/Src/stm32l4xx_ll_usb.c ****       USBx_INEP(i)->DIEPCTL = 0U;
 337:Drivers/STM32L4xx_HAL_Driver/Src/stm32l4xx_ll_usb.c ****     }
 338:Drivers/STM32L4xx_HAL_Driver/Src/stm32l4xx_ll_usb.c **** 
 339:Drivers/STM32L4xx_HAL_Driver/Src/stm32l4xx_ll_usb.c ****     USBx_INEP(i)->DIEPTSIZ = 0U;
 340:Drivers/STM32L4xx_HAL_Driver/Src/stm32l4xx_ll_usb.c ****     USBx_INEP(i)->DIEPINT  = 0xFB7FU;
 341:Drivers/STM32L4xx_HAL_Driver/Src/stm32l4xx_ll_usb.c ****   }
 342:Drivers/STM32L4xx_HAL_Driver/Src/stm32l4xx_ll_usb.c **** 
 343:Drivers/STM32L4xx_HAL_Driver/Src/stm32l4xx_ll_usb.c ****   for (i = 0U; i < cfg.dev_endpoints; i++)
 344:Drivers/STM32L4xx_HAL_Driver/Src/stm32l4xx_ll_usb.c ****   {
 345:Drivers/STM32L4xx_HAL_Driver/Src/stm32l4xx_ll_usb.c ****     if ((USBx_OUTEP(i)->DOEPCTL & USB_OTG_DOEPCTL_EPENA) == USB_OTG_DOEPCTL_EPENA)
 346:Drivers/STM32L4xx_HAL_Driver/Src/stm32l4xx_ll_usb.c ****     {
 347:Drivers/STM32L4xx_HAL_Driver/Src/stm32l4xx_ll_usb.c ****       if (i == 0U)
 348:Drivers/STM32L4xx_HAL_Driver/Src/stm32l4xx_ll_usb.c ****       {
 349:Drivers/STM32L4xx_HAL_Driver/Src/stm32l4xx_ll_usb.c ****         USBx_OUTEP(i)->DOEPCTL = USB_OTG_DOEPCTL_SNAK;
 350:Drivers/STM32L4xx_HAL_Driver/Src/stm32l4xx_ll_usb.c ****       }
 351:Drivers/STM32L4xx_HAL_Driver/Src/stm32l4xx_ll_usb.c ****       else
 352:Drivers/STM32L4xx_HAL_Driver/Src/stm32l4xx_ll_usb.c ****       {
 353:Drivers/STM32L4xx_HAL_Driver/Src/stm32l4xx_ll_usb.c ****         USBx_OUTEP(i)->DOEPCTL = USB_OTG_DOEPCTL_EPDIS | USB_OTG_DOEPCTL_SNAK;
 354:Drivers/STM32L4xx_HAL_Driver/Src/stm32l4xx_ll_usb.c ****       }
 355:Drivers/STM32L4xx_HAL_Driver/Src/stm32l4xx_ll_usb.c ****     }
 356:Drivers/STM32L4xx_HAL_Driver/Src/stm32l4xx_ll_usb.c ****     else
 357:Drivers/STM32L4xx_HAL_Driver/Src/stm32l4xx_ll_usb.c ****     {
 358:Drivers/STM32L4xx_HAL_Driver/Src/stm32l4xx_ll_usb.c ****       USBx_OUTEP(i)->DOEPCTL = 0U;
 359:Drivers/STM32L4xx_HAL_Driver/Src/stm32l4xx_ll_usb.c ****     }
 360:Drivers/STM32L4xx_HAL_Driver/Src/stm32l4xx_ll_usb.c **** 
 361:Drivers/STM32L4xx_HAL_Driver/Src/stm32l4xx_ll_usb.c ****     USBx_OUTEP(i)->DOEPTSIZ = 0U;
 362:Drivers/STM32L4xx_HAL_Driver/Src/stm32l4xx_ll_usb.c ****     USBx_OUTEP(i)->DOEPINT  = 0xFB7FU;
 363:Drivers/STM32L4xx_HAL_Driver/Src/stm32l4xx_ll_usb.c ****   }
 364:Drivers/STM32L4xx_HAL_Driver/Src/stm32l4xx_ll_usb.c **** 
 365:Drivers/STM32L4xx_HAL_Driver/Src/stm32l4xx_ll_usb.c ****   USBx_DEVICE->DIEPMSK &= ~(USB_OTG_DIEPMSK_TXFURM);
 366:Drivers/STM32L4xx_HAL_Driver/Src/stm32l4xx_ll_usb.c **** 
 367:Drivers/STM32L4xx_HAL_Driver/Src/stm32l4xx_ll_usb.c ****   /* Disable all interrupts. */
 368:Drivers/STM32L4xx_HAL_Driver/Src/stm32l4xx_ll_usb.c ****   USBx->GINTMSK = 0U;
 369:Drivers/STM32L4xx_HAL_Driver/Src/stm32l4xx_ll_usb.c **** 
 370:Drivers/STM32L4xx_HAL_Driver/Src/stm32l4xx_ll_usb.c ****   /* Clear any pending interrupts */
 371:Drivers/STM32L4xx_HAL_Driver/Src/stm32l4xx_ll_usb.c ****   USBx->GINTSTS = 0xBFFFFFFFU;
 372:Drivers/STM32L4xx_HAL_Driver/Src/stm32l4xx_ll_usb.c **** 
ARM GAS  /tmp/ccdWnOQF.s 			page 8


 373:Drivers/STM32L4xx_HAL_Driver/Src/stm32l4xx_ll_usb.c ****   /* Enable the common interrupts */
 374:Drivers/STM32L4xx_HAL_Driver/Src/stm32l4xx_ll_usb.c ****   USBx->GINTMSK |= USB_OTG_GINTMSK_RXFLVLM;
 375:Drivers/STM32L4xx_HAL_Driver/Src/stm32l4xx_ll_usb.c **** 
 376:Drivers/STM32L4xx_HAL_Driver/Src/stm32l4xx_ll_usb.c ****   /* Enable interrupts matching to the Device mode ONLY */
 377:Drivers/STM32L4xx_HAL_Driver/Src/stm32l4xx_ll_usb.c ****   USBx->GINTMSK |= USB_OTG_GINTMSK_USBSUSPM | USB_OTG_GINTMSK_USBRST |
 378:Drivers/STM32L4xx_HAL_Driver/Src/stm32l4xx_ll_usb.c ****                    USB_OTG_GINTMSK_ENUMDNEM | USB_OTG_GINTMSK_IEPINT |
 379:Drivers/STM32L4xx_HAL_Driver/Src/stm32l4xx_ll_usb.c ****                    USB_OTG_GINTMSK_OEPINT   | USB_OTG_GINTMSK_IISOIXFRM |
 380:Drivers/STM32L4xx_HAL_Driver/Src/stm32l4xx_ll_usb.c ****                    USB_OTG_GINTMSK_PXFRM_IISOOXFRM | USB_OTG_GINTMSK_WUIM;
 381:Drivers/STM32L4xx_HAL_Driver/Src/stm32l4xx_ll_usb.c **** 
 382:Drivers/STM32L4xx_HAL_Driver/Src/stm32l4xx_ll_usb.c ****   if (cfg.Sof_enable != 0U)
 383:Drivers/STM32L4xx_HAL_Driver/Src/stm32l4xx_ll_usb.c ****   {
 384:Drivers/STM32L4xx_HAL_Driver/Src/stm32l4xx_ll_usb.c ****     USBx->GINTMSK |= USB_OTG_GINTMSK_SOFM;
 385:Drivers/STM32L4xx_HAL_Driver/Src/stm32l4xx_ll_usb.c ****   }
 386:Drivers/STM32L4xx_HAL_Driver/Src/stm32l4xx_ll_usb.c **** 
 387:Drivers/STM32L4xx_HAL_Driver/Src/stm32l4xx_ll_usb.c ****   if (cfg.vbus_sensing_enable == 1U)
 388:Drivers/STM32L4xx_HAL_Driver/Src/stm32l4xx_ll_usb.c ****   {
 389:Drivers/STM32L4xx_HAL_Driver/Src/stm32l4xx_ll_usb.c ****     USBx->GINTMSK |= (USB_OTG_GINTMSK_SRQIM | USB_OTG_GINTMSK_OTGINT);
 390:Drivers/STM32L4xx_HAL_Driver/Src/stm32l4xx_ll_usb.c ****   }
 391:Drivers/STM32L4xx_HAL_Driver/Src/stm32l4xx_ll_usb.c **** 
 392:Drivers/STM32L4xx_HAL_Driver/Src/stm32l4xx_ll_usb.c ****   return ret;
 393:Drivers/STM32L4xx_HAL_Driver/Src/stm32l4xx_ll_usb.c **** }
 394:Drivers/STM32L4xx_HAL_Driver/Src/stm32l4xx_ll_usb.c **** 
 395:Drivers/STM32L4xx_HAL_Driver/Src/stm32l4xx_ll_usb.c **** /**
 396:Drivers/STM32L4xx_HAL_Driver/Src/stm32l4xx_ll_usb.c ****   * @brief  USB_FlushTxFifo Flush a Tx FIFO
 397:Drivers/STM32L4xx_HAL_Driver/Src/stm32l4xx_ll_usb.c ****   * @param  USBx  Selected device
 398:Drivers/STM32L4xx_HAL_Driver/Src/stm32l4xx_ll_usb.c ****   * @param  num  FIFO number
 399:Drivers/STM32L4xx_HAL_Driver/Src/stm32l4xx_ll_usb.c ****   *         This parameter can be a value from 1 to 15
 400:Drivers/STM32L4xx_HAL_Driver/Src/stm32l4xx_ll_usb.c ****             15 means Flush all Tx FIFOs
 401:Drivers/STM32L4xx_HAL_Driver/Src/stm32l4xx_ll_usb.c ****   * @retval HAL status
 402:Drivers/STM32L4xx_HAL_Driver/Src/stm32l4xx_ll_usb.c ****   */
 403:Drivers/STM32L4xx_HAL_Driver/Src/stm32l4xx_ll_usb.c **** HAL_StatusTypeDef USB_FlushTxFifo(USB_OTG_GlobalTypeDef *USBx, uint32_t num)
 404:Drivers/STM32L4xx_HAL_Driver/Src/stm32l4xx_ll_usb.c **** {
 405:Drivers/STM32L4xx_HAL_Driver/Src/stm32l4xx_ll_usb.c ****   __IO uint32_t count = 0U;
 406:Drivers/STM32L4xx_HAL_Driver/Src/stm32l4xx_ll_usb.c **** 
 407:Drivers/STM32L4xx_HAL_Driver/Src/stm32l4xx_ll_usb.c ****   /* Wait for AHB master IDLE state. */
 408:Drivers/STM32L4xx_HAL_Driver/Src/stm32l4xx_ll_usb.c ****   do
 409:Drivers/STM32L4xx_HAL_Driver/Src/stm32l4xx_ll_usb.c ****   {
 410:Drivers/STM32L4xx_HAL_Driver/Src/stm32l4xx_ll_usb.c ****     count++;
 411:Drivers/STM32L4xx_HAL_Driver/Src/stm32l4xx_ll_usb.c **** 
 412:Drivers/STM32L4xx_HAL_Driver/Src/stm32l4xx_ll_usb.c ****     if (count > 200000U)
 413:Drivers/STM32L4xx_HAL_Driver/Src/stm32l4xx_ll_usb.c ****     {
 414:Drivers/STM32L4xx_HAL_Driver/Src/stm32l4xx_ll_usb.c ****       return HAL_TIMEOUT;
 415:Drivers/STM32L4xx_HAL_Driver/Src/stm32l4xx_ll_usb.c ****     }
 416:Drivers/STM32L4xx_HAL_Driver/Src/stm32l4xx_ll_usb.c ****   } while ((USBx->GRSTCTL & USB_OTG_GRSTCTL_AHBIDL) == 0U);
 417:Drivers/STM32L4xx_HAL_Driver/Src/stm32l4xx_ll_usb.c **** 
 418:Drivers/STM32L4xx_HAL_Driver/Src/stm32l4xx_ll_usb.c ****   /* Flush TX Fifo */
 419:Drivers/STM32L4xx_HAL_Driver/Src/stm32l4xx_ll_usb.c ****   count = 0U;
 420:Drivers/STM32L4xx_HAL_Driver/Src/stm32l4xx_ll_usb.c ****   USBx->GRSTCTL = (USB_OTG_GRSTCTL_TXFFLSH | (num << 6));
 421:Drivers/STM32L4xx_HAL_Driver/Src/stm32l4xx_ll_usb.c **** 
 422:Drivers/STM32L4xx_HAL_Driver/Src/stm32l4xx_ll_usb.c ****   do
 423:Drivers/STM32L4xx_HAL_Driver/Src/stm32l4xx_ll_usb.c ****   {
 424:Drivers/STM32L4xx_HAL_Driver/Src/stm32l4xx_ll_usb.c ****     count++;
 425:Drivers/STM32L4xx_HAL_Driver/Src/stm32l4xx_ll_usb.c **** 
 426:Drivers/STM32L4xx_HAL_Driver/Src/stm32l4xx_ll_usb.c ****     if (count > 200000U)
 427:Drivers/STM32L4xx_HAL_Driver/Src/stm32l4xx_ll_usb.c ****     {
 428:Drivers/STM32L4xx_HAL_Driver/Src/stm32l4xx_ll_usb.c ****       return HAL_TIMEOUT;
 429:Drivers/STM32L4xx_HAL_Driver/Src/stm32l4xx_ll_usb.c ****     }
ARM GAS  /tmp/ccdWnOQF.s 			page 9


 430:Drivers/STM32L4xx_HAL_Driver/Src/stm32l4xx_ll_usb.c ****   } while ((USBx->GRSTCTL & USB_OTG_GRSTCTL_TXFFLSH) == USB_OTG_GRSTCTL_TXFFLSH);
 431:Drivers/STM32L4xx_HAL_Driver/Src/stm32l4xx_ll_usb.c **** 
 432:Drivers/STM32L4xx_HAL_Driver/Src/stm32l4xx_ll_usb.c ****   return HAL_OK;
 433:Drivers/STM32L4xx_HAL_Driver/Src/stm32l4xx_ll_usb.c **** }
 434:Drivers/STM32L4xx_HAL_Driver/Src/stm32l4xx_ll_usb.c **** 
 435:Drivers/STM32L4xx_HAL_Driver/Src/stm32l4xx_ll_usb.c **** /**
 436:Drivers/STM32L4xx_HAL_Driver/Src/stm32l4xx_ll_usb.c ****   * @brief  USB_FlushRxFifo  Flush Rx FIFO
 437:Drivers/STM32L4xx_HAL_Driver/Src/stm32l4xx_ll_usb.c ****   * @param  USBx  Selected device
 438:Drivers/STM32L4xx_HAL_Driver/Src/stm32l4xx_ll_usb.c ****   * @retval HAL status
 439:Drivers/STM32L4xx_HAL_Driver/Src/stm32l4xx_ll_usb.c ****   */
 440:Drivers/STM32L4xx_HAL_Driver/Src/stm32l4xx_ll_usb.c **** HAL_StatusTypeDef USB_FlushRxFifo(USB_OTG_GlobalTypeDef *USBx)
 441:Drivers/STM32L4xx_HAL_Driver/Src/stm32l4xx_ll_usb.c **** {
 442:Drivers/STM32L4xx_HAL_Driver/Src/stm32l4xx_ll_usb.c ****   __IO uint32_t count = 0U;
 443:Drivers/STM32L4xx_HAL_Driver/Src/stm32l4xx_ll_usb.c **** 
 444:Drivers/STM32L4xx_HAL_Driver/Src/stm32l4xx_ll_usb.c ****   /* Wait for AHB master IDLE state. */
 445:Drivers/STM32L4xx_HAL_Driver/Src/stm32l4xx_ll_usb.c ****   do
 446:Drivers/STM32L4xx_HAL_Driver/Src/stm32l4xx_ll_usb.c ****   {
 447:Drivers/STM32L4xx_HAL_Driver/Src/stm32l4xx_ll_usb.c ****     count++;
 448:Drivers/STM32L4xx_HAL_Driver/Src/stm32l4xx_ll_usb.c **** 
 449:Drivers/STM32L4xx_HAL_Driver/Src/stm32l4xx_ll_usb.c ****     if (count > 200000U)
 450:Drivers/STM32L4xx_HAL_Driver/Src/stm32l4xx_ll_usb.c ****     {
 451:Drivers/STM32L4xx_HAL_Driver/Src/stm32l4xx_ll_usb.c ****       return HAL_TIMEOUT;
 452:Drivers/STM32L4xx_HAL_Driver/Src/stm32l4xx_ll_usb.c ****     }
 453:Drivers/STM32L4xx_HAL_Driver/Src/stm32l4xx_ll_usb.c ****   } while ((USBx->GRSTCTL & USB_OTG_GRSTCTL_AHBIDL) == 0U);
 454:Drivers/STM32L4xx_HAL_Driver/Src/stm32l4xx_ll_usb.c **** 
 455:Drivers/STM32L4xx_HAL_Driver/Src/stm32l4xx_ll_usb.c ****   /* Flush RX Fifo */
 456:Drivers/STM32L4xx_HAL_Driver/Src/stm32l4xx_ll_usb.c ****   count = 0U;
 457:Drivers/STM32L4xx_HAL_Driver/Src/stm32l4xx_ll_usb.c ****   USBx->GRSTCTL = USB_OTG_GRSTCTL_RXFFLSH;
 458:Drivers/STM32L4xx_HAL_Driver/Src/stm32l4xx_ll_usb.c **** 
 459:Drivers/STM32L4xx_HAL_Driver/Src/stm32l4xx_ll_usb.c ****   do
 460:Drivers/STM32L4xx_HAL_Driver/Src/stm32l4xx_ll_usb.c ****   {
 461:Drivers/STM32L4xx_HAL_Driver/Src/stm32l4xx_ll_usb.c ****     count++;
 462:Drivers/STM32L4xx_HAL_Driver/Src/stm32l4xx_ll_usb.c **** 
 463:Drivers/STM32L4xx_HAL_Driver/Src/stm32l4xx_ll_usb.c ****     if (count > 200000U)
 464:Drivers/STM32L4xx_HAL_Driver/Src/stm32l4xx_ll_usb.c ****     {
 465:Drivers/STM32L4xx_HAL_Driver/Src/stm32l4xx_ll_usb.c ****       return HAL_TIMEOUT;
 466:Drivers/STM32L4xx_HAL_Driver/Src/stm32l4xx_ll_usb.c ****     }
 467:Drivers/STM32L4xx_HAL_Driver/Src/stm32l4xx_ll_usb.c ****   } while ((USBx->GRSTCTL & USB_OTG_GRSTCTL_RXFFLSH) == USB_OTG_GRSTCTL_RXFFLSH);
 468:Drivers/STM32L4xx_HAL_Driver/Src/stm32l4xx_ll_usb.c **** 
 469:Drivers/STM32L4xx_HAL_Driver/Src/stm32l4xx_ll_usb.c ****   return HAL_OK;
 470:Drivers/STM32L4xx_HAL_Driver/Src/stm32l4xx_ll_usb.c **** }
 471:Drivers/STM32L4xx_HAL_Driver/Src/stm32l4xx_ll_usb.c **** 
 472:Drivers/STM32L4xx_HAL_Driver/Src/stm32l4xx_ll_usb.c **** /**
 473:Drivers/STM32L4xx_HAL_Driver/Src/stm32l4xx_ll_usb.c ****   * @brief  USB_SetDevSpeed  Initializes the DevSpd field of DCFG register
 474:Drivers/STM32L4xx_HAL_Driver/Src/stm32l4xx_ll_usb.c ****   *         depending the PHY type and the enumeration speed of the device.
 475:Drivers/STM32L4xx_HAL_Driver/Src/stm32l4xx_ll_usb.c ****   * @param  USBx  Selected device
 476:Drivers/STM32L4xx_HAL_Driver/Src/stm32l4xx_ll_usb.c ****   * @param  speed  device speed
 477:Drivers/STM32L4xx_HAL_Driver/Src/stm32l4xx_ll_usb.c ****   *          This parameter can be one of these values:
 478:Drivers/STM32L4xx_HAL_Driver/Src/stm32l4xx_ll_usb.c ****   *            @arg USB_OTG_SPEED_FULL: Full speed mode
 479:Drivers/STM32L4xx_HAL_Driver/Src/stm32l4xx_ll_usb.c ****   * @retval  Hal status
 480:Drivers/STM32L4xx_HAL_Driver/Src/stm32l4xx_ll_usb.c ****   */
 481:Drivers/STM32L4xx_HAL_Driver/Src/stm32l4xx_ll_usb.c **** HAL_StatusTypeDef USB_SetDevSpeed(USB_OTG_GlobalTypeDef *USBx, uint8_t speed)
 482:Drivers/STM32L4xx_HAL_Driver/Src/stm32l4xx_ll_usb.c **** {
 483:Drivers/STM32L4xx_HAL_Driver/Src/stm32l4xx_ll_usb.c ****   uint32_t USBx_BASE = (uint32_t)USBx;
 484:Drivers/STM32L4xx_HAL_Driver/Src/stm32l4xx_ll_usb.c **** 
 485:Drivers/STM32L4xx_HAL_Driver/Src/stm32l4xx_ll_usb.c ****   USBx_DEVICE->DCFG |= speed;
 486:Drivers/STM32L4xx_HAL_Driver/Src/stm32l4xx_ll_usb.c ****   return HAL_OK;
ARM GAS  /tmp/ccdWnOQF.s 			page 10


 487:Drivers/STM32L4xx_HAL_Driver/Src/stm32l4xx_ll_usb.c **** }
 488:Drivers/STM32L4xx_HAL_Driver/Src/stm32l4xx_ll_usb.c **** 
 489:Drivers/STM32L4xx_HAL_Driver/Src/stm32l4xx_ll_usb.c **** /**
 490:Drivers/STM32L4xx_HAL_Driver/Src/stm32l4xx_ll_usb.c ****   * @brief  USB_GetDevSpeed  Return the Dev Speed
 491:Drivers/STM32L4xx_HAL_Driver/Src/stm32l4xx_ll_usb.c ****   * @param  USBx  Selected device
 492:Drivers/STM32L4xx_HAL_Driver/Src/stm32l4xx_ll_usb.c ****   * @retval speed  device speed
 493:Drivers/STM32L4xx_HAL_Driver/Src/stm32l4xx_ll_usb.c ****   *          This parameter can be one of these values:
 494:Drivers/STM32L4xx_HAL_Driver/Src/stm32l4xx_ll_usb.c ****   *            @arg USBD_FS_SPEED: Full speed mode
 495:Drivers/STM32L4xx_HAL_Driver/Src/stm32l4xx_ll_usb.c ****   */
 496:Drivers/STM32L4xx_HAL_Driver/Src/stm32l4xx_ll_usb.c **** uint8_t USB_GetDevSpeed(USB_OTG_GlobalTypeDef *USBx)
 497:Drivers/STM32L4xx_HAL_Driver/Src/stm32l4xx_ll_usb.c **** {
 498:Drivers/STM32L4xx_HAL_Driver/Src/stm32l4xx_ll_usb.c ****   uint32_t USBx_BASE = (uint32_t)USBx;
 499:Drivers/STM32L4xx_HAL_Driver/Src/stm32l4xx_ll_usb.c ****   uint8_t speed;
 500:Drivers/STM32L4xx_HAL_Driver/Src/stm32l4xx_ll_usb.c ****   uint32_t DevEnumSpeed = USBx_DEVICE->DSTS & USB_OTG_DSTS_ENUMSPD;
 501:Drivers/STM32L4xx_HAL_Driver/Src/stm32l4xx_ll_usb.c **** 
 502:Drivers/STM32L4xx_HAL_Driver/Src/stm32l4xx_ll_usb.c ****   if ((DevEnumSpeed == DSTS_ENUMSPD_FS_PHY_30MHZ_OR_60MHZ) ||
 503:Drivers/STM32L4xx_HAL_Driver/Src/stm32l4xx_ll_usb.c ****       (DevEnumSpeed == DSTS_ENUMSPD_FS_PHY_48MHZ))
 504:Drivers/STM32L4xx_HAL_Driver/Src/stm32l4xx_ll_usb.c ****   {
 505:Drivers/STM32L4xx_HAL_Driver/Src/stm32l4xx_ll_usb.c ****     speed = USBD_FS_SPEED;
 506:Drivers/STM32L4xx_HAL_Driver/Src/stm32l4xx_ll_usb.c ****   }
 507:Drivers/STM32L4xx_HAL_Driver/Src/stm32l4xx_ll_usb.c ****   else
 508:Drivers/STM32L4xx_HAL_Driver/Src/stm32l4xx_ll_usb.c ****   {
 509:Drivers/STM32L4xx_HAL_Driver/Src/stm32l4xx_ll_usb.c ****     speed = 0xFU;
 510:Drivers/STM32L4xx_HAL_Driver/Src/stm32l4xx_ll_usb.c ****   }
 511:Drivers/STM32L4xx_HAL_Driver/Src/stm32l4xx_ll_usb.c **** 
 512:Drivers/STM32L4xx_HAL_Driver/Src/stm32l4xx_ll_usb.c ****   return speed;
 513:Drivers/STM32L4xx_HAL_Driver/Src/stm32l4xx_ll_usb.c **** }
 514:Drivers/STM32L4xx_HAL_Driver/Src/stm32l4xx_ll_usb.c **** 
 515:Drivers/STM32L4xx_HAL_Driver/Src/stm32l4xx_ll_usb.c **** /**
 516:Drivers/STM32L4xx_HAL_Driver/Src/stm32l4xx_ll_usb.c ****   * @brief  Activate and configure an endpoint
 517:Drivers/STM32L4xx_HAL_Driver/Src/stm32l4xx_ll_usb.c ****   * @param  USBx  Selected device
 518:Drivers/STM32L4xx_HAL_Driver/Src/stm32l4xx_ll_usb.c ****   * @param  ep pointer to endpoint structure
 519:Drivers/STM32L4xx_HAL_Driver/Src/stm32l4xx_ll_usb.c ****   * @retval HAL status
 520:Drivers/STM32L4xx_HAL_Driver/Src/stm32l4xx_ll_usb.c ****   */
 521:Drivers/STM32L4xx_HAL_Driver/Src/stm32l4xx_ll_usb.c **** HAL_StatusTypeDef USB_ActivateEndpoint(USB_OTG_GlobalTypeDef *USBx, USB_OTG_EPTypeDef *ep)
 522:Drivers/STM32L4xx_HAL_Driver/Src/stm32l4xx_ll_usb.c **** {
 523:Drivers/STM32L4xx_HAL_Driver/Src/stm32l4xx_ll_usb.c ****   uint32_t USBx_BASE = (uint32_t)USBx;
 524:Drivers/STM32L4xx_HAL_Driver/Src/stm32l4xx_ll_usb.c ****   uint32_t epnum = (uint32_t)ep->num;
 525:Drivers/STM32L4xx_HAL_Driver/Src/stm32l4xx_ll_usb.c **** 
 526:Drivers/STM32L4xx_HAL_Driver/Src/stm32l4xx_ll_usb.c ****   if (ep->is_in == 1U)
 527:Drivers/STM32L4xx_HAL_Driver/Src/stm32l4xx_ll_usb.c ****   {
 528:Drivers/STM32L4xx_HAL_Driver/Src/stm32l4xx_ll_usb.c ****     USBx_DEVICE->DAINTMSK |= USB_OTG_DAINTMSK_IEPM & (uint32_t)(1UL << (ep->num & EP_ADDR_MSK));
 529:Drivers/STM32L4xx_HAL_Driver/Src/stm32l4xx_ll_usb.c **** 
 530:Drivers/STM32L4xx_HAL_Driver/Src/stm32l4xx_ll_usb.c ****     if ((USBx_INEP(epnum)->DIEPCTL & USB_OTG_DIEPCTL_USBAEP) == 0U)
 531:Drivers/STM32L4xx_HAL_Driver/Src/stm32l4xx_ll_usb.c ****     {
 532:Drivers/STM32L4xx_HAL_Driver/Src/stm32l4xx_ll_usb.c ****       USBx_INEP(epnum)->DIEPCTL |= (ep->maxpacket & USB_OTG_DIEPCTL_MPSIZ) |
 533:Drivers/STM32L4xx_HAL_Driver/Src/stm32l4xx_ll_usb.c ****                                    ((uint32_t)ep->type << 18) | (epnum << 22) |
 534:Drivers/STM32L4xx_HAL_Driver/Src/stm32l4xx_ll_usb.c ****                                    USB_OTG_DIEPCTL_SD0PID_SEVNFRM |
 535:Drivers/STM32L4xx_HAL_Driver/Src/stm32l4xx_ll_usb.c ****                                    USB_OTG_DIEPCTL_USBAEP;
 536:Drivers/STM32L4xx_HAL_Driver/Src/stm32l4xx_ll_usb.c ****     }
 537:Drivers/STM32L4xx_HAL_Driver/Src/stm32l4xx_ll_usb.c ****   }
 538:Drivers/STM32L4xx_HAL_Driver/Src/stm32l4xx_ll_usb.c ****   else
 539:Drivers/STM32L4xx_HAL_Driver/Src/stm32l4xx_ll_usb.c ****   {
 540:Drivers/STM32L4xx_HAL_Driver/Src/stm32l4xx_ll_usb.c ****     USBx_DEVICE->DAINTMSK |= USB_OTG_DAINTMSK_OEPM & ((uint32_t)(1UL << (ep->num & EP_ADDR_MSK)) <<
 541:Drivers/STM32L4xx_HAL_Driver/Src/stm32l4xx_ll_usb.c **** 
 542:Drivers/STM32L4xx_HAL_Driver/Src/stm32l4xx_ll_usb.c ****     if (((USBx_OUTEP(epnum)->DOEPCTL) & USB_OTG_DOEPCTL_USBAEP) == 0U)
 543:Drivers/STM32L4xx_HAL_Driver/Src/stm32l4xx_ll_usb.c ****     {
ARM GAS  /tmp/ccdWnOQF.s 			page 11


 544:Drivers/STM32L4xx_HAL_Driver/Src/stm32l4xx_ll_usb.c ****       USBx_OUTEP(epnum)->DOEPCTL |= (ep->maxpacket & USB_OTG_DOEPCTL_MPSIZ) |
 545:Drivers/STM32L4xx_HAL_Driver/Src/stm32l4xx_ll_usb.c ****                                     ((uint32_t)ep->type << 18) |
 546:Drivers/STM32L4xx_HAL_Driver/Src/stm32l4xx_ll_usb.c ****                                     USB_OTG_DIEPCTL_SD0PID_SEVNFRM |
 547:Drivers/STM32L4xx_HAL_Driver/Src/stm32l4xx_ll_usb.c ****                                     USB_OTG_DOEPCTL_USBAEP;
 548:Drivers/STM32L4xx_HAL_Driver/Src/stm32l4xx_ll_usb.c ****     }
 549:Drivers/STM32L4xx_HAL_Driver/Src/stm32l4xx_ll_usb.c ****   }
 550:Drivers/STM32L4xx_HAL_Driver/Src/stm32l4xx_ll_usb.c ****   return HAL_OK;
 551:Drivers/STM32L4xx_HAL_Driver/Src/stm32l4xx_ll_usb.c **** }
 552:Drivers/STM32L4xx_HAL_Driver/Src/stm32l4xx_ll_usb.c **** 
 553:Drivers/STM32L4xx_HAL_Driver/Src/stm32l4xx_ll_usb.c **** /**
 554:Drivers/STM32L4xx_HAL_Driver/Src/stm32l4xx_ll_usb.c ****   * @brief  Activate and configure a dedicated endpoint
 555:Drivers/STM32L4xx_HAL_Driver/Src/stm32l4xx_ll_usb.c ****   * @param  USBx  Selected device
 556:Drivers/STM32L4xx_HAL_Driver/Src/stm32l4xx_ll_usb.c ****   * @param  ep pointer to endpoint structure
 557:Drivers/STM32L4xx_HAL_Driver/Src/stm32l4xx_ll_usb.c ****   * @retval HAL status
 558:Drivers/STM32L4xx_HAL_Driver/Src/stm32l4xx_ll_usb.c ****   */
 559:Drivers/STM32L4xx_HAL_Driver/Src/stm32l4xx_ll_usb.c **** HAL_StatusTypeDef USB_ActivateDedicatedEndpoint(USB_OTG_GlobalTypeDef *USBx, USB_OTG_EPTypeDef *ep)
 560:Drivers/STM32L4xx_HAL_Driver/Src/stm32l4xx_ll_usb.c **** {
 561:Drivers/STM32L4xx_HAL_Driver/Src/stm32l4xx_ll_usb.c ****   uint32_t USBx_BASE = (uint32_t)USBx;
 562:Drivers/STM32L4xx_HAL_Driver/Src/stm32l4xx_ll_usb.c ****   uint32_t epnum = (uint32_t)ep->num;
 563:Drivers/STM32L4xx_HAL_Driver/Src/stm32l4xx_ll_usb.c **** 
 564:Drivers/STM32L4xx_HAL_Driver/Src/stm32l4xx_ll_usb.c ****   /* Read DEPCTLn register */
 565:Drivers/STM32L4xx_HAL_Driver/Src/stm32l4xx_ll_usb.c ****   if (ep->is_in == 1U)
 566:Drivers/STM32L4xx_HAL_Driver/Src/stm32l4xx_ll_usb.c ****   {
 567:Drivers/STM32L4xx_HAL_Driver/Src/stm32l4xx_ll_usb.c ****     if (((USBx_INEP(epnum)->DIEPCTL) & USB_OTG_DIEPCTL_USBAEP) == 0U)
 568:Drivers/STM32L4xx_HAL_Driver/Src/stm32l4xx_ll_usb.c ****     {
 569:Drivers/STM32L4xx_HAL_Driver/Src/stm32l4xx_ll_usb.c ****       USBx_INEP(epnum)->DIEPCTL |= (ep->maxpacket & USB_OTG_DIEPCTL_MPSIZ) |
 570:Drivers/STM32L4xx_HAL_Driver/Src/stm32l4xx_ll_usb.c ****                                    ((uint32_t)ep->type << 18) | (epnum << 22) |
 571:Drivers/STM32L4xx_HAL_Driver/Src/stm32l4xx_ll_usb.c ****                                    USB_OTG_DIEPCTL_SD0PID_SEVNFRM |
 572:Drivers/STM32L4xx_HAL_Driver/Src/stm32l4xx_ll_usb.c ****                                    USB_OTG_DIEPCTL_USBAEP;
 573:Drivers/STM32L4xx_HAL_Driver/Src/stm32l4xx_ll_usb.c ****     }
 574:Drivers/STM32L4xx_HAL_Driver/Src/stm32l4xx_ll_usb.c **** 
 575:Drivers/STM32L4xx_HAL_Driver/Src/stm32l4xx_ll_usb.c ****     USBx_DEVICE->DEACHMSK |= USB_OTG_DAINTMSK_IEPM & (uint32_t)(1UL << (ep->num & EP_ADDR_MSK));
 576:Drivers/STM32L4xx_HAL_Driver/Src/stm32l4xx_ll_usb.c ****   }
 577:Drivers/STM32L4xx_HAL_Driver/Src/stm32l4xx_ll_usb.c ****   else
 578:Drivers/STM32L4xx_HAL_Driver/Src/stm32l4xx_ll_usb.c ****   {
 579:Drivers/STM32L4xx_HAL_Driver/Src/stm32l4xx_ll_usb.c ****     if (((USBx_OUTEP(epnum)->DOEPCTL) & USB_OTG_DOEPCTL_USBAEP) == 0U)
 580:Drivers/STM32L4xx_HAL_Driver/Src/stm32l4xx_ll_usb.c ****     {
 581:Drivers/STM32L4xx_HAL_Driver/Src/stm32l4xx_ll_usb.c ****       USBx_OUTEP(epnum)->DOEPCTL |= (ep->maxpacket & USB_OTG_DOEPCTL_MPSIZ) |
 582:Drivers/STM32L4xx_HAL_Driver/Src/stm32l4xx_ll_usb.c ****                                     ((uint32_t)ep->type << 18) | (epnum << 22) |
 583:Drivers/STM32L4xx_HAL_Driver/Src/stm32l4xx_ll_usb.c ****                                     USB_OTG_DOEPCTL_USBAEP;
 584:Drivers/STM32L4xx_HAL_Driver/Src/stm32l4xx_ll_usb.c ****     }
 585:Drivers/STM32L4xx_HAL_Driver/Src/stm32l4xx_ll_usb.c **** 
 586:Drivers/STM32L4xx_HAL_Driver/Src/stm32l4xx_ll_usb.c ****     USBx_DEVICE->DEACHMSK |= USB_OTG_DAINTMSK_OEPM & ((uint32_t)(1UL << (ep->num & EP_ADDR_MSK)) <<
 587:Drivers/STM32L4xx_HAL_Driver/Src/stm32l4xx_ll_usb.c ****   }
 588:Drivers/STM32L4xx_HAL_Driver/Src/stm32l4xx_ll_usb.c **** 
 589:Drivers/STM32L4xx_HAL_Driver/Src/stm32l4xx_ll_usb.c ****   return HAL_OK;
 590:Drivers/STM32L4xx_HAL_Driver/Src/stm32l4xx_ll_usb.c **** }
 591:Drivers/STM32L4xx_HAL_Driver/Src/stm32l4xx_ll_usb.c **** 
 592:Drivers/STM32L4xx_HAL_Driver/Src/stm32l4xx_ll_usb.c **** /**
 593:Drivers/STM32L4xx_HAL_Driver/Src/stm32l4xx_ll_usb.c ****   * @brief  De-activate and de-initialize an endpoint
 594:Drivers/STM32L4xx_HAL_Driver/Src/stm32l4xx_ll_usb.c ****   * @param  USBx  Selected device
 595:Drivers/STM32L4xx_HAL_Driver/Src/stm32l4xx_ll_usb.c ****   * @param  ep pointer to endpoint structure
 596:Drivers/STM32L4xx_HAL_Driver/Src/stm32l4xx_ll_usb.c ****   * @retval HAL status
 597:Drivers/STM32L4xx_HAL_Driver/Src/stm32l4xx_ll_usb.c ****   */
 598:Drivers/STM32L4xx_HAL_Driver/Src/stm32l4xx_ll_usb.c **** HAL_StatusTypeDef USB_DeactivateEndpoint(USB_OTG_GlobalTypeDef *USBx, USB_OTG_EPTypeDef *ep)
 599:Drivers/STM32L4xx_HAL_Driver/Src/stm32l4xx_ll_usb.c **** {
 600:Drivers/STM32L4xx_HAL_Driver/Src/stm32l4xx_ll_usb.c ****   uint32_t USBx_BASE = (uint32_t)USBx;
ARM GAS  /tmp/ccdWnOQF.s 			page 12


 601:Drivers/STM32L4xx_HAL_Driver/Src/stm32l4xx_ll_usb.c ****   uint32_t epnum = (uint32_t)ep->num;
 602:Drivers/STM32L4xx_HAL_Driver/Src/stm32l4xx_ll_usb.c **** 
 603:Drivers/STM32L4xx_HAL_Driver/Src/stm32l4xx_ll_usb.c ****   /* Read DEPCTLn register */
 604:Drivers/STM32L4xx_HAL_Driver/Src/stm32l4xx_ll_usb.c ****   if (ep->is_in == 1U)
 605:Drivers/STM32L4xx_HAL_Driver/Src/stm32l4xx_ll_usb.c ****   {
 606:Drivers/STM32L4xx_HAL_Driver/Src/stm32l4xx_ll_usb.c ****     if ((USBx_INEP(epnum)->DIEPCTL & USB_OTG_DIEPCTL_EPENA) == USB_OTG_DIEPCTL_EPENA)
 607:Drivers/STM32L4xx_HAL_Driver/Src/stm32l4xx_ll_usb.c ****     {
 608:Drivers/STM32L4xx_HAL_Driver/Src/stm32l4xx_ll_usb.c ****       USBx_INEP(epnum)->DIEPCTL |= USB_OTG_DIEPCTL_SNAK;
 609:Drivers/STM32L4xx_HAL_Driver/Src/stm32l4xx_ll_usb.c ****       USBx_INEP(epnum)->DIEPCTL |= USB_OTG_DIEPCTL_EPDIS;
 610:Drivers/STM32L4xx_HAL_Driver/Src/stm32l4xx_ll_usb.c ****     }
 611:Drivers/STM32L4xx_HAL_Driver/Src/stm32l4xx_ll_usb.c **** 
 612:Drivers/STM32L4xx_HAL_Driver/Src/stm32l4xx_ll_usb.c ****     USBx_DEVICE->DEACHMSK &= ~(USB_OTG_DAINTMSK_IEPM & (uint32_t)(1UL << (ep->num & EP_ADDR_MSK)));
 613:Drivers/STM32L4xx_HAL_Driver/Src/stm32l4xx_ll_usb.c ****     USBx_DEVICE->DAINTMSK &= ~(USB_OTG_DAINTMSK_IEPM & (uint32_t)(1UL << (ep->num & EP_ADDR_MSK)));
 614:Drivers/STM32L4xx_HAL_Driver/Src/stm32l4xx_ll_usb.c ****     USBx_INEP(epnum)->DIEPCTL &= ~(USB_OTG_DIEPCTL_USBAEP |
 615:Drivers/STM32L4xx_HAL_Driver/Src/stm32l4xx_ll_usb.c ****                                    USB_OTG_DIEPCTL_MPSIZ |
 616:Drivers/STM32L4xx_HAL_Driver/Src/stm32l4xx_ll_usb.c ****                                    USB_OTG_DIEPCTL_TXFNUM |
 617:Drivers/STM32L4xx_HAL_Driver/Src/stm32l4xx_ll_usb.c ****                                    USB_OTG_DIEPCTL_SD0PID_SEVNFRM |
 618:Drivers/STM32L4xx_HAL_Driver/Src/stm32l4xx_ll_usb.c ****                                    USB_OTG_DIEPCTL_EPTYP);
 619:Drivers/STM32L4xx_HAL_Driver/Src/stm32l4xx_ll_usb.c ****   }
 620:Drivers/STM32L4xx_HAL_Driver/Src/stm32l4xx_ll_usb.c ****   else
 621:Drivers/STM32L4xx_HAL_Driver/Src/stm32l4xx_ll_usb.c ****   {
 622:Drivers/STM32L4xx_HAL_Driver/Src/stm32l4xx_ll_usb.c ****     if ((USBx_OUTEP(epnum)->DOEPCTL & USB_OTG_DOEPCTL_EPENA) == USB_OTG_DOEPCTL_EPENA)
 623:Drivers/STM32L4xx_HAL_Driver/Src/stm32l4xx_ll_usb.c ****     {
 624:Drivers/STM32L4xx_HAL_Driver/Src/stm32l4xx_ll_usb.c ****       USBx_OUTEP(epnum)->DOEPCTL |= USB_OTG_DOEPCTL_SNAK;
 625:Drivers/STM32L4xx_HAL_Driver/Src/stm32l4xx_ll_usb.c ****       USBx_OUTEP(epnum)->DOEPCTL |= USB_OTG_DOEPCTL_EPDIS;
 626:Drivers/STM32L4xx_HAL_Driver/Src/stm32l4xx_ll_usb.c ****     }
 627:Drivers/STM32L4xx_HAL_Driver/Src/stm32l4xx_ll_usb.c **** 
 628:Drivers/STM32L4xx_HAL_Driver/Src/stm32l4xx_ll_usb.c ****     USBx_DEVICE->DEACHMSK &= ~(USB_OTG_DAINTMSK_OEPM & ((uint32_t)(1UL << (ep->num & EP_ADDR_MSK)) 
 629:Drivers/STM32L4xx_HAL_Driver/Src/stm32l4xx_ll_usb.c ****     USBx_DEVICE->DAINTMSK &= ~(USB_OTG_DAINTMSK_OEPM & ((uint32_t)(1UL << (ep->num & EP_ADDR_MSK)) 
 630:Drivers/STM32L4xx_HAL_Driver/Src/stm32l4xx_ll_usb.c ****     USBx_OUTEP(epnum)->DOEPCTL &= ~(USB_OTG_DOEPCTL_USBAEP |
 631:Drivers/STM32L4xx_HAL_Driver/Src/stm32l4xx_ll_usb.c ****                                     USB_OTG_DOEPCTL_MPSIZ |
 632:Drivers/STM32L4xx_HAL_Driver/Src/stm32l4xx_ll_usb.c ****                                     USB_OTG_DOEPCTL_SD0PID_SEVNFRM |
 633:Drivers/STM32L4xx_HAL_Driver/Src/stm32l4xx_ll_usb.c ****                                     USB_OTG_DOEPCTL_EPTYP);
 634:Drivers/STM32L4xx_HAL_Driver/Src/stm32l4xx_ll_usb.c ****   }
 635:Drivers/STM32L4xx_HAL_Driver/Src/stm32l4xx_ll_usb.c **** 
 636:Drivers/STM32L4xx_HAL_Driver/Src/stm32l4xx_ll_usb.c ****   return HAL_OK;
 637:Drivers/STM32L4xx_HAL_Driver/Src/stm32l4xx_ll_usb.c **** }
 638:Drivers/STM32L4xx_HAL_Driver/Src/stm32l4xx_ll_usb.c **** 
 639:Drivers/STM32L4xx_HAL_Driver/Src/stm32l4xx_ll_usb.c **** /**
 640:Drivers/STM32L4xx_HAL_Driver/Src/stm32l4xx_ll_usb.c ****   * @brief  De-activate and de-initialize a dedicated endpoint
 641:Drivers/STM32L4xx_HAL_Driver/Src/stm32l4xx_ll_usb.c ****   * @param  USBx  Selected device
 642:Drivers/STM32L4xx_HAL_Driver/Src/stm32l4xx_ll_usb.c ****   * @param  ep pointer to endpoint structure
 643:Drivers/STM32L4xx_HAL_Driver/Src/stm32l4xx_ll_usb.c ****   * @retval HAL status
 644:Drivers/STM32L4xx_HAL_Driver/Src/stm32l4xx_ll_usb.c ****   */
 645:Drivers/STM32L4xx_HAL_Driver/Src/stm32l4xx_ll_usb.c **** HAL_StatusTypeDef USB_DeactivateDedicatedEndpoint(USB_OTG_GlobalTypeDef *USBx, USB_OTG_EPTypeDef *e
 646:Drivers/STM32L4xx_HAL_Driver/Src/stm32l4xx_ll_usb.c **** {
 647:Drivers/STM32L4xx_HAL_Driver/Src/stm32l4xx_ll_usb.c ****   uint32_t USBx_BASE = (uint32_t)USBx;
 648:Drivers/STM32L4xx_HAL_Driver/Src/stm32l4xx_ll_usb.c ****   uint32_t epnum = (uint32_t)ep->num;
 649:Drivers/STM32L4xx_HAL_Driver/Src/stm32l4xx_ll_usb.c **** 
 650:Drivers/STM32L4xx_HAL_Driver/Src/stm32l4xx_ll_usb.c ****   /* Read DEPCTLn register */
 651:Drivers/STM32L4xx_HAL_Driver/Src/stm32l4xx_ll_usb.c ****   if (ep->is_in == 1U)
 652:Drivers/STM32L4xx_HAL_Driver/Src/stm32l4xx_ll_usb.c ****   {
 653:Drivers/STM32L4xx_HAL_Driver/Src/stm32l4xx_ll_usb.c ****     if ((USBx_INEP(epnum)->DIEPCTL & USB_OTG_DIEPCTL_EPENA) == USB_OTG_DIEPCTL_EPENA)
 654:Drivers/STM32L4xx_HAL_Driver/Src/stm32l4xx_ll_usb.c ****     {
 655:Drivers/STM32L4xx_HAL_Driver/Src/stm32l4xx_ll_usb.c ****       USBx_INEP(epnum)->DIEPCTL  |= USB_OTG_DIEPCTL_SNAK;
 656:Drivers/STM32L4xx_HAL_Driver/Src/stm32l4xx_ll_usb.c ****       USBx_INEP(epnum)->DIEPCTL  |= USB_OTG_DIEPCTL_EPDIS;
 657:Drivers/STM32L4xx_HAL_Driver/Src/stm32l4xx_ll_usb.c ****     }
ARM GAS  /tmp/ccdWnOQF.s 			page 13


 658:Drivers/STM32L4xx_HAL_Driver/Src/stm32l4xx_ll_usb.c **** 
 659:Drivers/STM32L4xx_HAL_Driver/Src/stm32l4xx_ll_usb.c ****     USBx_INEP(epnum)->DIEPCTL &= ~ USB_OTG_DIEPCTL_USBAEP;
 660:Drivers/STM32L4xx_HAL_Driver/Src/stm32l4xx_ll_usb.c ****     USBx_DEVICE->DAINTMSK &= ~(USB_OTG_DAINTMSK_IEPM & (uint32_t)(1UL << (ep->num & EP_ADDR_MSK)));
 661:Drivers/STM32L4xx_HAL_Driver/Src/stm32l4xx_ll_usb.c ****   }
 662:Drivers/STM32L4xx_HAL_Driver/Src/stm32l4xx_ll_usb.c ****   else
 663:Drivers/STM32L4xx_HAL_Driver/Src/stm32l4xx_ll_usb.c ****   {
 664:Drivers/STM32L4xx_HAL_Driver/Src/stm32l4xx_ll_usb.c ****     if ((USBx_OUTEP(epnum)->DOEPCTL & USB_OTG_DOEPCTL_EPENA) == USB_OTG_DOEPCTL_EPENA)
 665:Drivers/STM32L4xx_HAL_Driver/Src/stm32l4xx_ll_usb.c ****     {
 666:Drivers/STM32L4xx_HAL_Driver/Src/stm32l4xx_ll_usb.c ****       USBx_OUTEP(epnum)->DOEPCTL  |= USB_OTG_DOEPCTL_SNAK;
 667:Drivers/STM32L4xx_HAL_Driver/Src/stm32l4xx_ll_usb.c ****       USBx_OUTEP(epnum)->DOEPCTL  |= USB_OTG_DOEPCTL_EPDIS;
 668:Drivers/STM32L4xx_HAL_Driver/Src/stm32l4xx_ll_usb.c ****     }
 669:Drivers/STM32L4xx_HAL_Driver/Src/stm32l4xx_ll_usb.c **** 
 670:Drivers/STM32L4xx_HAL_Driver/Src/stm32l4xx_ll_usb.c ****     USBx_OUTEP(epnum)->DOEPCTL &= ~USB_OTG_DOEPCTL_USBAEP;
 671:Drivers/STM32L4xx_HAL_Driver/Src/stm32l4xx_ll_usb.c ****     USBx_DEVICE->DAINTMSK &= ~(USB_OTG_DAINTMSK_OEPM & ((uint32_t)(1UL << (ep->num & EP_ADDR_MSK)) 
 672:Drivers/STM32L4xx_HAL_Driver/Src/stm32l4xx_ll_usb.c ****   }
 673:Drivers/STM32L4xx_HAL_Driver/Src/stm32l4xx_ll_usb.c **** 
 674:Drivers/STM32L4xx_HAL_Driver/Src/stm32l4xx_ll_usb.c ****   return HAL_OK;
 675:Drivers/STM32L4xx_HAL_Driver/Src/stm32l4xx_ll_usb.c **** }
 676:Drivers/STM32L4xx_HAL_Driver/Src/stm32l4xx_ll_usb.c **** 
 677:Drivers/STM32L4xx_HAL_Driver/Src/stm32l4xx_ll_usb.c **** /**
 678:Drivers/STM32L4xx_HAL_Driver/Src/stm32l4xx_ll_usb.c ****   * @brief  USB_EPStartXfer : setup and starts a transfer over an EP
 679:Drivers/STM32L4xx_HAL_Driver/Src/stm32l4xx_ll_usb.c ****   * @param  USBx  Selected device
 680:Drivers/STM32L4xx_HAL_Driver/Src/stm32l4xx_ll_usb.c ****   * @param  ep pointer to endpoint structure
 681:Drivers/STM32L4xx_HAL_Driver/Src/stm32l4xx_ll_usb.c ****   * @retval HAL status
 682:Drivers/STM32L4xx_HAL_Driver/Src/stm32l4xx_ll_usb.c ****   */
 683:Drivers/STM32L4xx_HAL_Driver/Src/stm32l4xx_ll_usb.c **** HAL_StatusTypeDef USB_EPStartXfer(USB_OTG_GlobalTypeDef *USBx, USB_OTG_EPTypeDef *ep)
 684:Drivers/STM32L4xx_HAL_Driver/Src/stm32l4xx_ll_usb.c **** {
 685:Drivers/STM32L4xx_HAL_Driver/Src/stm32l4xx_ll_usb.c ****   uint32_t USBx_BASE = (uint32_t)USBx;
 686:Drivers/STM32L4xx_HAL_Driver/Src/stm32l4xx_ll_usb.c ****   uint32_t epnum = (uint32_t)ep->num;
 687:Drivers/STM32L4xx_HAL_Driver/Src/stm32l4xx_ll_usb.c ****   uint16_t pktcnt;
 688:Drivers/STM32L4xx_HAL_Driver/Src/stm32l4xx_ll_usb.c **** 
 689:Drivers/STM32L4xx_HAL_Driver/Src/stm32l4xx_ll_usb.c ****   /* IN endpoint */
 690:Drivers/STM32L4xx_HAL_Driver/Src/stm32l4xx_ll_usb.c ****   if (ep->is_in == 1U)
 691:Drivers/STM32L4xx_HAL_Driver/Src/stm32l4xx_ll_usb.c ****   {
 692:Drivers/STM32L4xx_HAL_Driver/Src/stm32l4xx_ll_usb.c ****     /* Zero Length Packet? */
 693:Drivers/STM32L4xx_HAL_Driver/Src/stm32l4xx_ll_usb.c ****     if (ep->xfer_len == 0U)
 694:Drivers/STM32L4xx_HAL_Driver/Src/stm32l4xx_ll_usb.c ****     {
 695:Drivers/STM32L4xx_HAL_Driver/Src/stm32l4xx_ll_usb.c ****       USBx_INEP(epnum)->DIEPTSIZ &= ~(USB_OTG_DIEPTSIZ_PKTCNT);
 696:Drivers/STM32L4xx_HAL_Driver/Src/stm32l4xx_ll_usb.c ****       USBx_INEP(epnum)->DIEPTSIZ |= (USB_OTG_DIEPTSIZ_PKTCNT & (1U << 19));
 697:Drivers/STM32L4xx_HAL_Driver/Src/stm32l4xx_ll_usb.c ****       USBx_INEP(epnum)->DIEPTSIZ &= ~(USB_OTG_DIEPTSIZ_XFRSIZ);
 698:Drivers/STM32L4xx_HAL_Driver/Src/stm32l4xx_ll_usb.c ****     }
 699:Drivers/STM32L4xx_HAL_Driver/Src/stm32l4xx_ll_usb.c ****     else
 700:Drivers/STM32L4xx_HAL_Driver/Src/stm32l4xx_ll_usb.c ****     {
 701:Drivers/STM32L4xx_HAL_Driver/Src/stm32l4xx_ll_usb.c ****       /* Program the transfer size and packet count
 702:Drivers/STM32L4xx_HAL_Driver/Src/stm32l4xx_ll_usb.c ****       * as follows: xfersize = N * maxpacket +
 703:Drivers/STM32L4xx_HAL_Driver/Src/stm32l4xx_ll_usb.c ****       * short_packet pktcnt = N + (short_packet
 704:Drivers/STM32L4xx_HAL_Driver/Src/stm32l4xx_ll_usb.c ****       * exist ? 1 : 0)
 705:Drivers/STM32L4xx_HAL_Driver/Src/stm32l4xx_ll_usb.c ****       */
 706:Drivers/STM32L4xx_HAL_Driver/Src/stm32l4xx_ll_usb.c ****       USBx_INEP(epnum)->DIEPTSIZ &= ~(USB_OTG_DIEPTSIZ_XFRSIZ);
 707:Drivers/STM32L4xx_HAL_Driver/Src/stm32l4xx_ll_usb.c ****       USBx_INEP(epnum)->DIEPTSIZ &= ~(USB_OTG_DIEPTSIZ_PKTCNT);
 708:Drivers/STM32L4xx_HAL_Driver/Src/stm32l4xx_ll_usb.c ****       USBx_INEP(epnum)->DIEPTSIZ |= (USB_OTG_DIEPTSIZ_PKTCNT &
 709:Drivers/STM32L4xx_HAL_Driver/Src/stm32l4xx_ll_usb.c ****                                      (((ep->xfer_len + ep->maxpacket - 1U) / ep->maxpacket) << 19))
 710:Drivers/STM32L4xx_HAL_Driver/Src/stm32l4xx_ll_usb.c **** 
 711:Drivers/STM32L4xx_HAL_Driver/Src/stm32l4xx_ll_usb.c ****       USBx_INEP(epnum)->DIEPTSIZ |= (USB_OTG_DIEPTSIZ_XFRSIZ & ep->xfer_len);
 712:Drivers/STM32L4xx_HAL_Driver/Src/stm32l4xx_ll_usb.c **** 
 713:Drivers/STM32L4xx_HAL_Driver/Src/stm32l4xx_ll_usb.c ****       if (ep->type == EP_TYPE_ISOC)
 714:Drivers/STM32L4xx_HAL_Driver/Src/stm32l4xx_ll_usb.c ****       {
ARM GAS  /tmp/ccdWnOQF.s 			page 14


 715:Drivers/STM32L4xx_HAL_Driver/Src/stm32l4xx_ll_usb.c ****         USBx_INEP(epnum)->DIEPTSIZ &= ~(USB_OTG_DIEPTSIZ_MULCNT);
 716:Drivers/STM32L4xx_HAL_Driver/Src/stm32l4xx_ll_usb.c ****         USBx_INEP(epnum)->DIEPTSIZ |= (USB_OTG_DIEPTSIZ_MULCNT & (1U << 29));
 717:Drivers/STM32L4xx_HAL_Driver/Src/stm32l4xx_ll_usb.c ****       }
 718:Drivers/STM32L4xx_HAL_Driver/Src/stm32l4xx_ll_usb.c ****     }
 719:Drivers/STM32L4xx_HAL_Driver/Src/stm32l4xx_ll_usb.c ****     /* EP enable, IN data in FIFO */
 720:Drivers/STM32L4xx_HAL_Driver/Src/stm32l4xx_ll_usb.c ****     USBx_INEP(epnum)->DIEPCTL |= (USB_OTG_DIEPCTL_CNAK | USB_OTG_DIEPCTL_EPENA);
 721:Drivers/STM32L4xx_HAL_Driver/Src/stm32l4xx_ll_usb.c **** 
 722:Drivers/STM32L4xx_HAL_Driver/Src/stm32l4xx_ll_usb.c ****     if (ep->type != EP_TYPE_ISOC)
 723:Drivers/STM32L4xx_HAL_Driver/Src/stm32l4xx_ll_usb.c ****     {
 724:Drivers/STM32L4xx_HAL_Driver/Src/stm32l4xx_ll_usb.c ****       /* Enable the Tx FIFO Empty Interrupt for this EP */
 725:Drivers/STM32L4xx_HAL_Driver/Src/stm32l4xx_ll_usb.c ****       if (ep->xfer_len > 0U)
 726:Drivers/STM32L4xx_HAL_Driver/Src/stm32l4xx_ll_usb.c ****       {
 727:Drivers/STM32L4xx_HAL_Driver/Src/stm32l4xx_ll_usb.c ****         USBx_DEVICE->DIEPEMPMSK |= 1UL << (ep->num & EP_ADDR_MSK);
 728:Drivers/STM32L4xx_HAL_Driver/Src/stm32l4xx_ll_usb.c ****       }
 729:Drivers/STM32L4xx_HAL_Driver/Src/stm32l4xx_ll_usb.c ****     }
 730:Drivers/STM32L4xx_HAL_Driver/Src/stm32l4xx_ll_usb.c ****     else
 731:Drivers/STM32L4xx_HAL_Driver/Src/stm32l4xx_ll_usb.c ****     {
 732:Drivers/STM32L4xx_HAL_Driver/Src/stm32l4xx_ll_usb.c ****       if ((USBx_DEVICE->DSTS & (1U << 8)) == 0U)
 733:Drivers/STM32L4xx_HAL_Driver/Src/stm32l4xx_ll_usb.c ****       {
 734:Drivers/STM32L4xx_HAL_Driver/Src/stm32l4xx_ll_usb.c ****         USBx_INEP(epnum)->DIEPCTL |= USB_OTG_DIEPCTL_SODDFRM;
 735:Drivers/STM32L4xx_HAL_Driver/Src/stm32l4xx_ll_usb.c ****       }
 736:Drivers/STM32L4xx_HAL_Driver/Src/stm32l4xx_ll_usb.c ****       else
 737:Drivers/STM32L4xx_HAL_Driver/Src/stm32l4xx_ll_usb.c ****       {
 738:Drivers/STM32L4xx_HAL_Driver/Src/stm32l4xx_ll_usb.c ****         USBx_INEP(epnum)->DIEPCTL |= USB_OTG_DIEPCTL_SD0PID_SEVNFRM;
 739:Drivers/STM32L4xx_HAL_Driver/Src/stm32l4xx_ll_usb.c ****       }
 740:Drivers/STM32L4xx_HAL_Driver/Src/stm32l4xx_ll_usb.c **** 
 741:Drivers/STM32L4xx_HAL_Driver/Src/stm32l4xx_ll_usb.c ****       (void)USB_WritePacket(USBx, ep->xfer_buff, ep->num, (uint16_t)ep->xfer_len);
 742:Drivers/STM32L4xx_HAL_Driver/Src/stm32l4xx_ll_usb.c ****     }
 743:Drivers/STM32L4xx_HAL_Driver/Src/stm32l4xx_ll_usb.c ****   }
 744:Drivers/STM32L4xx_HAL_Driver/Src/stm32l4xx_ll_usb.c ****   else /* OUT endpoint */
 745:Drivers/STM32L4xx_HAL_Driver/Src/stm32l4xx_ll_usb.c ****   {
 746:Drivers/STM32L4xx_HAL_Driver/Src/stm32l4xx_ll_usb.c ****     /* Program the transfer size and packet count as follows:
 747:Drivers/STM32L4xx_HAL_Driver/Src/stm32l4xx_ll_usb.c ****     * pktcnt = N
 748:Drivers/STM32L4xx_HAL_Driver/Src/stm32l4xx_ll_usb.c ****     * xfersize = N * maxpacket
 749:Drivers/STM32L4xx_HAL_Driver/Src/stm32l4xx_ll_usb.c ****     */
 750:Drivers/STM32L4xx_HAL_Driver/Src/stm32l4xx_ll_usb.c ****     USBx_OUTEP(epnum)->DOEPTSIZ &= ~(USB_OTG_DOEPTSIZ_XFRSIZ);
 751:Drivers/STM32L4xx_HAL_Driver/Src/stm32l4xx_ll_usb.c ****     USBx_OUTEP(epnum)->DOEPTSIZ &= ~(USB_OTG_DOEPTSIZ_PKTCNT);
 752:Drivers/STM32L4xx_HAL_Driver/Src/stm32l4xx_ll_usb.c **** 
 753:Drivers/STM32L4xx_HAL_Driver/Src/stm32l4xx_ll_usb.c ****     if (ep->xfer_len == 0U)
 754:Drivers/STM32L4xx_HAL_Driver/Src/stm32l4xx_ll_usb.c ****     {
 755:Drivers/STM32L4xx_HAL_Driver/Src/stm32l4xx_ll_usb.c ****       USBx_OUTEP(epnum)->DOEPTSIZ |= (USB_OTG_DOEPTSIZ_XFRSIZ & ep->maxpacket);
 756:Drivers/STM32L4xx_HAL_Driver/Src/stm32l4xx_ll_usb.c ****       USBx_OUTEP(epnum)->DOEPTSIZ |= (USB_OTG_DOEPTSIZ_PKTCNT & (1U << 19));
 757:Drivers/STM32L4xx_HAL_Driver/Src/stm32l4xx_ll_usb.c ****     }
 758:Drivers/STM32L4xx_HAL_Driver/Src/stm32l4xx_ll_usb.c ****     else
 759:Drivers/STM32L4xx_HAL_Driver/Src/stm32l4xx_ll_usb.c ****     {
 760:Drivers/STM32L4xx_HAL_Driver/Src/stm32l4xx_ll_usb.c ****       pktcnt = (uint16_t)((ep->xfer_len + ep->maxpacket - 1U) / ep->maxpacket);
 761:Drivers/STM32L4xx_HAL_Driver/Src/stm32l4xx_ll_usb.c ****       ep->xfer_size = ep->maxpacket * pktcnt;
 762:Drivers/STM32L4xx_HAL_Driver/Src/stm32l4xx_ll_usb.c **** 
 763:Drivers/STM32L4xx_HAL_Driver/Src/stm32l4xx_ll_usb.c ****       USBx_OUTEP(epnum)->DOEPTSIZ |= USB_OTG_DOEPTSIZ_PKTCNT & ((uint32_t)pktcnt << 19);
 764:Drivers/STM32L4xx_HAL_Driver/Src/stm32l4xx_ll_usb.c ****       USBx_OUTEP(epnum)->DOEPTSIZ |= USB_OTG_DOEPTSIZ_XFRSIZ & ep->xfer_size;
 765:Drivers/STM32L4xx_HAL_Driver/Src/stm32l4xx_ll_usb.c ****     }
 766:Drivers/STM32L4xx_HAL_Driver/Src/stm32l4xx_ll_usb.c **** 
 767:Drivers/STM32L4xx_HAL_Driver/Src/stm32l4xx_ll_usb.c ****     if (ep->type == EP_TYPE_ISOC)
 768:Drivers/STM32L4xx_HAL_Driver/Src/stm32l4xx_ll_usb.c ****     {
 769:Drivers/STM32L4xx_HAL_Driver/Src/stm32l4xx_ll_usb.c ****       if ((USBx_DEVICE->DSTS & (1U << 8)) == 0U)
 770:Drivers/STM32L4xx_HAL_Driver/Src/stm32l4xx_ll_usb.c ****       {
 771:Drivers/STM32L4xx_HAL_Driver/Src/stm32l4xx_ll_usb.c ****         USBx_OUTEP(epnum)->DOEPCTL |= USB_OTG_DOEPCTL_SODDFRM;
ARM GAS  /tmp/ccdWnOQF.s 			page 15


 772:Drivers/STM32L4xx_HAL_Driver/Src/stm32l4xx_ll_usb.c ****       }
 773:Drivers/STM32L4xx_HAL_Driver/Src/stm32l4xx_ll_usb.c ****       else
 774:Drivers/STM32L4xx_HAL_Driver/Src/stm32l4xx_ll_usb.c ****       {
 775:Drivers/STM32L4xx_HAL_Driver/Src/stm32l4xx_ll_usb.c ****         USBx_OUTEP(epnum)->DOEPCTL |= USB_OTG_DOEPCTL_SD0PID_SEVNFRM;
 776:Drivers/STM32L4xx_HAL_Driver/Src/stm32l4xx_ll_usb.c ****       }
 777:Drivers/STM32L4xx_HAL_Driver/Src/stm32l4xx_ll_usb.c ****     }
 778:Drivers/STM32L4xx_HAL_Driver/Src/stm32l4xx_ll_usb.c ****     /* EP enable */
 779:Drivers/STM32L4xx_HAL_Driver/Src/stm32l4xx_ll_usb.c ****     USBx_OUTEP(epnum)->DOEPCTL |= (USB_OTG_DOEPCTL_CNAK | USB_OTG_DOEPCTL_EPENA);
 780:Drivers/STM32L4xx_HAL_Driver/Src/stm32l4xx_ll_usb.c ****   }
 781:Drivers/STM32L4xx_HAL_Driver/Src/stm32l4xx_ll_usb.c **** 
 782:Drivers/STM32L4xx_HAL_Driver/Src/stm32l4xx_ll_usb.c ****   return HAL_OK;
 783:Drivers/STM32L4xx_HAL_Driver/Src/stm32l4xx_ll_usb.c **** }
 784:Drivers/STM32L4xx_HAL_Driver/Src/stm32l4xx_ll_usb.c **** 
 785:Drivers/STM32L4xx_HAL_Driver/Src/stm32l4xx_ll_usb.c **** /**
 786:Drivers/STM32L4xx_HAL_Driver/Src/stm32l4xx_ll_usb.c ****   * @brief  USB_EP0StartXfer : setup and starts a transfer over the EP  0
 787:Drivers/STM32L4xx_HAL_Driver/Src/stm32l4xx_ll_usb.c ****   * @param  USBx  Selected device
 788:Drivers/STM32L4xx_HAL_Driver/Src/stm32l4xx_ll_usb.c ****   * @param  ep pointer to endpoint structure
 789:Drivers/STM32L4xx_HAL_Driver/Src/stm32l4xx_ll_usb.c ****   * @retval HAL status
 790:Drivers/STM32L4xx_HAL_Driver/Src/stm32l4xx_ll_usb.c ****   */
 791:Drivers/STM32L4xx_HAL_Driver/Src/stm32l4xx_ll_usb.c **** HAL_StatusTypeDef USB_EP0StartXfer(USB_OTG_GlobalTypeDef *USBx, USB_OTG_EPTypeDef *ep)
 792:Drivers/STM32L4xx_HAL_Driver/Src/stm32l4xx_ll_usb.c **** {
 793:Drivers/STM32L4xx_HAL_Driver/Src/stm32l4xx_ll_usb.c ****   uint32_t USBx_BASE = (uint32_t)USBx;
 794:Drivers/STM32L4xx_HAL_Driver/Src/stm32l4xx_ll_usb.c ****   uint32_t epnum = (uint32_t)ep->num;
 795:Drivers/STM32L4xx_HAL_Driver/Src/stm32l4xx_ll_usb.c **** 
 796:Drivers/STM32L4xx_HAL_Driver/Src/stm32l4xx_ll_usb.c ****   /* IN endpoint */
 797:Drivers/STM32L4xx_HAL_Driver/Src/stm32l4xx_ll_usb.c ****   if (ep->is_in == 1U)
 798:Drivers/STM32L4xx_HAL_Driver/Src/stm32l4xx_ll_usb.c ****   {
 799:Drivers/STM32L4xx_HAL_Driver/Src/stm32l4xx_ll_usb.c ****     /* Zero Length Packet? */
 800:Drivers/STM32L4xx_HAL_Driver/Src/stm32l4xx_ll_usb.c ****     if (ep->xfer_len == 0U)
 801:Drivers/STM32L4xx_HAL_Driver/Src/stm32l4xx_ll_usb.c ****     {
 802:Drivers/STM32L4xx_HAL_Driver/Src/stm32l4xx_ll_usb.c ****       USBx_INEP(epnum)->DIEPTSIZ &= ~(USB_OTG_DIEPTSIZ_PKTCNT);
 803:Drivers/STM32L4xx_HAL_Driver/Src/stm32l4xx_ll_usb.c ****       USBx_INEP(epnum)->DIEPTSIZ |= (USB_OTG_DIEPTSIZ_PKTCNT & (1U << 19));
 804:Drivers/STM32L4xx_HAL_Driver/Src/stm32l4xx_ll_usb.c ****       USBx_INEP(epnum)->DIEPTSIZ &= ~(USB_OTG_DIEPTSIZ_XFRSIZ);
 805:Drivers/STM32L4xx_HAL_Driver/Src/stm32l4xx_ll_usb.c ****     }
 806:Drivers/STM32L4xx_HAL_Driver/Src/stm32l4xx_ll_usb.c ****     else
 807:Drivers/STM32L4xx_HAL_Driver/Src/stm32l4xx_ll_usb.c ****     {
 808:Drivers/STM32L4xx_HAL_Driver/Src/stm32l4xx_ll_usb.c ****       /* Program the transfer size and packet count
 809:Drivers/STM32L4xx_HAL_Driver/Src/stm32l4xx_ll_usb.c ****       * as follows: xfersize = N * maxpacket +
 810:Drivers/STM32L4xx_HAL_Driver/Src/stm32l4xx_ll_usb.c ****       * short_packet pktcnt = N + (short_packet
 811:Drivers/STM32L4xx_HAL_Driver/Src/stm32l4xx_ll_usb.c ****       * exist ? 1 : 0)
 812:Drivers/STM32L4xx_HAL_Driver/Src/stm32l4xx_ll_usb.c ****       */
 813:Drivers/STM32L4xx_HAL_Driver/Src/stm32l4xx_ll_usb.c ****       USBx_INEP(epnum)->DIEPTSIZ &= ~(USB_OTG_DIEPTSIZ_XFRSIZ);
 814:Drivers/STM32L4xx_HAL_Driver/Src/stm32l4xx_ll_usb.c ****       USBx_INEP(epnum)->DIEPTSIZ &= ~(USB_OTG_DIEPTSIZ_PKTCNT);
 815:Drivers/STM32L4xx_HAL_Driver/Src/stm32l4xx_ll_usb.c **** 
 816:Drivers/STM32L4xx_HAL_Driver/Src/stm32l4xx_ll_usb.c ****       if (ep->xfer_len > ep->maxpacket)
 817:Drivers/STM32L4xx_HAL_Driver/Src/stm32l4xx_ll_usb.c ****       {
 818:Drivers/STM32L4xx_HAL_Driver/Src/stm32l4xx_ll_usb.c ****         ep->xfer_len = ep->maxpacket;
 819:Drivers/STM32L4xx_HAL_Driver/Src/stm32l4xx_ll_usb.c ****       }
 820:Drivers/STM32L4xx_HAL_Driver/Src/stm32l4xx_ll_usb.c ****       USBx_INEP(epnum)->DIEPTSIZ |= (USB_OTG_DIEPTSIZ_PKTCNT & (1U << 19));
 821:Drivers/STM32L4xx_HAL_Driver/Src/stm32l4xx_ll_usb.c ****       USBx_INEP(epnum)->DIEPTSIZ |= (USB_OTG_DIEPTSIZ_XFRSIZ & ep->xfer_len);
 822:Drivers/STM32L4xx_HAL_Driver/Src/stm32l4xx_ll_usb.c ****     }
 823:Drivers/STM32L4xx_HAL_Driver/Src/stm32l4xx_ll_usb.c **** 
 824:Drivers/STM32L4xx_HAL_Driver/Src/stm32l4xx_ll_usb.c ****     /* EP enable, IN data in FIFO */
 825:Drivers/STM32L4xx_HAL_Driver/Src/stm32l4xx_ll_usb.c ****     USBx_INEP(epnum)->DIEPCTL |= (USB_OTG_DIEPCTL_CNAK | USB_OTG_DIEPCTL_EPENA);
 826:Drivers/STM32L4xx_HAL_Driver/Src/stm32l4xx_ll_usb.c **** 
 827:Drivers/STM32L4xx_HAL_Driver/Src/stm32l4xx_ll_usb.c ****     /* Enable the Tx FIFO Empty Interrupt for this EP */
 828:Drivers/STM32L4xx_HAL_Driver/Src/stm32l4xx_ll_usb.c ****     if (ep->xfer_len > 0U)
ARM GAS  /tmp/ccdWnOQF.s 			page 16


 829:Drivers/STM32L4xx_HAL_Driver/Src/stm32l4xx_ll_usb.c ****     {
 830:Drivers/STM32L4xx_HAL_Driver/Src/stm32l4xx_ll_usb.c ****       USBx_DEVICE->DIEPEMPMSK |= 1UL << (ep->num & EP_ADDR_MSK);
 831:Drivers/STM32L4xx_HAL_Driver/Src/stm32l4xx_ll_usb.c ****     }
 832:Drivers/STM32L4xx_HAL_Driver/Src/stm32l4xx_ll_usb.c ****   }
 833:Drivers/STM32L4xx_HAL_Driver/Src/stm32l4xx_ll_usb.c ****   else /* OUT endpoint */
 834:Drivers/STM32L4xx_HAL_Driver/Src/stm32l4xx_ll_usb.c ****   {
 835:Drivers/STM32L4xx_HAL_Driver/Src/stm32l4xx_ll_usb.c ****     /* Program the transfer size and packet count as follows:
 836:Drivers/STM32L4xx_HAL_Driver/Src/stm32l4xx_ll_usb.c ****     * pktcnt = N
 837:Drivers/STM32L4xx_HAL_Driver/Src/stm32l4xx_ll_usb.c ****     * xfersize = N * maxpacket
 838:Drivers/STM32L4xx_HAL_Driver/Src/stm32l4xx_ll_usb.c ****     */
 839:Drivers/STM32L4xx_HAL_Driver/Src/stm32l4xx_ll_usb.c ****     USBx_OUTEP(epnum)->DOEPTSIZ &= ~(USB_OTG_DOEPTSIZ_XFRSIZ);
 840:Drivers/STM32L4xx_HAL_Driver/Src/stm32l4xx_ll_usb.c ****     USBx_OUTEP(epnum)->DOEPTSIZ &= ~(USB_OTG_DOEPTSIZ_PKTCNT);
 841:Drivers/STM32L4xx_HAL_Driver/Src/stm32l4xx_ll_usb.c **** 
 842:Drivers/STM32L4xx_HAL_Driver/Src/stm32l4xx_ll_usb.c ****     if (ep->xfer_len > 0U)
 843:Drivers/STM32L4xx_HAL_Driver/Src/stm32l4xx_ll_usb.c ****     {
 844:Drivers/STM32L4xx_HAL_Driver/Src/stm32l4xx_ll_usb.c ****       ep->xfer_len = ep->maxpacket;
 845:Drivers/STM32L4xx_HAL_Driver/Src/stm32l4xx_ll_usb.c ****     }
 846:Drivers/STM32L4xx_HAL_Driver/Src/stm32l4xx_ll_usb.c **** 
 847:Drivers/STM32L4xx_HAL_Driver/Src/stm32l4xx_ll_usb.c ****     /* Store transfer size, for EP0 this is equal to endpoint max packet size */
 848:Drivers/STM32L4xx_HAL_Driver/Src/stm32l4xx_ll_usb.c ****     ep->xfer_size = ep->maxpacket;
 849:Drivers/STM32L4xx_HAL_Driver/Src/stm32l4xx_ll_usb.c **** 
 850:Drivers/STM32L4xx_HAL_Driver/Src/stm32l4xx_ll_usb.c ****     USBx_OUTEP(epnum)->DOEPTSIZ |= (USB_OTG_DOEPTSIZ_PKTCNT & (1U << 19));
 851:Drivers/STM32L4xx_HAL_Driver/Src/stm32l4xx_ll_usb.c ****     USBx_OUTEP(epnum)->DOEPTSIZ |= (USB_OTG_DOEPTSIZ_XFRSIZ & ep->xfer_size);
 852:Drivers/STM32L4xx_HAL_Driver/Src/stm32l4xx_ll_usb.c **** 
 853:Drivers/STM32L4xx_HAL_Driver/Src/stm32l4xx_ll_usb.c ****     /* EP enable */
 854:Drivers/STM32L4xx_HAL_Driver/Src/stm32l4xx_ll_usb.c ****     USBx_OUTEP(epnum)->DOEPCTL |= (USB_OTG_DOEPCTL_CNAK | USB_OTG_DOEPCTL_EPENA);
 855:Drivers/STM32L4xx_HAL_Driver/Src/stm32l4xx_ll_usb.c ****   }
 856:Drivers/STM32L4xx_HAL_Driver/Src/stm32l4xx_ll_usb.c **** 
 857:Drivers/STM32L4xx_HAL_Driver/Src/stm32l4xx_ll_usb.c ****   return HAL_OK;
 858:Drivers/STM32L4xx_HAL_Driver/Src/stm32l4xx_ll_usb.c **** }
 859:Drivers/STM32L4xx_HAL_Driver/Src/stm32l4xx_ll_usb.c **** 
 860:Drivers/STM32L4xx_HAL_Driver/Src/stm32l4xx_ll_usb.c **** 
 861:Drivers/STM32L4xx_HAL_Driver/Src/stm32l4xx_ll_usb.c **** /**
 862:Drivers/STM32L4xx_HAL_Driver/Src/stm32l4xx_ll_usb.c ****    * @brief  USB_EPStoptXfer  Stop transfer on an EP
 863:Drivers/STM32L4xx_HAL_Driver/Src/stm32l4xx_ll_usb.c ****    * @param  USBx  usb device instance
 864:Drivers/STM32L4xx_HAL_Driver/Src/stm32l4xx_ll_usb.c ****    * @param  ep pointer to endpoint structure
 865:Drivers/STM32L4xx_HAL_Driver/Src/stm32l4xx_ll_usb.c ****    * @retval HAL status
 866:Drivers/STM32L4xx_HAL_Driver/Src/stm32l4xx_ll_usb.c ****    */
 867:Drivers/STM32L4xx_HAL_Driver/Src/stm32l4xx_ll_usb.c **** HAL_StatusTypeDef USB_EPStopXfer(USB_OTG_GlobalTypeDef *USBx, USB_OTG_EPTypeDef *ep)
 868:Drivers/STM32L4xx_HAL_Driver/Src/stm32l4xx_ll_usb.c **** {
 869:Drivers/STM32L4xx_HAL_Driver/Src/stm32l4xx_ll_usb.c ****   __IO uint32_t count = 0U;
 870:Drivers/STM32L4xx_HAL_Driver/Src/stm32l4xx_ll_usb.c ****   HAL_StatusTypeDef ret = HAL_OK;
 871:Drivers/STM32L4xx_HAL_Driver/Src/stm32l4xx_ll_usb.c ****   uint32_t USBx_BASE = (uint32_t)USBx;
 872:Drivers/STM32L4xx_HAL_Driver/Src/stm32l4xx_ll_usb.c **** 
 873:Drivers/STM32L4xx_HAL_Driver/Src/stm32l4xx_ll_usb.c ****   /* IN endpoint */
 874:Drivers/STM32L4xx_HAL_Driver/Src/stm32l4xx_ll_usb.c ****   if (ep->is_in == 1U)
 875:Drivers/STM32L4xx_HAL_Driver/Src/stm32l4xx_ll_usb.c ****   {
 876:Drivers/STM32L4xx_HAL_Driver/Src/stm32l4xx_ll_usb.c ****     /* EP enable, IN data in FIFO */
 877:Drivers/STM32L4xx_HAL_Driver/Src/stm32l4xx_ll_usb.c ****     if (((USBx_INEP(ep->num)->DIEPCTL) & USB_OTG_DIEPCTL_EPENA) == USB_OTG_DIEPCTL_EPENA)
 878:Drivers/STM32L4xx_HAL_Driver/Src/stm32l4xx_ll_usb.c ****     {
 879:Drivers/STM32L4xx_HAL_Driver/Src/stm32l4xx_ll_usb.c ****       USBx_INEP(ep->num)->DIEPCTL |= (USB_OTG_DIEPCTL_SNAK);
 880:Drivers/STM32L4xx_HAL_Driver/Src/stm32l4xx_ll_usb.c ****       USBx_INEP(ep->num)->DIEPCTL |= (USB_OTG_DIEPCTL_EPDIS);
 881:Drivers/STM32L4xx_HAL_Driver/Src/stm32l4xx_ll_usb.c **** 
 882:Drivers/STM32L4xx_HAL_Driver/Src/stm32l4xx_ll_usb.c ****       do
 883:Drivers/STM32L4xx_HAL_Driver/Src/stm32l4xx_ll_usb.c ****       {
 884:Drivers/STM32L4xx_HAL_Driver/Src/stm32l4xx_ll_usb.c ****         count++;
 885:Drivers/STM32L4xx_HAL_Driver/Src/stm32l4xx_ll_usb.c **** 
ARM GAS  /tmp/ccdWnOQF.s 			page 17


 886:Drivers/STM32L4xx_HAL_Driver/Src/stm32l4xx_ll_usb.c ****         if (count > 10000U)
 887:Drivers/STM32L4xx_HAL_Driver/Src/stm32l4xx_ll_usb.c ****         {
 888:Drivers/STM32L4xx_HAL_Driver/Src/stm32l4xx_ll_usb.c ****           ret = HAL_ERROR;
 889:Drivers/STM32L4xx_HAL_Driver/Src/stm32l4xx_ll_usb.c ****           break;
 890:Drivers/STM32L4xx_HAL_Driver/Src/stm32l4xx_ll_usb.c ****         }
 891:Drivers/STM32L4xx_HAL_Driver/Src/stm32l4xx_ll_usb.c ****       } while (((USBx_INEP(ep->num)->DIEPCTL) & USB_OTG_DIEPCTL_EPENA) ==  USB_OTG_DIEPCTL_EPENA);
 892:Drivers/STM32L4xx_HAL_Driver/Src/stm32l4xx_ll_usb.c ****     }
 893:Drivers/STM32L4xx_HAL_Driver/Src/stm32l4xx_ll_usb.c ****   }
 894:Drivers/STM32L4xx_HAL_Driver/Src/stm32l4xx_ll_usb.c ****   else /* OUT endpoint */
 895:Drivers/STM32L4xx_HAL_Driver/Src/stm32l4xx_ll_usb.c ****   {
 896:Drivers/STM32L4xx_HAL_Driver/Src/stm32l4xx_ll_usb.c ****     if (((USBx_OUTEP(ep->num)->DOEPCTL) & USB_OTG_DOEPCTL_EPENA) == USB_OTG_DOEPCTL_EPENA)
 897:Drivers/STM32L4xx_HAL_Driver/Src/stm32l4xx_ll_usb.c ****     {
 898:Drivers/STM32L4xx_HAL_Driver/Src/stm32l4xx_ll_usb.c ****       USBx_OUTEP(ep->num)->DOEPCTL |= (USB_OTG_DOEPCTL_SNAK);
 899:Drivers/STM32L4xx_HAL_Driver/Src/stm32l4xx_ll_usb.c ****       USBx_OUTEP(ep->num)->DOEPCTL |= (USB_OTG_DOEPCTL_EPDIS);
 900:Drivers/STM32L4xx_HAL_Driver/Src/stm32l4xx_ll_usb.c **** 
 901:Drivers/STM32L4xx_HAL_Driver/Src/stm32l4xx_ll_usb.c ****       do
 902:Drivers/STM32L4xx_HAL_Driver/Src/stm32l4xx_ll_usb.c ****       {
 903:Drivers/STM32L4xx_HAL_Driver/Src/stm32l4xx_ll_usb.c ****         count++;
 904:Drivers/STM32L4xx_HAL_Driver/Src/stm32l4xx_ll_usb.c **** 
 905:Drivers/STM32L4xx_HAL_Driver/Src/stm32l4xx_ll_usb.c ****         if (count > 10000U)
 906:Drivers/STM32L4xx_HAL_Driver/Src/stm32l4xx_ll_usb.c ****         {
 907:Drivers/STM32L4xx_HAL_Driver/Src/stm32l4xx_ll_usb.c ****           ret = HAL_ERROR;
 908:Drivers/STM32L4xx_HAL_Driver/Src/stm32l4xx_ll_usb.c ****           break;
 909:Drivers/STM32L4xx_HAL_Driver/Src/stm32l4xx_ll_usb.c ****         }
 910:Drivers/STM32L4xx_HAL_Driver/Src/stm32l4xx_ll_usb.c ****       } while (((USBx_OUTEP(ep->num)->DOEPCTL) & USB_OTG_DOEPCTL_EPENA) ==  USB_OTG_DOEPCTL_EPENA);
 911:Drivers/STM32L4xx_HAL_Driver/Src/stm32l4xx_ll_usb.c ****     }
 912:Drivers/STM32L4xx_HAL_Driver/Src/stm32l4xx_ll_usb.c ****   }
 913:Drivers/STM32L4xx_HAL_Driver/Src/stm32l4xx_ll_usb.c **** 
 914:Drivers/STM32L4xx_HAL_Driver/Src/stm32l4xx_ll_usb.c ****   return ret;
 915:Drivers/STM32L4xx_HAL_Driver/Src/stm32l4xx_ll_usb.c **** }
 916:Drivers/STM32L4xx_HAL_Driver/Src/stm32l4xx_ll_usb.c **** 
 917:Drivers/STM32L4xx_HAL_Driver/Src/stm32l4xx_ll_usb.c **** 
 918:Drivers/STM32L4xx_HAL_Driver/Src/stm32l4xx_ll_usb.c **** /**
 919:Drivers/STM32L4xx_HAL_Driver/Src/stm32l4xx_ll_usb.c ****   * @brief  USB_WritePacket : Writes a packet into the Tx FIFO associated
 920:Drivers/STM32L4xx_HAL_Driver/Src/stm32l4xx_ll_usb.c ****   *         with the EP/channel
 921:Drivers/STM32L4xx_HAL_Driver/Src/stm32l4xx_ll_usb.c ****   * @param  USBx  Selected device
 922:Drivers/STM32L4xx_HAL_Driver/Src/stm32l4xx_ll_usb.c ****   * @param  src   pointer to source buffer
 923:Drivers/STM32L4xx_HAL_Driver/Src/stm32l4xx_ll_usb.c ****   * @param  ch_ep_num  endpoint or host channel number
 924:Drivers/STM32L4xx_HAL_Driver/Src/stm32l4xx_ll_usb.c ****   * @param  len  Number of bytes to write
 925:Drivers/STM32L4xx_HAL_Driver/Src/stm32l4xx_ll_usb.c ****   * @retval HAL status
 926:Drivers/STM32L4xx_HAL_Driver/Src/stm32l4xx_ll_usb.c ****   */
 927:Drivers/STM32L4xx_HAL_Driver/Src/stm32l4xx_ll_usb.c **** HAL_StatusTypeDef USB_WritePacket(USB_OTG_GlobalTypeDef *USBx, uint8_t *src,
 928:Drivers/STM32L4xx_HAL_Driver/Src/stm32l4xx_ll_usb.c ****                                   uint8_t ch_ep_num, uint16_t len)
 929:Drivers/STM32L4xx_HAL_Driver/Src/stm32l4xx_ll_usb.c **** {
 930:Drivers/STM32L4xx_HAL_Driver/Src/stm32l4xx_ll_usb.c ****   uint32_t USBx_BASE = (uint32_t)USBx;
 931:Drivers/STM32L4xx_HAL_Driver/Src/stm32l4xx_ll_usb.c ****   uint8_t *pSrc = src;
 932:Drivers/STM32L4xx_HAL_Driver/Src/stm32l4xx_ll_usb.c ****   uint32_t count32b;
 933:Drivers/STM32L4xx_HAL_Driver/Src/stm32l4xx_ll_usb.c ****   uint32_t i;
 934:Drivers/STM32L4xx_HAL_Driver/Src/stm32l4xx_ll_usb.c **** 
 935:Drivers/STM32L4xx_HAL_Driver/Src/stm32l4xx_ll_usb.c ****   count32b = ((uint32_t)len + 3U) / 4U;
 936:Drivers/STM32L4xx_HAL_Driver/Src/stm32l4xx_ll_usb.c ****   for (i = 0U; i < count32b; i++)
 937:Drivers/STM32L4xx_HAL_Driver/Src/stm32l4xx_ll_usb.c ****   {
 938:Drivers/STM32L4xx_HAL_Driver/Src/stm32l4xx_ll_usb.c ****     USBx_DFIFO((uint32_t)ch_ep_num) = __UNALIGNED_UINT32_READ(pSrc);
 939:Drivers/STM32L4xx_HAL_Driver/Src/stm32l4xx_ll_usb.c ****     pSrc++;
 940:Drivers/STM32L4xx_HAL_Driver/Src/stm32l4xx_ll_usb.c ****     pSrc++;
 941:Drivers/STM32L4xx_HAL_Driver/Src/stm32l4xx_ll_usb.c ****     pSrc++;
 942:Drivers/STM32L4xx_HAL_Driver/Src/stm32l4xx_ll_usb.c ****     pSrc++;
ARM GAS  /tmp/ccdWnOQF.s 			page 18


 943:Drivers/STM32L4xx_HAL_Driver/Src/stm32l4xx_ll_usb.c ****   }
 944:Drivers/STM32L4xx_HAL_Driver/Src/stm32l4xx_ll_usb.c **** 
 945:Drivers/STM32L4xx_HAL_Driver/Src/stm32l4xx_ll_usb.c ****   return HAL_OK;
 946:Drivers/STM32L4xx_HAL_Driver/Src/stm32l4xx_ll_usb.c **** }
 947:Drivers/STM32L4xx_HAL_Driver/Src/stm32l4xx_ll_usb.c **** 
 948:Drivers/STM32L4xx_HAL_Driver/Src/stm32l4xx_ll_usb.c **** /**
 949:Drivers/STM32L4xx_HAL_Driver/Src/stm32l4xx_ll_usb.c ****   * @brief  USB_ReadPacket : read a packet from the RX FIFO
 950:Drivers/STM32L4xx_HAL_Driver/Src/stm32l4xx_ll_usb.c ****   * @param  USBx  Selected device
 951:Drivers/STM32L4xx_HAL_Driver/Src/stm32l4xx_ll_usb.c ****   * @param  dest  source pointer
 952:Drivers/STM32L4xx_HAL_Driver/Src/stm32l4xx_ll_usb.c ****   * @param  len  Number of bytes to read
 953:Drivers/STM32L4xx_HAL_Driver/Src/stm32l4xx_ll_usb.c ****   * @retval pointer to destination buffer
 954:Drivers/STM32L4xx_HAL_Driver/Src/stm32l4xx_ll_usb.c ****   */
 955:Drivers/STM32L4xx_HAL_Driver/Src/stm32l4xx_ll_usb.c **** void *USB_ReadPacket(USB_OTG_GlobalTypeDef *USBx, uint8_t *dest, uint16_t len)
 956:Drivers/STM32L4xx_HAL_Driver/Src/stm32l4xx_ll_usb.c **** {
 957:Drivers/STM32L4xx_HAL_Driver/Src/stm32l4xx_ll_usb.c ****   uint32_t USBx_BASE = (uint32_t)USBx;
 958:Drivers/STM32L4xx_HAL_Driver/Src/stm32l4xx_ll_usb.c ****   uint8_t *pDest = dest;
 959:Drivers/STM32L4xx_HAL_Driver/Src/stm32l4xx_ll_usb.c ****   uint32_t pData;
 960:Drivers/STM32L4xx_HAL_Driver/Src/stm32l4xx_ll_usb.c ****   uint32_t i;
 961:Drivers/STM32L4xx_HAL_Driver/Src/stm32l4xx_ll_usb.c ****   uint32_t count32b = (uint32_t)len >> 2U;
 962:Drivers/STM32L4xx_HAL_Driver/Src/stm32l4xx_ll_usb.c ****   uint16_t remaining_bytes = len % 4U;
 963:Drivers/STM32L4xx_HAL_Driver/Src/stm32l4xx_ll_usb.c **** 
 964:Drivers/STM32L4xx_HAL_Driver/Src/stm32l4xx_ll_usb.c ****   for (i = 0U; i < count32b; i++)
 965:Drivers/STM32L4xx_HAL_Driver/Src/stm32l4xx_ll_usb.c ****   {
 966:Drivers/STM32L4xx_HAL_Driver/Src/stm32l4xx_ll_usb.c ****     __UNALIGNED_UINT32_WRITE(pDest, USBx_DFIFO(0U));
 967:Drivers/STM32L4xx_HAL_Driver/Src/stm32l4xx_ll_usb.c ****     pDest++;
 968:Drivers/STM32L4xx_HAL_Driver/Src/stm32l4xx_ll_usb.c ****     pDest++;
 969:Drivers/STM32L4xx_HAL_Driver/Src/stm32l4xx_ll_usb.c ****     pDest++;
 970:Drivers/STM32L4xx_HAL_Driver/Src/stm32l4xx_ll_usb.c ****     pDest++;
 971:Drivers/STM32L4xx_HAL_Driver/Src/stm32l4xx_ll_usb.c ****   }
 972:Drivers/STM32L4xx_HAL_Driver/Src/stm32l4xx_ll_usb.c **** 
 973:Drivers/STM32L4xx_HAL_Driver/Src/stm32l4xx_ll_usb.c ****   /* When Number of data is not word aligned, read the remaining byte */
 974:Drivers/STM32L4xx_HAL_Driver/Src/stm32l4xx_ll_usb.c ****   if (remaining_bytes != 0U)
 975:Drivers/STM32L4xx_HAL_Driver/Src/stm32l4xx_ll_usb.c ****   {
 976:Drivers/STM32L4xx_HAL_Driver/Src/stm32l4xx_ll_usb.c ****     i = 0U;
 977:Drivers/STM32L4xx_HAL_Driver/Src/stm32l4xx_ll_usb.c ****     __UNALIGNED_UINT32_WRITE(&pData, USBx_DFIFO(0U));
 978:Drivers/STM32L4xx_HAL_Driver/Src/stm32l4xx_ll_usb.c **** 
 979:Drivers/STM32L4xx_HAL_Driver/Src/stm32l4xx_ll_usb.c ****     do
 980:Drivers/STM32L4xx_HAL_Driver/Src/stm32l4xx_ll_usb.c ****     {
 981:Drivers/STM32L4xx_HAL_Driver/Src/stm32l4xx_ll_usb.c ****       *(uint8_t *)pDest = (uint8_t)(pData >> (8U * (uint8_t)(i)));
 982:Drivers/STM32L4xx_HAL_Driver/Src/stm32l4xx_ll_usb.c ****       i++;
 983:Drivers/STM32L4xx_HAL_Driver/Src/stm32l4xx_ll_usb.c ****       pDest++;
 984:Drivers/STM32L4xx_HAL_Driver/Src/stm32l4xx_ll_usb.c ****       remaining_bytes--;
 985:Drivers/STM32L4xx_HAL_Driver/Src/stm32l4xx_ll_usb.c ****     } while (remaining_bytes != 0U);
 986:Drivers/STM32L4xx_HAL_Driver/Src/stm32l4xx_ll_usb.c ****   }
 987:Drivers/STM32L4xx_HAL_Driver/Src/stm32l4xx_ll_usb.c **** 
 988:Drivers/STM32L4xx_HAL_Driver/Src/stm32l4xx_ll_usb.c ****   return ((void *)pDest);
 989:Drivers/STM32L4xx_HAL_Driver/Src/stm32l4xx_ll_usb.c **** }
 990:Drivers/STM32L4xx_HAL_Driver/Src/stm32l4xx_ll_usb.c **** 
 991:Drivers/STM32L4xx_HAL_Driver/Src/stm32l4xx_ll_usb.c **** /**
 992:Drivers/STM32L4xx_HAL_Driver/Src/stm32l4xx_ll_usb.c ****   * @brief  USB_EPSetStall : set a stall condition over an EP
 993:Drivers/STM32L4xx_HAL_Driver/Src/stm32l4xx_ll_usb.c ****   * @param  USBx  Selected device
 994:Drivers/STM32L4xx_HAL_Driver/Src/stm32l4xx_ll_usb.c ****   * @param  ep pointer to endpoint structure
 995:Drivers/STM32L4xx_HAL_Driver/Src/stm32l4xx_ll_usb.c ****   * @retval HAL status
 996:Drivers/STM32L4xx_HAL_Driver/Src/stm32l4xx_ll_usb.c ****   */
 997:Drivers/STM32L4xx_HAL_Driver/Src/stm32l4xx_ll_usb.c **** HAL_StatusTypeDef USB_EPSetStall(USB_OTG_GlobalTypeDef *USBx, USB_OTG_EPTypeDef *ep)
 998:Drivers/STM32L4xx_HAL_Driver/Src/stm32l4xx_ll_usb.c **** {
 999:Drivers/STM32L4xx_HAL_Driver/Src/stm32l4xx_ll_usb.c ****   uint32_t USBx_BASE = (uint32_t)USBx;
ARM GAS  /tmp/ccdWnOQF.s 			page 19


1000:Drivers/STM32L4xx_HAL_Driver/Src/stm32l4xx_ll_usb.c ****   uint32_t epnum = (uint32_t)ep->num;
1001:Drivers/STM32L4xx_HAL_Driver/Src/stm32l4xx_ll_usb.c **** 
1002:Drivers/STM32L4xx_HAL_Driver/Src/stm32l4xx_ll_usb.c ****   if (ep->is_in == 1U)
1003:Drivers/STM32L4xx_HAL_Driver/Src/stm32l4xx_ll_usb.c ****   {
1004:Drivers/STM32L4xx_HAL_Driver/Src/stm32l4xx_ll_usb.c ****     if (((USBx_INEP(epnum)->DIEPCTL & USB_OTG_DIEPCTL_EPENA) == 0U) && (epnum != 0U))
1005:Drivers/STM32L4xx_HAL_Driver/Src/stm32l4xx_ll_usb.c ****     {
1006:Drivers/STM32L4xx_HAL_Driver/Src/stm32l4xx_ll_usb.c ****       USBx_INEP(epnum)->DIEPCTL &= ~(USB_OTG_DIEPCTL_EPDIS);
1007:Drivers/STM32L4xx_HAL_Driver/Src/stm32l4xx_ll_usb.c ****     }
1008:Drivers/STM32L4xx_HAL_Driver/Src/stm32l4xx_ll_usb.c ****     USBx_INEP(epnum)->DIEPCTL |= USB_OTG_DIEPCTL_STALL;
1009:Drivers/STM32L4xx_HAL_Driver/Src/stm32l4xx_ll_usb.c ****   }
1010:Drivers/STM32L4xx_HAL_Driver/Src/stm32l4xx_ll_usb.c ****   else
1011:Drivers/STM32L4xx_HAL_Driver/Src/stm32l4xx_ll_usb.c ****   {
1012:Drivers/STM32L4xx_HAL_Driver/Src/stm32l4xx_ll_usb.c ****     if (((USBx_OUTEP(epnum)->DOEPCTL & USB_OTG_DOEPCTL_EPENA) == 0U) && (epnum != 0U))
1013:Drivers/STM32L4xx_HAL_Driver/Src/stm32l4xx_ll_usb.c ****     {
1014:Drivers/STM32L4xx_HAL_Driver/Src/stm32l4xx_ll_usb.c ****       USBx_OUTEP(epnum)->DOEPCTL &= ~(USB_OTG_DOEPCTL_EPDIS);
1015:Drivers/STM32L4xx_HAL_Driver/Src/stm32l4xx_ll_usb.c ****     }
1016:Drivers/STM32L4xx_HAL_Driver/Src/stm32l4xx_ll_usb.c ****     USBx_OUTEP(epnum)->DOEPCTL |= USB_OTG_DOEPCTL_STALL;
1017:Drivers/STM32L4xx_HAL_Driver/Src/stm32l4xx_ll_usb.c ****   }
1018:Drivers/STM32L4xx_HAL_Driver/Src/stm32l4xx_ll_usb.c **** 
1019:Drivers/STM32L4xx_HAL_Driver/Src/stm32l4xx_ll_usb.c ****   return HAL_OK;
1020:Drivers/STM32L4xx_HAL_Driver/Src/stm32l4xx_ll_usb.c **** }
1021:Drivers/STM32L4xx_HAL_Driver/Src/stm32l4xx_ll_usb.c **** 
1022:Drivers/STM32L4xx_HAL_Driver/Src/stm32l4xx_ll_usb.c **** /**
1023:Drivers/STM32L4xx_HAL_Driver/Src/stm32l4xx_ll_usb.c ****   * @brief  USB_EPClearStall : Clear a stall condition over an EP
1024:Drivers/STM32L4xx_HAL_Driver/Src/stm32l4xx_ll_usb.c ****   * @param  USBx  Selected device
1025:Drivers/STM32L4xx_HAL_Driver/Src/stm32l4xx_ll_usb.c ****   * @param  ep pointer to endpoint structure
1026:Drivers/STM32L4xx_HAL_Driver/Src/stm32l4xx_ll_usb.c ****   * @retval HAL status
1027:Drivers/STM32L4xx_HAL_Driver/Src/stm32l4xx_ll_usb.c ****   */
1028:Drivers/STM32L4xx_HAL_Driver/Src/stm32l4xx_ll_usb.c **** HAL_StatusTypeDef USB_EPClearStall(USB_OTG_GlobalTypeDef *USBx, USB_OTG_EPTypeDef *ep)
1029:Drivers/STM32L4xx_HAL_Driver/Src/stm32l4xx_ll_usb.c **** {
1030:Drivers/STM32L4xx_HAL_Driver/Src/stm32l4xx_ll_usb.c ****   uint32_t USBx_BASE = (uint32_t)USBx;
1031:Drivers/STM32L4xx_HAL_Driver/Src/stm32l4xx_ll_usb.c ****   uint32_t epnum = (uint32_t)ep->num;
1032:Drivers/STM32L4xx_HAL_Driver/Src/stm32l4xx_ll_usb.c **** 
1033:Drivers/STM32L4xx_HAL_Driver/Src/stm32l4xx_ll_usb.c ****   if (ep->is_in == 1U)
1034:Drivers/STM32L4xx_HAL_Driver/Src/stm32l4xx_ll_usb.c ****   {
1035:Drivers/STM32L4xx_HAL_Driver/Src/stm32l4xx_ll_usb.c ****     USBx_INEP(epnum)->DIEPCTL &= ~USB_OTG_DIEPCTL_STALL;
1036:Drivers/STM32L4xx_HAL_Driver/Src/stm32l4xx_ll_usb.c ****     if ((ep->type == EP_TYPE_INTR) || (ep->type == EP_TYPE_BULK))
1037:Drivers/STM32L4xx_HAL_Driver/Src/stm32l4xx_ll_usb.c ****     {
1038:Drivers/STM32L4xx_HAL_Driver/Src/stm32l4xx_ll_usb.c ****       USBx_INEP(epnum)->DIEPCTL |= USB_OTG_DIEPCTL_SD0PID_SEVNFRM; /* DATA0 */
1039:Drivers/STM32L4xx_HAL_Driver/Src/stm32l4xx_ll_usb.c ****     }
1040:Drivers/STM32L4xx_HAL_Driver/Src/stm32l4xx_ll_usb.c ****   }
1041:Drivers/STM32L4xx_HAL_Driver/Src/stm32l4xx_ll_usb.c ****   else
1042:Drivers/STM32L4xx_HAL_Driver/Src/stm32l4xx_ll_usb.c ****   {
1043:Drivers/STM32L4xx_HAL_Driver/Src/stm32l4xx_ll_usb.c ****     USBx_OUTEP(epnum)->DOEPCTL &= ~USB_OTG_DOEPCTL_STALL;
1044:Drivers/STM32L4xx_HAL_Driver/Src/stm32l4xx_ll_usb.c ****     if ((ep->type == EP_TYPE_INTR) || (ep->type == EP_TYPE_BULK))
1045:Drivers/STM32L4xx_HAL_Driver/Src/stm32l4xx_ll_usb.c ****     {
1046:Drivers/STM32L4xx_HAL_Driver/Src/stm32l4xx_ll_usb.c ****       USBx_OUTEP(epnum)->DOEPCTL |= USB_OTG_DOEPCTL_SD0PID_SEVNFRM; /* DATA0 */
1047:Drivers/STM32L4xx_HAL_Driver/Src/stm32l4xx_ll_usb.c ****     }
1048:Drivers/STM32L4xx_HAL_Driver/Src/stm32l4xx_ll_usb.c ****   }
1049:Drivers/STM32L4xx_HAL_Driver/Src/stm32l4xx_ll_usb.c ****   return HAL_OK;
1050:Drivers/STM32L4xx_HAL_Driver/Src/stm32l4xx_ll_usb.c **** }
1051:Drivers/STM32L4xx_HAL_Driver/Src/stm32l4xx_ll_usb.c **** 
1052:Drivers/STM32L4xx_HAL_Driver/Src/stm32l4xx_ll_usb.c **** /**
1053:Drivers/STM32L4xx_HAL_Driver/Src/stm32l4xx_ll_usb.c ****   * @brief  USB_StopDevice : Stop the usb device mode
1054:Drivers/STM32L4xx_HAL_Driver/Src/stm32l4xx_ll_usb.c ****   * @param  USBx  Selected device
1055:Drivers/STM32L4xx_HAL_Driver/Src/stm32l4xx_ll_usb.c ****   * @retval HAL status
1056:Drivers/STM32L4xx_HAL_Driver/Src/stm32l4xx_ll_usb.c ****   */
ARM GAS  /tmp/ccdWnOQF.s 			page 20


1057:Drivers/STM32L4xx_HAL_Driver/Src/stm32l4xx_ll_usb.c **** HAL_StatusTypeDef USB_StopDevice(USB_OTG_GlobalTypeDef *USBx)
1058:Drivers/STM32L4xx_HAL_Driver/Src/stm32l4xx_ll_usb.c **** {
1059:Drivers/STM32L4xx_HAL_Driver/Src/stm32l4xx_ll_usb.c ****   HAL_StatusTypeDef ret;
1060:Drivers/STM32L4xx_HAL_Driver/Src/stm32l4xx_ll_usb.c ****   uint32_t USBx_BASE = (uint32_t)USBx;
1061:Drivers/STM32L4xx_HAL_Driver/Src/stm32l4xx_ll_usb.c ****   uint32_t i;
1062:Drivers/STM32L4xx_HAL_Driver/Src/stm32l4xx_ll_usb.c **** 
1063:Drivers/STM32L4xx_HAL_Driver/Src/stm32l4xx_ll_usb.c ****   /* Clear Pending interrupt */
1064:Drivers/STM32L4xx_HAL_Driver/Src/stm32l4xx_ll_usb.c ****   for (i = 0U; i < 15U; i++)
1065:Drivers/STM32L4xx_HAL_Driver/Src/stm32l4xx_ll_usb.c ****   {
1066:Drivers/STM32L4xx_HAL_Driver/Src/stm32l4xx_ll_usb.c ****     USBx_INEP(i)->DIEPINT = 0xFB7FU;
1067:Drivers/STM32L4xx_HAL_Driver/Src/stm32l4xx_ll_usb.c ****     USBx_OUTEP(i)->DOEPINT = 0xFB7FU;
1068:Drivers/STM32L4xx_HAL_Driver/Src/stm32l4xx_ll_usb.c ****   }
1069:Drivers/STM32L4xx_HAL_Driver/Src/stm32l4xx_ll_usb.c **** 
1070:Drivers/STM32L4xx_HAL_Driver/Src/stm32l4xx_ll_usb.c ****   /* Clear interrupt masks */
1071:Drivers/STM32L4xx_HAL_Driver/Src/stm32l4xx_ll_usb.c ****   USBx_DEVICE->DIEPMSK  = 0U;
1072:Drivers/STM32L4xx_HAL_Driver/Src/stm32l4xx_ll_usb.c ****   USBx_DEVICE->DOEPMSK  = 0U;
1073:Drivers/STM32L4xx_HAL_Driver/Src/stm32l4xx_ll_usb.c ****   USBx_DEVICE->DAINTMSK = 0U;
1074:Drivers/STM32L4xx_HAL_Driver/Src/stm32l4xx_ll_usb.c **** 
1075:Drivers/STM32L4xx_HAL_Driver/Src/stm32l4xx_ll_usb.c ****   /* Flush the FIFO */
1076:Drivers/STM32L4xx_HAL_Driver/Src/stm32l4xx_ll_usb.c ****   ret = USB_FlushRxFifo(USBx);
1077:Drivers/STM32L4xx_HAL_Driver/Src/stm32l4xx_ll_usb.c ****   if (ret != HAL_OK)
1078:Drivers/STM32L4xx_HAL_Driver/Src/stm32l4xx_ll_usb.c ****   {
1079:Drivers/STM32L4xx_HAL_Driver/Src/stm32l4xx_ll_usb.c ****     return ret;
1080:Drivers/STM32L4xx_HAL_Driver/Src/stm32l4xx_ll_usb.c ****   }
1081:Drivers/STM32L4xx_HAL_Driver/Src/stm32l4xx_ll_usb.c **** 
1082:Drivers/STM32L4xx_HAL_Driver/Src/stm32l4xx_ll_usb.c ****   ret = USB_FlushTxFifo(USBx,  0x10U);
1083:Drivers/STM32L4xx_HAL_Driver/Src/stm32l4xx_ll_usb.c ****   if (ret != HAL_OK)
1084:Drivers/STM32L4xx_HAL_Driver/Src/stm32l4xx_ll_usb.c ****   {
1085:Drivers/STM32L4xx_HAL_Driver/Src/stm32l4xx_ll_usb.c ****     return ret;
1086:Drivers/STM32L4xx_HAL_Driver/Src/stm32l4xx_ll_usb.c ****   }
1087:Drivers/STM32L4xx_HAL_Driver/Src/stm32l4xx_ll_usb.c **** 
1088:Drivers/STM32L4xx_HAL_Driver/Src/stm32l4xx_ll_usb.c ****   return ret;
1089:Drivers/STM32L4xx_HAL_Driver/Src/stm32l4xx_ll_usb.c **** }
1090:Drivers/STM32L4xx_HAL_Driver/Src/stm32l4xx_ll_usb.c **** 
1091:Drivers/STM32L4xx_HAL_Driver/Src/stm32l4xx_ll_usb.c **** /**
1092:Drivers/STM32L4xx_HAL_Driver/Src/stm32l4xx_ll_usb.c ****   * @brief  USB_SetDevAddress : Stop the usb device mode
1093:Drivers/STM32L4xx_HAL_Driver/Src/stm32l4xx_ll_usb.c ****   * @param  USBx  Selected device
1094:Drivers/STM32L4xx_HAL_Driver/Src/stm32l4xx_ll_usb.c ****   * @param  address  new device address to be assigned
1095:Drivers/STM32L4xx_HAL_Driver/Src/stm32l4xx_ll_usb.c ****   *          This parameter can be a value from 0 to 255
1096:Drivers/STM32L4xx_HAL_Driver/Src/stm32l4xx_ll_usb.c ****   * @retval HAL status
1097:Drivers/STM32L4xx_HAL_Driver/Src/stm32l4xx_ll_usb.c ****   */
1098:Drivers/STM32L4xx_HAL_Driver/Src/stm32l4xx_ll_usb.c **** HAL_StatusTypeDef  USB_SetDevAddress(USB_OTG_GlobalTypeDef *USBx, uint8_t address)
1099:Drivers/STM32L4xx_HAL_Driver/Src/stm32l4xx_ll_usb.c **** {
1100:Drivers/STM32L4xx_HAL_Driver/Src/stm32l4xx_ll_usb.c ****   uint32_t USBx_BASE = (uint32_t)USBx;
1101:Drivers/STM32L4xx_HAL_Driver/Src/stm32l4xx_ll_usb.c **** 
1102:Drivers/STM32L4xx_HAL_Driver/Src/stm32l4xx_ll_usb.c ****   USBx_DEVICE->DCFG &= ~(USB_OTG_DCFG_DAD);
1103:Drivers/STM32L4xx_HAL_Driver/Src/stm32l4xx_ll_usb.c ****   USBx_DEVICE->DCFG |= ((uint32_t)address << 4) & USB_OTG_DCFG_DAD;
1104:Drivers/STM32L4xx_HAL_Driver/Src/stm32l4xx_ll_usb.c **** 
1105:Drivers/STM32L4xx_HAL_Driver/Src/stm32l4xx_ll_usb.c ****   return HAL_OK;
1106:Drivers/STM32L4xx_HAL_Driver/Src/stm32l4xx_ll_usb.c **** }
1107:Drivers/STM32L4xx_HAL_Driver/Src/stm32l4xx_ll_usb.c **** 
1108:Drivers/STM32L4xx_HAL_Driver/Src/stm32l4xx_ll_usb.c **** /**
1109:Drivers/STM32L4xx_HAL_Driver/Src/stm32l4xx_ll_usb.c ****   * @brief  USB_DevConnect : Connect the USB device by enabling Rpu
1110:Drivers/STM32L4xx_HAL_Driver/Src/stm32l4xx_ll_usb.c ****   * @param  USBx  Selected device
1111:Drivers/STM32L4xx_HAL_Driver/Src/stm32l4xx_ll_usb.c ****   * @retval HAL status
1112:Drivers/STM32L4xx_HAL_Driver/Src/stm32l4xx_ll_usb.c ****   */
1113:Drivers/STM32L4xx_HAL_Driver/Src/stm32l4xx_ll_usb.c **** HAL_StatusTypeDef  USB_DevConnect(USB_OTG_GlobalTypeDef *USBx)
ARM GAS  /tmp/ccdWnOQF.s 			page 21


1114:Drivers/STM32L4xx_HAL_Driver/Src/stm32l4xx_ll_usb.c **** {
1115:Drivers/STM32L4xx_HAL_Driver/Src/stm32l4xx_ll_usb.c ****   uint32_t USBx_BASE = (uint32_t)USBx;
1116:Drivers/STM32L4xx_HAL_Driver/Src/stm32l4xx_ll_usb.c **** 
1117:Drivers/STM32L4xx_HAL_Driver/Src/stm32l4xx_ll_usb.c ****   /* In case phy is stopped, ensure to ungate and restore the phy CLK */
1118:Drivers/STM32L4xx_HAL_Driver/Src/stm32l4xx_ll_usb.c ****   USBx_PCGCCTL &= ~(USB_OTG_PCGCCTL_STOPCLK | USB_OTG_PCGCCTL_GATECLK);
1119:Drivers/STM32L4xx_HAL_Driver/Src/stm32l4xx_ll_usb.c **** 
1120:Drivers/STM32L4xx_HAL_Driver/Src/stm32l4xx_ll_usb.c ****   USBx_DEVICE->DCTL &= ~USB_OTG_DCTL_SDIS;
1121:Drivers/STM32L4xx_HAL_Driver/Src/stm32l4xx_ll_usb.c **** 
1122:Drivers/STM32L4xx_HAL_Driver/Src/stm32l4xx_ll_usb.c ****   return HAL_OK;
1123:Drivers/STM32L4xx_HAL_Driver/Src/stm32l4xx_ll_usb.c **** }
1124:Drivers/STM32L4xx_HAL_Driver/Src/stm32l4xx_ll_usb.c **** 
1125:Drivers/STM32L4xx_HAL_Driver/Src/stm32l4xx_ll_usb.c **** /**
1126:Drivers/STM32L4xx_HAL_Driver/Src/stm32l4xx_ll_usb.c ****   * @brief  USB_DevDisconnect : Disconnect the USB device by disabling Rpu
1127:Drivers/STM32L4xx_HAL_Driver/Src/stm32l4xx_ll_usb.c ****   * @param  USBx  Selected device
1128:Drivers/STM32L4xx_HAL_Driver/Src/stm32l4xx_ll_usb.c ****   * @retval HAL status
1129:Drivers/STM32L4xx_HAL_Driver/Src/stm32l4xx_ll_usb.c ****   */
1130:Drivers/STM32L4xx_HAL_Driver/Src/stm32l4xx_ll_usb.c **** HAL_StatusTypeDef  USB_DevDisconnect(USB_OTG_GlobalTypeDef *USBx)
1131:Drivers/STM32L4xx_HAL_Driver/Src/stm32l4xx_ll_usb.c **** {
1132:Drivers/STM32L4xx_HAL_Driver/Src/stm32l4xx_ll_usb.c ****   uint32_t USBx_BASE = (uint32_t)USBx;
1133:Drivers/STM32L4xx_HAL_Driver/Src/stm32l4xx_ll_usb.c **** 
1134:Drivers/STM32L4xx_HAL_Driver/Src/stm32l4xx_ll_usb.c ****   /* In case phy is stopped, ensure to ungate and restore the phy CLK */
1135:Drivers/STM32L4xx_HAL_Driver/Src/stm32l4xx_ll_usb.c ****   USBx_PCGCCTL &= ~(USB_OTG_PCGCCTL_STOPCLK | USB_OTG_PCGCCTL_GATECLK);
1136:Drivers/STM32L4xx_HAL_Driver/Src/stm32l4xx_ll_usb.c **** 
1137:Drivers/STM32L4xx_HAL_Driver/Src/stm32l4xx_ll_usb.c ****   USBx_DEVICE->DCTL |= USB_OTG_DCTL_SDIS;
1138:Drivers/STM32L4xx_HAL_Driver/Src/stm32l4xx_ll_usb.c **** 
1139:Drivers/STM32L4xx_HAL_Driver/Src/stm32l4xx_ll_usb.c ****   return HAL_OK;
1140:Drivers/STM32L4xx_HAL_Driver/Src/stm32l4xx_ll_usb.c **** }
1141:Drivers/STM32L4xx_HAL_Driver/Src/stm32l4xx_ll_usb.c **** 
1142:Drivers/STM32L4xx_HAL_Driver/Src/stm32l4xx_ll_usb.c **** /**
1143:Drivers/STM32L4xx_HAL_Driver/Src/stm32l4xx_ll_usb.c ****   * @brief  USB_ReadInterrupts: return the global USB interrupt status
1144:Drivers/STM32L4xx_HAL_Driver/Src/stm32l4xx_ll_usb.c ****   * @param  USBx  Selected device
1145:Drivers/STM32L4xx_HAL_Driver/Src/stm32l4xx_ll_usb.c ****   * @retval HAL status
1146:Drivers/STM32L4xx_HAL_Driver/Src/stm32l4xx_ll_usb.c ****   */
1147:Drivers/STM32L4xx_HAL_Driver/Src/stm32l4xx_ll_usb.c **** uint32_t  USB_ReadInterrupts(USB_OTG_GlobalTypeDef *USBx)
1148:Drivers/STM32L4xx_HAL_Driver/Src/stm32l4xx_ll_usb.c **** {
1149:Drivers/STM32L4xx_HAL_Driver/Src/stm32l4xx_ll_usb.c ****   uint32_t tmpreg;
1150:Drivers/STM32L4xx_HAL_Driver/Src/stm32l4xx_ll_usb.c **** 
1151:Drivers/STM32L4xx_HAL_Driver/Src/stm32l4xx_ll_usb.c ****   tmpreg = USBx->GINTSTS;
1152:Drivers/STM32L4xx_HAL_Driver/Src/stm32l4xx_ll_usb.c ****   tmpreg &= USBx->GINTMSK;
1153:Drivers/STM32L4xx_HAL_Driver/Src/stm32l4xx_ll_usb.c **** 
1154:Drivers/STM32L4xx_HAL_Driver/Src/stm32l4xx_ll_usb.c ****   return tmpreg;
1155:Drivers/STM32L4xx_HAL_Driver/Src/stm32l4xx_ll_usb.c **** }
1156:Drivers/STM32L4xx_HAL_Driver/Src/stm32l4xx_ll_usb.c **** 
1157:Drivers/STM32L4xx_HAL_Driver/Src/stm32l4xx_ll_usb.c **** /**
1158:Drivers/STM32L4xx_HAL_Driver/Src/stm32l4xx_ll_usb.c ****   * @brief  USB_ReadDevAllOutEpInterrupt: return the USB device OUT endpoints interrupt status
1159:Drivers/STM32L4xx_HAL_Driver/Src/stm32l4xx_ll_usb.c ****   * @param  USBx  Selected device
1160:Drivers/STM32L4xx_HAL_Driver/Src/stm32l4xx_ll_usb.c ****   * @retval HAL status
1161:Drivers/STM32L4xx_HAL_Driver/Src/stm32l4xx_ll_usb.c ****   */
1162:Drivers/STM32L4xx_HAL_Driver/Src/stm32l4xx_ll_usb.c **** uint32_t USB_ReadDevAllOutEpInterrupt(USB_OTG_GlobalTypeDef *USBx)
1163:Drivers/STM32L4xx_HAL_Driver/Src/stm32l4xx_ll_usb.c **** {
1164:Drivers/STM32L4xx_HAL_Driver/Src/stm32l4xx_ll_usb.c ****   uint32_t USBx_BASE = (uint32_t)USBx;
1165:Drivers/STM32L4xx_HAL_Driver/Src/stm32l4xx_ll_usb.c ****   uint32_t tmpreg;
1166:Drivers/STM32L4xx_HAL_Driver/Src/stm32l4xx_ll_usb.c **** 
1167:Drivers/STM32L4xx_HAL_Driver/Src/stm32l4xx_ll_usb.c ****   tmpreg  = USBx_DEVICE->DAINT;
1168:Drivers/STM32L4xx_HAL_Driver/Src/stm32l4xx_ll_usb.c ****   tmpreg &= USBx_DEVICE->DAINTMSK;
1169:Drivers/STM32L4xx_HAL_Driver/Src/stm32l4xx_ll_usb.c **** 
1170:Drivers/STM32L4xx_HAL_Driver/Src/stm32l4xx_ll_usb.c ****   return ((tmpreg & 0xffff0000U) >> 16);
ARM GAS  /tmp/ccdWnOQF.s 			page 22


1171:Drivers/STM32L4xx_HAL_Driver/Src/stm32l4xx_ll_usb.c **** }
1172:Drivers/STM32L4xx_HAL_Driver/Src/stm32l4xx_ll_usb.c **** 
1173:Drivers/STM32L4xx_HAL_Driver/Src/stm32l4xx_ll_usb.c **** /**
1174:Drivers/STM32L4xx_HAL_Driver/Src/stm32l4xx_ll_usb.c ****   * @brief  USB_ReadDevAllInEpInterrupt: return the USB device IN endpoints interrupt status
1175:Drivers/STM32L4xx_HAL_Driver/Src/stm32l4xx_ll_usb.c ****   * @param  USBx  Selected device
1176:Drivers/STM32L4xx_HAL_Driver/Src/stm32l4xx_ll_usb.c ****   * @retval HAL status
1177:Drivers/STM32L4xx_HAL_Driver/Src/stm32l4xx_ll_usb.c ****   */
1178:Drivers/STM32L4xx_HAL_Driver/Src/stm32l4xx_ll_usb.c **** uint32_t USB_ReadDevAllInEpInterrupt(USB_OTG_GlobalTypeDef *USBx)
1179:Drivers/STM32L4xx_HAL_Driver/Src/stm32l4xx_ll_usb.c **** {
1180:Drivers/STM32L4xx_HAL_Driver/Src/stm32l4xx_ll_usb.c ****   uint32_t USBx_BASE = (uint32_t)USBx;
1181:Drivers/STM32L4xx_HAL_Driver/Src/stm32l4xx_ll_usb.c ****   uint32_t tmpreg;
1182:Drivers/STM32L4xx_HAL_Driver/Src/stm32l4xx_ll_usb.c **** 
1183:Drivers/STM32L4xx_HAL_Driver/Src/stm32l4xx_ll_usb.c ****   tmpreg  = USBx_DEVICE->DAINT;
1184:Drivers/STM32L4xx_HAL_Driver/Src/stm32l4xx_ll_usb.c ****   tmpreg &= USBx_DEVICE->DAINTMSK;
1185:Drivers/STM32L4xx_HAL_Driver/Src/stm32l4xx_ll_usb.c **** 
1186:Drivers/STM32L4xx_HAL_Driver/Src/stm32l4xx_ll_usb.c ****   return ((tmpreg & 0xFFFFU));
1187:Drivers/STM32L4xx_HAL_Driver/Src/stm32l4xx_ll_usb.c **** }
1188:Drivers/STM32L4xx_HAL_Driver/Src/stm32l4xx_ll_usb.c **** 
1189:Drivers/STM32L4xx_HAL_Driver/Src/stm32l4xx_ll_usb.c **** /**
1190:Drivers/STM32L4xx_HAL_Driver/Src/stm32l4xx_ll_usb.c ****   * @brief  Returns Device OUT EP Interrupt register
1191:Drivers/STM32L4xx_HAL_Driver/Src/stm32l4xx_ll_usb.c ****   * @param  USBx  Selected device
1192:Drivers/STM32L4xx_HAL_Driver/Src/stm32l4xx_ll_usb.c ****   * @param  epnum  endpoint number
1193:Drivers/STM32L4xx_HAL_Driver/Src/stm32l4xx_ll_usb.c ****   *          This parameter can be a value from 0 to 15
1194:Drivers/STM32L4xx_HAL_Driver/Src/stm32l4xx_ll_usb.c ****   * @retval Device OUT EP Interrupt register
1195:Drivers/STM32L4xx_HAL_Driver/Src/stm32l4xx_ll_usb.c ****   */
1196:Drivers/STM32L4xx_HAL_Driver/Src/stm32l4xx_ll_usb.c **** uint32_t USB_ReadDevOutEPInterrupt(USB_OTG_GlobalTypeDef *USBx, uint8_t epnum)
1197:Drivers/STM32L4xx_HAL_Driver/Src/stm32l4xx_ll_usb.c **** {
1198:Drivers/STM32L4xx_HAL_Driver/Src/stm32l4xx_ll_usb.c ****   uint32_t USBx_BASE = (uint32_t)USBx;
1199:Drivers/STM32L4xx_HAL_Driver/Src/stm32l4xx_ll_usb.c ****   uint32_t tmpreg;
1200:Drivers/STM32L4xx_HAL_Driver/Src/stm32l4xx_ll_usb.c **** 
1201:Drivers/STM32L4xx_HAL_Driver/Src/stm32l4xx_ll_usb.c ****   tmpreg  = USBx_OUTEP((uint32_t)epnum)->DOEPINT;
1202:Drivers/STM32L4xx_HAL_Driver/Src/stm32l4xx_ll_usb.c ****   tmpreg &= USBx_DEVICE->DOEPMSK;
1203:Drivers/STM32L4xx_HAL_Driver/Src/stm32l4xx_ll_usb.c **** 
1204:Drivers/STM32L4xx_HAL_Driver/Src/stm32l4xx_ll_usb.c ****   return tmpreg;
1205:Drivers/STM32L4xx_HAL_Driver/Src/stm32l4xx_ll_usb.c **** }
1206:Drivers/STM32L4xx_HAL_Driver/Src/stm32l4xx_ll_usb.c **** 
1207:Drivers/STM32L4xx_HAL_Driver/Src/stm32l4xx_ll_usb.c **** /**
1208:Drivers/STM32L4xx_HAL_Driver/Src/stm32l4xx_ll_usb.c ****   * @brief  Returns Device IN EP Interrupt register
1209:Drivers/STM32L4xx_HAL_Driver/Src/stm32l4xx_ll_usb.c ****   * @param  USBx  Selected device
1210:Drivers/STM32L4xx_HAL_Driver/Src/stm32l4xx_ll_usb.c ****   * @param  epnum  endpoint number
1211:Drivers/STM32L4xx_HAL_Driver/Src/stm32l4xx_ll_usb.c ****   *          This parameter can be a value from 0 to 15
1212:Drivers/STM32L4xx_HAL_Driver/Src/stm32l4xx_ll_usb.c ****   * @retval Device IN EP Interrupt register
1213:Drivers/STM32L4xx_HAL_Driver/Src/stm32l4xx_ll_usb.c ****   */
1214:Drivers/STM32L4xx_HAL_Driver/Src/stm32l4xx_ll_usb.c **** uint32_t USB_ReadDevInEPInterrupt(USB_OTG_GlobalTypeDef *USBx, uint8_t epnum)
1215:Drivers/STM32L4xx_HAL_Driver/Src/stm32l4xx_ll_usb.c **** {
1216:Drivers/STM32L4xx_HAL_Driver/Src/stm32l4xx_ll_usb.c ****   uint32_t USBx_BASE = (uint32_t)USBx;
1217:Drivers/STM32L4xx_HAL_Driver/Src/stm32l4xx_ll_usb.c ****   uint32_t tmpreg;
1218:Drivers/STM32L4xx_HAL_Driver/Src/stm32l4xx_ll_usb.c ****   uint32_t msk;
1219:Drivers/STM32L4xx_HAL_Driver/Src/stm32l4xx_ll_usb.c ****   uint32_t emp;
1220:Drivers/STM32L4xx_HAL_Driver/Src/stm32l4xx_ll_usb.c **** 
1221:Drivers/STM32L4xx_HAL_Driver/Src/stm32l4xx_ll_usb.c ****   msk = USBx_DEVICE->DIEPMSK;
1222:Drivers/STM32L4xx_HAL_Driver/Src/stm32l4xx_ll_usb.c ****   emp = USBx_DEVICE->DIEPEMPMSK;
1223:Drivers/STM32L4xx_HAL_Driver/Src/stm32l4xx_ll_usb.c ****   msk |= ((emp >> (epnum & EP_ADDR_MSK)) & 0x1U) << 7;
1224:Drivers/STM32L4xx_HAL_Driver/Src/stm32l4xx_ll_usb.c ****   tmpreg = USBx_INEP((uint32_t)epnum)->DIEPINT & msk;
1225:Drivers/STM32L4xx_HAL_Driver/Src/stm32l4xx_ll_usb.c **** 
1226:Drivers/STM32L4xx_HAL_Driver/Src/stm32l4xx_ll_usb.c ****   return tmpreg;
1227:Drivers/STM32L4xx_HAL_Driver/Src/stm32l4xx_ll_usb.c **** }
ARM GAS  /tmp/ccdWnOQF.s 			page 23


1228:Drivers/STM32L4xx_HAL_Driver/Src/stm32l4xx_ll_usb.c **** 
1229:Drivers/STM32L4xx_HAL_Driver/Src/stm32l4xx_ll_usb.c **** /**
1230:Drivers/STM32L4xx_HAL_Driver/Src/stm32l4xx_ll_usb.c ****   * @brief  USB_ClearInterrupts: clear a USB interrupt
1231:Drivers/STM32L4xx_HAL_Driver/Src/stm32l4xx_ll_usb.c ****   * @param  USBx  Selected device
1232:Drivers/STM32L4xx_HAL_Driver/Src/stm32l4xx_ll_usb.c ****   * @param  interrupt  flag
1233:Drivers/STM32L4xx_HAL_Driver/Src/stm32l4xx_ll_usb.c ****   * @retval None
1234:Drivers/STM32L4xx_HAL_Driver/Src/stm32l4xx_ll_usb.c ****   */
1235:Drivers/STM32L4xx_HAL_Driver/Src/stm32l4xx_ll_usb.c **** void  USB_ClearInterrupts(USB_OTG_GlobalTypeDef *USBx, uint32_t interrupt)
1236:Drivers/STM32L4xx_HAL_Driver/Src/stm32l4xx_ll_usb.c **** {
1237:Drivers/STM32L4xx_HAL_Driver/Src/stm32l4xx_ll_usb.c ****   USBx->GINTSTS |= interrupt;
1238:Drivers/STM32L4xx_HAL_Driver/Src/stm32l4xx_ll_usb.c **** }
1239:Drivers/STM32L4xx_HAL_Driver/Src/stm32l4xx_ll_usb.c **** 
1240:Drivers/STM32L4xx_HAL_Driver/Src/stm32l4xx_ll_usb.c **** /**
1241:Drivers/STM32L4xx_HAL_Driver/Src/stm32l4xx_ll_usb.c ****   * @brief  Returns USB core mode
1242:Drivers/STM32L4xx_HAL_Driver/Src/stm32l4xx_ll_usb.c ****   * @param  USBx  Selected device
1243:Drivers/STM32L4xx_HAL_Driver/Src/stm32l4xx_ll_usb.c ****   * @retval return core mode : Host or Device
1244:Drivers/STM32L4xx_HAL_Driver/Src/stm32l4xx_ll_usb.c ****   *          This parameter can be one of these values:
1245:Drivers/STM32L4xx_HAL_Driver/Src/stm32l4xx_ll_usb.c ****   *           0 : Host
1246:Drivers/STM32L4xx_HAL_Driver/Src/stm32l4xx_ll_usb.c ****   *           1 : Device
1247:Drivers/STM32L4xx_HAL_Driver/Src/stm32l4xx_ll_usb.c ****   */
1248:Drivers/STM32L4xx_HAL_Driver/Src/stm32l4xx_ll_usb.c **** uint32_t USB_GetMode(USB_OTG_GlobalTypeDef *USBx)
1249:Drivers/STM32L4xx_HAL_Driver/Src/stm32l4xx_ll_usb.c **** {
1250:Drivers/STM32L4xx_HAL_Driver/Src/stm32l4xx_ll_usb.c ****   return ((USBx->GINTSTS) & 0x1U);
1251:Drivers/STM32L4xx_HAL_Driver/Src/stm32l4xx_ll_usb.c **** }
1252:Drivers/STM32L4xx_HAL_Driver/Src/stm32l4xx_ll_usb.c **** 
1253:Drivers/STM32L4xx_HAL_Driver/Src/stm32l4xx_ll_usb.c **** /**
1254:Drivers/STM32L4xx_HAL_Driver/Src/stm32l4xx_ll_usb.c ****   * @brief  Activate EP0 for Setup transactions
1255:Drivers/STM32L4xx_HAL_Driver/Src/stm32l4xx_ll_usb.c ****   * @param  USBx  Selected device
1256:Drivers/STM32L4xx_HAL_Driver/Src/stm32l4xx_ll_usb.c ****   * @retval HAL status
1257:Drivers/STM32L4xx_HAL_Driver/Src/stm32l4xx_ll_usb.c ****   */
1258:Drivers/STM32L4xx_HAL_Driver/Src/stm32l4xx_ll_usb.c **** HAL_StatusTypeDef  USB_ActivateSetup(USB_OTG_GlobalTypeDef *USBx)
1259:Drivers/STM32L4xx_HAL_Driver/Src/stm32l4xx_ll_usb.c **** {
1260:Drivers/STM32L4xx_HAL_Driver/Src/stm32l4xx_ll_usb.c ****   uint32_t USBx_BASE = (uint32_t)USBx;
1261:Drivers/STM32L4xx_HAL_Driver/Src/stm32l4xx_ll_usb.c **** 
1262:Drivers/STM32L4xx_HAL_Driver/Src/stm32l4xx_ll_usb.c ****   /* Set the MPS of the IN EP0 to 64 bytes */
1263:Drivers/STM32L4xx_HAL_Driver/Src/stm32l4xx_ll_usb.c ****   USBx_INEP(0U)->DIEPCTL &= ~USB_OTG_DIEPCTL_MPSIZ;
1264:Drivers/STM32L4xx_HAL_Driver/Src/stm32l4xx_ll_usb.c **** 
1265:Drivers/STM32L4xx_HAL_Driver/Src/stm32l4xx_ll_usb.c ****   USBx_DEVICE->DCTL |= USB_OTG_DCTL_CGINAK;
1266:Drivers/STM32L4xx_HAL_Driver/Src/stm32l4xx_ll_usb.c **** 
1267:Drivers/STM32L4xx_HAL_Driver/Src/stm32l4xx_ll_usb.c ****   return HAL_OK;
1268:Drivers/STM32L4xx_HAL_Driver/Src/stm32l4xx_ll_usb.c **** }
1269:Drivers/STM32L4xx_HAL_Driver/Src/stm32l4xx_ll_usb.c **** 
1270:Drivers/STM32L4xx_HAL_Driver/Src/stm32l4xx_ll_usb.c **** /**
1271:Drivers/STM32L4xx_HAL_Driver/Src/stm32l4xx_ll_usb.c ****   * @brief  Prepare the EP0 to start the first control setup
1272:Drivers/STM32L4xx_HAL_Driver/Src/stm32l4xx_ll_usb.c ****   * @param  USBx  Selected device
1273:Drivers/STM32L4xx_HAL_Driver/Src/stm32l4xx_ll_usb.c ****   * @param  psetup  pointer to setup packet
1274:Drivers/STM32L4xx_HAL_Driver/Src/stm32l4xx_ll_usb.c ****   * @retval HAL status
1275:Drivers/STM32L4xx_HAL_Driver/Src/stm32l4xx_ll_usb.c ****   */
1276:Drivers/STM32L4xx_HAL_Driver/Src/stm32l4xx_ll_usb.c **** HAL_StatusTypeDef USB_EP0_OutStart(USB_OTG_GlobalTypeDef *USBx, uint8_t *psetup)
1277:Drivers/STM32L4xx_HAL_Driver/Src/stm32l4xx_ll_usb.c **** {
1278:Drivers/STM32L4xx_HAL_Driver/Src/stm32l4xx_ll_usb.c ****   uint32_t USBx_BASE = (uint32_t)USBx;
1279:Drivers/STM32L4xx_HAL_Driver/Src/stm32l4xx_ll_usb.c ****   uint32_t gSNPSiD = *(__IO uint32_t *)(&USBx->CID + 0x1U);
1280:Drivers/STM32L4xx_HAL_Driver/Src/stm32l4xx_ll_usb.c ****   UNUSED(psetup);
1281:Drivers/STM32L4xx_HAL_Driver/Src/stm32l4xx_ll_usb.c **** 
1282:Drivers/STM32L4xx_HAL_Driver/Src/stm32l4xx_ll_usb.c ****   if (gSNPSiD > USB_OTG_CORE_ID_300A)
1283:Drivers/STM32L4xx_HAL_Driver/Src/stm32l4xx_ll_usb.c ****   {
1284:Drivers/STM32L4xx_HAL_Driver/Src/stm32l4xx_ll_usb.c ****     if ((USBx_OUTEP(0U)->DOEPCTL & USB_OTG_DOEPCTL_EPENA) == USB_OTG_DOEPCTL_EPENA)
ARM GAS  /tmp/ccdWnOQF.s 			page 24


1285:Drivers/STM32L4xx_HAL_Driver/Src/stm32l4xx_ll_usb.c ****     {
1286:Drivers/STM32L4xx_HAL_Driver/Src/stm32l4xx_ll_usb.c ****       return HAL_OK;
1287:Drivers/STM32L4xx_HAL_Driver/Src/stm32l4xx_ll_usb.c ****     }
1288:Drivers/STM32L4xx_HAL_Driver/Src/stm32l4xx_ll_usb.c ****   }
1289:Drivers/STM32L4xx_HAL_Driver/Src/stm32l4xx_ll_usb.c **** 
1290:Drivers/STM32L4xx_HAL_Driver/Src/stm32l4xx_ll_usb.c ****   USBx_OUTEP(0U)->DOEPTSIZ = 0U;
1291:Drivers/STM32L4xx_HAL_Driver/Src/stm32l4xx_ll_usb.c ****   USBx_OUTEP(0U)->DOEPTSIZ |= (USB_OTG_DOEPTSIZ_PKTCNT & (1U << 19));
1292:Drivers/STM32L4xx_HAL_Driver/Src/stm32l4xx_ll_usb.c ****   USBx_OUTEP(0U)->DOEPTSIZ |= (3U * 8U);
1293:Drivers/STM32L4xx_HAL_Driver/Src/stm32l4xx_ll_usb.c ****   USBx_OUTEP(0U)->DOEPTSIZ |=  USB_OTG_DOEPTSIZ_STUPCNT;
1294:Drivers/STM32L4xx_HAL_Driver/Src/stm32l4xx_ll_usb.c **** 
1295:Drivers/STM32L4xx_HAL_Driver/Src/stm32l4xx_ll_usb.c ****   return HAL_OK;
1296:Drivers/STM32L4xx_HAL_Driver/Src/stm32l4xx_ll_usb.c **** }
1297:Drivers/STM32L4xx_HAL_Driver/Src/stm32l4xx_ll_usb.c **** 
1298:Drivers/STM32L4xx_HAL_Driver/Src/stm32l4xx_ll_usb.c **** /**
1299:Drivers/STM32L4xx_HAL_Driver/Src/stm32l4xx_ll_usb.c ****   * @brief  Reset the USB Core (needed after USB clock settings change)
1300:Drivers/STM32L4xx_HAL_Driver/Src/stm32l4xx_ll_usb.c ****   * @param  USBx  Selected device
1301:Drivers/STM32L4xx_HAL_Driver/Src/stm32l4xx_ll_usb.c ****   * @retval HAL status
1302:Drivers/STM32L4xx_HAL_Driver/Src/stm32l4xx_ll_usb.c ****   */
1303:Drivers/STM32L4xx_HAL_Driver/Src/stm32l4xx_ll_usb.c **** static HAL_StatusTypeDef USB_CoreReset(USB_OTG_GlobalTypeDef *USBx)
1304:Drivers/STM32L4xx_HAL_Driver/Src/stm32l4xx_ll_usb.c **** {
  29              		.loc 1 1304 1 view -0
  30              		.cfi_startproc
  31              		@ args = 0, pretend = 0, frame = 8
  32              		@ frame_needed = 0, uses_anonymous_args = 0
  33              		@ link register save eliminated.
  34              		.loc 1 1304 1 is_stmt 0 view .LVU1
  35 0000 82B0     		sub	sp, sp, #8
  36              		.cfi_def_cfa_offset 8
1305:Drivers/STM32L4xx_HAL_Driver/Src/stm32l4xx_ll_usb.c ****   __IO uint32_t count = 0U;
  37              		.loc 1 1305 3 is_stmt 1 view .LVU2
  38              		.loc 1 1305 17 is_stmt 0 view .LVU3
  39 0002 0023     		movs	r3, #0
  40 0004 0193     		str	r3, [sp, #4]
  41              	.L3:
1306:Drivers/STM32L4xx_HAL_Driver/Src/stm32l4xx_ll_usb.c **** 
1307:Drivers/STM32L4xx_HAL_Driver/Src/stm32l4xx_ll_usb.c ****   /* Wait for AHB master IDLE state. */
1308:Drivers/STM32L4xx_HAL_Driver/Src/stm32l4xx_ll_usb.c ****   do
  42              		.loc 1 1308 3 is_stmt 1 view .LVU4
1309:Drivers/STM32L4xx_HAL_Driver/Src/stm32l4xx_ll_usb.c ****   {
1310:Drivers/STM32L4xx_HAL_Driver/Src/stm32l4xx_ll_usb.c ****     count++;
  43              		.loc 1 1310 5 view .LVU5
  44              		.loc 1 1310 10 is_stmt 0 view .LVU6
  45 0006 019B     		ldr	r3, [sp, #4]
  46 0008 0133     		adds	r3, r3, #1
  47 000a 0193     		str	r3, [sp, #4]
1311:Drivers/STM32L4xx_HAL_Driver/Src/stm32l4xx_ll_usb.c **** 
1312:Drivers/STM32L4xx_HAL_Driver/Src/stm32l4xx_ll_usb.c ****     if (count > 200000U)
  48              		.loc 1 1312 5 is_stmt 1 view .LVU7
  49              		.loc 1 1312 15 is_stmt 0 view .LVU8
  50 000c 019A     		ldr	r2, [sp, #4]
  51              		.loc 1 1312 8 view .LVU9
  52 000e 0F4B     		ldr	r3, .L8
  53 0010 9A42     		cmp	r2, r3
  54 0012 15D8     		bhi	.L5
1313:Drivers/STM32L4xx_HAL_Driver/Src/stm32l4xx_ll_usb.c ****     {
1314:Drivers/STM32L4xx_HAL_Driver/Src/stm32l4xx_ll_usb.c ****       return HAL_TIMEOUT;
1315:Drivers/STM32L4xx_HAL_Driver/Src/stm32l4xx_ll_usb.c ****     }
ARM GAS  /tmp/ccdWnOQF.s 			page 25


1316:Drivers/STM32L4xx_HAL_Driver/Src/stm32l4xx_ll_usb.c ****   } while ((USBx->GRSTCTL & USB_OTG_GRSTCTL_AHBIDL) == 0U);
  55              		.loc 1 1316 53 is_stmt 1 view .LVU10
  56              		.loc 1 1316 17 is_stmt 0 view .LVU11
  57 0014 0369     		ldr	r3, [r0, #16]
  58              		.loc 1 1316 53 view .LVU12
  59 0016 002B     		cmp	r3, #0
  60 0018 F5DA     		bge	.L3
1317:Drivers/STM32L4xx_HAL_Driver/Src/stm32l4xx_ll_usb.c **** 
1318:Drivers/STM32L4xx_HAL_Driver/Src/stm32l4xx_ll_usb.c ****   /* Core Soft Reset */
1319:Drivers/STM32L4xx_HAL_Driver/Src/stm32l4xx_ll_usb.c ****   count = 0U;
  61              		.loc 1 1319 3 is_stmt 1 view .LVU13
  62              		.loc 1 1319 9 is_stmt 0 view .LVU14
  63 001a 0023     		movs	r3, #0
  64 001c 0193     		str	r3, [sp, #4]
1320:Drivers/STM32L4xx_HAL_Driver/Src/stm32l4xx_ll_usb.c ****   USBx->GRSTCTL |= USB_OTG_GRSTCTL_CSRST;
  65              		.loc 1 1320 3 is_stmt 1 view .LVU15
  66              		.loc 1 1320 7 is_stmt 0 view .LVU16
  67 001e 0369     		ldr	r3, [r0, #16]
  68              		.loc 1 1320 17 view .LVU17
  69 0020 43F00103 		orr	r3, r3, #1
  70 0024 0361     		str	r3, [r0, #16]
  71              	.L4:
1321:Drivers/STM32L4xx_HAL_Driver/Src/stm32l4xx_ll_usb.c **** 
1322:Drivers/STM32L4xx_HAL_Driver/Src/stm32l4xx_ll_usb.c ****   do
  72              		.loc 1 1322 3 is_stmt 1 view .LVU18
1323:Drivers/STM32L4xx_HAL_Driver/Src/stm32l4xx_ll_usb.c ****   {
1324:Drivers/STM32L4xx_HAL_Driver/Src/stm32l4xx_ll_usb.c ****     count++;
  73              		.loc 1 1324 5 view .LVU19
  74              		.loc 1 1324 10 is_stmt 0 view .LVU20
  75 0026 019B     		ldr	r3, [sp, #4]
  76 0028 0133     		adds	r3, r3, #1
  77 002a 0193     		str	r3, [sp, #4]
1325:Drivers/STM32L4xx_HAL_Driver/Src/stm32l4xx_ll_usb.c **** 
1326:Drivers/STM32L4xx_HAL_Driver/Src/stm32l4xx_ll_usb.c ****     if (count > 200000U)
  78              		.loc 1 1326 5 is_stmt 1 view .LVU21
  79              		.loc 1 1326 15 is_stmt 0 view .LVU22
  80 002c 019A     		ldr	r2, [sp, #4]
  81              		.loc 1 1326 8 view .LVU23
  82 002e 074B     		ldr	r3, .L8
  83 0030 9A42     		cmp	r2, r3
  84 0032 08D8     		bhi	.L6
1327:Drivers/STM32L4xx_HAL_Driver/Src/stm32l4xx_ll_usb.c ****     {
1328:Drivers/STM32L4xx_HAL_Driver/Src/stm32l4xx_ll_usb.c ****       return HAL_TIMEOUT;
1329:Drivers/STM32L4xx_HAL_Driver/Src/stm32l4xx_ll_usb.c ****     }
1330:Drivers/STM32L4xx_HAL_Driver/Src/stm32l4xx_ll_usb.c ****   } while ((USBx->GRSTCTL & USB_OTG_GRSTCTL_CSRST) == USB_OTG_GRSTCTL_CSRST);
  85              		.loc 1 1330 52 is_stmt 1 view .LVU24
  86              		.loc 1 1330 17 is_stmt 0 view .LVU25
  87 0034 0369     		ldr	r3, [r0, #16]
  88              		.loc 1 1330 52 view .LVU26
  89 0036 13F0010F 		tst	r3, #1
  90 003a F4D1     		bne	.L4
1331:Drivers/STM32L4xx_HAL_Driver/Src/stm32l4xx_ll_usb.c **** 
1332:Drivers/STM32L4xx_HAL_Driver/Src/stm32l4xx_ll_usb.c ****   return HAL_OK;
  91              		.loc 1 1332 10 view .LVU27
  92 003c 0020     		movs	r0, #0
  93              	.LVL1:
  94              		.loc 1 1332 10 view .LVU28
ARM GAS  /tmp/ccdWnOQF.s 			page 26


  95 003e 00E0     		b	.L2
  96              	.LVL2:
  97              	.L5:
1314:Drivers/STM32L4xx_HAL_Driver/Src/stm32l4xx_ll_usb.c ****     }
  98              		.loc 1 1314 14 view .LVU29
  99 0040 0320     		movs	r0, #3
 100              	.LVL3:
 101              	.L2:
1333:Drivers/STM32L4xx_HAL_Driver/Src/stm32l4xx_ll_usb.c **** }
 102              		.loc 1 1333 1 view .LVU30
 103 0042 02B0     		add	sp, sp, #8
 104              		.cfi_remember_state
 105              		.cfi_def_cfa_offset 0
 106              		@ sp needed
 107 0044 7047     		bx	lr
 108              	.LVL4:
 109              	.L6:
 110              		.cfi_restore_state
1328:Drivers/STM32L4xx_HAL_Driver/Src/stm32l4xx_ll_usb.c ****     }
 111              		.loc 1 1328 14 view .LVU31
 112 0046 0320     		movs	r0, #3
 113              	.LVL5:
1328:Drivers/STM32L4xx_HAL_Driver/Src/stm32l4xx_ll_usb.c ****     }
 114              		.loc 1 1328 14 view .LVU32
 115 0048 FBE7     		b	.L2
 116              	.L9:
 117 004a 00BF     		.align	2
 118              	.L8:
 119 004c 400D0300 		.word	200000
 120              		.cfi_endproc
 121              	.LFE166:
 123              		.section	.text.USB_CoreInit,"ax",%progbits
 124              		.align	1
 125              		.global	USB_CoreInit
 126              		.syntax unified
 127              		.thumb
 128              		.thumb_func
 130              	USB_CoreInit:
 131              	.LVL6:
 132              	.LFB132:
  84:Drivers/STM32L4xx_HAL_Driver/Src/stm32l4xx_ll_usb.c ****   HAL_StatusTypeDef ret;
 133              		.loc 1 84 1 is_stmt 1 view -0
 134              		.cfi_startproc
 135              		@ args = 56, pretend = 16, frame = 0
 136              		@ frame_needed = 0, uses_anonymous_args = 0
  84:Drivers/STM32L4xx_HAL_Driver/Src/stm32l4xx_ll_usb.c ****   HAL_StatusTypeDef ret;
 137              		.loc 1 84 1 is_stmt 0 view .LVU34
 138 0000 84B0     		sub	sp, sp, #16
 139              		.cfi_def_cfa_offset 16
 140 0002 10B5     		push	{r4, lr}
 141              		.cfi_def_cfa_offset 24
 142              		.cfi_offset 4, -24
 143              		.cfi_offset 14, -20
 144 0004 0446     		mov	r4, r0
 145 0006 0DF10C0C 		add	ip, sp, #12
 146 000a 8CE80E00 		stm	ip, {r1, r2, r3}
  85:Drivers/STM32L4xx_HAL_Driver/Src/stm32l4xx_ll_usb.c **** 
ARM GAS  /tmp/ccdWnOQF.s 			page 27


 147              		.loc 1 85 3 is_stmt 1 view .LVU35
  88:Drivers/STM32L4xx_HAL_Driver/Src/stm32l4xx_ll_usb.c **** 
 148              		.loc 1 88 3 view .LVU36
  88:Drivers/STM32L4xx_HAL_Driver/Src/stm32l4xx_ll_usb.c **** 
 149              		.loc 1 88 7 is_stmt 0 view .LVU37
 150 000e C368     		ldr	r3, [r0, #12]
  88:Drivers/STM32L4xx_HAL_Driver/Src/stm32l4xx_ll_usb.c **** 
 151              		.loc 1 88 17 view .LVU38
 152 0010 43F04003 		orr	r3, r3, #64
 153 0014 C360     		str	r3, [r0, #12]
  91:Drivers/STM32L4xx_HAL_Driver/Src/stm32l4xx_ll_usb.c **** 
 154              		.loc 1 91 3 is_stmt 1 view .LVU39
  91:Drivers/STM32L4xx_HAL_Driver/Src/stm32l4xx_ll_usb.c **** 
 155              		.loc 1 91 9 is_stmt 0 view .LVU40
 156 0016 FFF7FEFF 		bl	USB_CoreReset
 157              	.LVL7:
  93:Drivers/STM32L4xx_HAL_Driver/Src/stm32l4xx_ll_usb.c ****   {
 158              		.loc 1 93 3 is_stmt 1 view .LVU41
  93:Drivers/STM32L4xx_HAL_Driver/Src/stm32l4xx_ll_usb.c ****   {
 159              		.loc 1 93 10 is_stmt 0 view .LVU42
 160 001a 0C9B     		ldr	r3, [sp, #48]
  93:Drivers/STM32L4xx_HAL_Driver/Src/stm32l4xx_ll_usb.c ****   {
 161              		.loc 1 93 6 view .LVU43
 162 001c 3BB9     		cbnz	r3, .L11
  96:Drivers/STM32L4xx_HAL_Driver/Src/stm32l4xx_ll_usb.c ****   }
 163              		.loc 1 96 5 is_stmt 1 view .LVU44
  96:Drivers/STM32L4xx_HAL_Driver/Src/stm32l4xx_ll_usb.c ****   }
 164              		.loc 1 96 9 is_stmt 0 view .LVU45
 165 001e A36B     		ldr	r3, [r4, #56]
  96:Drivers/STM32L4xx_HAL_Driver/Src/stm32l4xx_ll_usb.c ****   }
 166              		.loc 1 96 17 view .LVU46
 167 0020 43F48033 		orr	r3, r3, #65536
 168 0024 A363     		str	r3, [r4, #56]
 169              	.L12:
 104:Drivers/STM32L4xx_HAL_Driver/Src/stm32l4xx_ll_usb.c **** }
 170              		.loc 1 104 3 is_stmt 1 view .LVU47
 105:Drivers/STM32L4xx_HAL_Driver/Src/stm32l4xx_ll_usb.c **** 
 171              		.loc 1 105 1 is_stmt 0 view .LVU48
 172 0026 BDE81040 		pop	{r4, lr}
 173              		.cfi_remember_state
 174              		.cfi_restore 14
 175              		.cfi_restore 4
 176              		.cfi_def_cfa_offset 16
 177              	.LVL8:
 105:Drivers/STM32L4xx_HAL_Driver/Src/stm32l4xx_ll_usb.c **** 
 178              		.loc 1 105 1 view .LVU49
 179 002a 04B0     		add	sp, sp, #16
 180              		.cfi_def_cfa_offset 0
 181 002c 7047     		bx	lr
 182              	.LVL9:
 183              	.L11:
 184              		.cfi_restore_state
 101:Drivers/STM32L4xx_HAL_Driver/Src/stm32l4xx_ll_usb.c ****   }
 185              		.loc 1 101 5 is_stmt 1 view .LVU50
 101:Drivers/STM32L4xx_HAL_Driver/Src/stm32l4xx_ll_usb.c ****   }
 186              		.loc 1 101 9 is_stmt 0 view .LVU51
 187 002e A36B     		ldr	r3, [r4, #56]
ARM GAS  /tmp/ccdWnOQF.s 			page 28


 101:Drivers/STM32L4xx_HAL_Driver/Src/stm32l4xx_ll_usb.c ****   }
 188              		.loc 1 101 17 view .LVU52
 189 0030 23F48033 		bic	r3, r3, #65536
 190 0034 A363     		str	r3, [r4, #56]
 191 0036 F6E7     		b	.L12
 192              		.cfi_endproc
 193              	.LFE132:
 195              		.section	.text.USB_SetTurnaroundTime,"ax",%progbits
 196              		.align	1
 197              		.global	USB_SetTurnaroundTime
 198              		.syntax unified
 199              		.thumb
 200              		.thumb_func
 202              	USB_SetTurnaroundTime:
 203              	.LVL10:
 204              	.LFB133:
 116:Drivers/STM32L4xx_HAL_Driver/Src/stm32l4xx_ll_usb.c ****   uint32_t UsbTrd;
 205              		.loc 1 116 1 is_stmt 1 view -0
 206              		.cfi_startproc
 207              		@ args = 0, pretend = 0, frame = 0
 208              		@ frame_needed = 0, uses_anonymous_args = 0
 209              		@ link register save eliminated.
 117:Drivers/STM32L4xx_HAL_Driver/Src/stm32l4xx_ll_usb.c **** 
 210              		.loc 1 117 3 view .LVU54
 123:Drivers/STM32L4xx_HAL_Driver/Src/stm32l4xx_ll_usb.c ****   {
 211              		.loc 1 123 3 view .LVU55
 123:Drivers/STM32L4xx_HAL_Driver/Src/stm32l4xx_ll_usb.c ****   {
 212              		.loc 1 123 6 is_stmt 0 view .LVU56
 213 0000 022A     		cmp	r2, #2
 214 0002 0AD0     		beq	.L26
 178:Drivers/STM32L4xx_HAL_Driver/Src/stm32l4xx_ll_usb.c ****   }
 215              		.loc 1 178 12 view .LVU57
 216 0004 0922     		movs	r2, #9
 217              	.LVL11:
 218              	.L15:
 181:Drivers/STM32L4xx_HAL_Driver/Src/stm32l4xx_ll_usb.c ****   USBx->GUSBCFG |= (uint32_t)((UsbTrd << 10) & USB_OTG_GUSBCFG_TRDT);
 219              		.loc 1 181 3 is_stmt 1 view .LVU58
 181:Drivers/STM32L4xx_HAL_Driver/Src/stm32l4xx_ll_usb.c ****   USBx->GUSBCFG |= (uint32_t)((UsbTrd << 10) & USB_OTG_GUSBCFG_TRDT);
 220              		.loc 1 181 7 is_stmt 0 view .LVU59
 221 0006 C368     		ldr	r3, [r0, #12]
 181:Drivers/STM32L4xx_HAL_Driver/Src/stm32l4xx_ll_usb.c ****   USBx->GUSBCFG |= (uint32_t)((UsbTrd << 10) & USB_OTG_GUSBCFG_TRDT);
 222              		.loc 1 181 17 view .LVU60
 223 0008 23F47053 		bic	r3, r3, #15360
 224 000c C360     		str	r3, [r0, #12]
 182:Drivers/STM32L4xx_HAL_Driver/Src/stm32l4xx_ll_usb.c **** 
 225              		.loc 1 182 3 is_stmt 1 view .LVU61
 182:Drivers/STM32L4xx_HAL_Driver/Src/stm32l4xx_ll_usb.c **** 
 226              		.loc 1 182 7 is_stmt 0 view .LVU62
 227 000e C368     		ldr	r3, [r0, #12]
 182:Drivers/STM32L4xx_HAL_Driver/Src/stm32l4xx_ll_usb.c **** 
 228              		.loc 1 182 17 view .LVU63
 229 0010 43EA8223 		orr	r3, r3, r2, lsl #10
 230 0014 C360     		str	r3, [r0, #12]
 184:Drivers/STM32L4xx_HAL_Driver/Src/stm32l4xx_ll_usb.c **** }
 231              		.loc 1 184 3 is_stmt 1 view .LVU64
 185:Drivers/STM32L4xx_HAL_Driver/Src/stm32l4xx_ll_usb.c **** 
 232              		.loc 1 185 1 is_stmt 0 view .LVU65
ARM GAS  /tmp/ccdWnOQF.s 			page 29


 233 0016 0020     		movs	r0, #0
 234              	.LVL12:
 185:Drivers/STM32L4xx_HAL_Driver/Src/stm32l4xx_ll_usb.c **** 
 235              		.loc 1 185 1 view .LVU66
 236 0018 7047     		bx	lr
 237              	.LVL13:
 238              	.L26:
 125:Drivers/STM32L4xx_HAL_Driver/Src/stm32l4xx_ll_usb.c ****     {
 239              		.loc 1 125 5 is_stmt 1 view .LVU67
 125:Drivers/STM32L4xx_HAL_Driver/Src/stm32l4xx_ll_usb.c ****     {
 240              		.loc 1 125 29 is_stmt 0 view .LVU68
 241 001a 234B     		ldr	r3, .L27
 242 001c 0B44     		add	r3, r3, r1
 125:Drivers/STM32L4xx_HAL_Driver/Src/stm32l4xx_ll_usb.c ****     {
 243              		.loc 1 125 8 view .LVU69
 244 001e 234A     		ldr	r2, .L27+4
 245              	.LVL14:
 125:Drivers/STM32L4xx_HAL_Driver/Src/stm32l4xx_ll_usb.c ****     {
 246              		.loc 1 125 8 view .LVU70
 247 0020 9342     		cmp	r3, r2
 248 0022 2FD9     		bls	.L17
 130:Drivers/STM32L4xx_HAL_Driver/Src/stm32l4xx_ll_usb.c ****     {
 249              		.loc 1 130 10 is_stmt 1 view .LVU71
 130:Drivers/STM32L4xx_HAL_Driver/Src/stm32l4xx_ll_usb.c ****     {
 250              		.loc 1 130 34 is_stmt 0 view .LVU72
 251 0024 224B     		ldr	r3, .L27+8
 252 0026 0B44     		add	r3, r3, r1
 130:Drivers/STM32L4xx_HAL_Driver/Src/stm32l4xx_ll_usb.c ****     {
 253              		.loc 1 130 13 view .LVU73
 254 0028 224A     		ldr	r2, .L27+12
 255 002a 9342     		cmp	r3, r2
 256 002c 2CD9     		bls	.L18
 135:Drivers/STM32L4xx_HAL_Driver/Src/stm32l4xx_ll_usb.c ****     {
 257              		.loc 1 135 10 is_stmt 1 view .LVU74
 135:Drivers/STM32L4xx_HAL_Driver/Src/stm32l4xx_ll_usb.c ****     {
 258              		.loc 1 135 34 is_stmt 0 view .LVU75
 259 002e A1F57403 		sub	r3, r1, #15990784
 260 0032 A3F51053 		sub	r3, r3, #9216
 135:Drivers/STM32L4xx_HAL_Driver/Src/stm32l4xx_ll_usb.c ****     {
 261              		.loc 1 135 13 view .LVU76
 262 0036 204A     		ldr	r2, .L27+16
 263 0038 9342     		cmp	r3, r2
 264 003a 27D9     		bls	.L19
 140:Drivers/STM32L4xx_HAL_Driver/Src/stm32l4xx_ll_usb.c ****     {
 265              		.loc 1 140 10 is_stmt 1 view .LVU77
 140:Drivers/STM32L4xx_HAL_Driver/Src/stm32l4xx_ll_usb.c ****     {
 266              		.loc 1 140 34 is_stmt 0 view .LVU78
 267 003c A1F18373 		sub	r3, r1, #17170432
 268 0040 A3F5E743 		sub	r3, r3, #29568
 140:Drivers/STM32L4xx_HAL_Driver/Src/stm32l4xx_ll_usb.c ****     {
 269              		.loc 1 140 13 view .LVU79
 270 0044 1D4A     		ldr	r2, .L27+20
 271 0046 9342     		cmp	r3, r2
 272 0048 22D3     		bcc	.L20
 145:Drivers/STM32L4xx_HAL_Driver/Src/stm32l4xx_ll_usb.c ****     {
 273              		.loc 1 145 10 is_stmt 1 view .LVU80
 145:Drivers/STM32L4xx_HAL_Driver/Src/stm32l4xx_ll_usb.c ****     {
ARM GAS  /tmp/ccdWnOQF.s 			page 30


 274              		.loc 1 145 34 is_stmt 0 view .LVU81
 275 004a 1D4B     		ldr	r3, .L27+24
 276 004c 0B44     		add	r3, r3, r1
 145:Drivers/STM32L4xx_HAL_Driver/Src/stm32l4xx_ll_usb.c ****     {
 277              		.loc 1 145 13 view .LVU82
 278 004e 1D4A     		ldr	r2, .L27+28
 279 0050 9342     		cmp	r3, r2
 280 0052 1FD9     		bls	.L21
 150:Drivers/STM32L4xx_HAL_Driver/Src/stm32l4xx_ll_usb.c ****     {
 281              		.loc 1 150 10 is_stmt 1 view .LVU83
 150:Drivers/STM32L4xx_HAL_Driver/Src/stm32l4xx_ll_usb.c ****     {
 282              		.loc 1 150 34 is_stmt 0 view .LVU84
 283 0054 1C4B     		ldr	r3, .L27+32
 284 0056 0B44     		add	r3, r3, r1
 150:Drivers/STM32L4xx_HAL_Driver/Src/stm32l4xx_ll_usb.c ****     {
 285              		.loc 1 150 13 view .LVU85
 286 0058 1C4A     		ldr	r2, .L27+36
 287 005a 9342     		cmp	r3, r2
 288 005c 1CD3     		bcc	.L22
 155:Drivers/STM32L4xx_HAL_Driver/Src/stm32l4xx_ll_usb.c ****     {
 289              		.loc 1 155 10 is_stmt 1 view .LVU86
 155:Drivers/STM32L4xx_HAL_Driver/Src/stm32l4xx_ll_usb.c ****     {
 290              		.loc 1 155 34 is_stmt 0 view .LVU87
 291 005e 1C4B     		ldr	r3, .L27+40
 292 0060 0B44     		add	r3, r3, r1
 155:Drivers/STM32L4xx_HAL_Driver/Src/stm32l4xx_ll_usb.c ****     {
 293              		.loc 1 155 13 view .LVU88
 294 0062 1C4A     		ldr	r2, .L27+44
 295 0064 9342     		cmp	r3, r2
 296 0066 19D3     		bcc	.L23
 160:Drivers/STM32L4xx_HAL_Driver/Src/stm32l4xx_ll_usb.c ****     {
 297              		.loc 1 160 10 is_stmt 1 view .LVU89
 160:Drivers/STM32L4xx_HAL_Driver/Src/stm32l4xx_ll_usb.c ****     {
 298              		.loc 1 160 34 is_stmt 0 view .LVU90
 299 0068 A1F1B773 		sub	r3, r1, #23986176
 300 006c A3F55853 		sub	r3, r3, #13824
 160:Drivers/STM32L4xx_HAL_Driver/Src/stm32l4xx_ll_usb.c ****     {
 301              		.loc 1 160 13 view .LVU91
 302 0070 194A     		ldr	r2, .L27+48
 303 0072 9342     		cmp	r3, r2
 304 0074 14D3     		bcc	.L24
 165:Drivers/STM32L4xx_HAL_Driver/Src/stm32l4xx_ll_usb.c ****     {
 305              		.loc 1 165 10 is_stmt 1 view .LVU92
 165:Drivers/STM32L4xx_HAL_Driver/Src/stm32l4xx_ll_usb.c ****     {
 306              		.loc 1 165 34 is_stmt 0 view .LVU93
 307 0076 194B     		ldr	r3, .L27+52
 308 0078 0B44     		add	r3, r3, r1
 165:Drivers/STM32L4xx_HAL_Driver/Src/stm32l4xx_ll_usb.c ****     {
 309              		.loc 1 165 13 view .LVU94
 310 007a 194A     		ldr	r2, .L27+56
 311 007c 9342     		cmp	r3, r2
 312 007e 11D2     		bcs	.L25
 168:Drivers/STM32L4xx_HAL_Driver/Src/stm32l4xx_ll_usb.c ****     }
 313              		.loc 1 168 14 view .LVU95
 314 0080 0722     		movs	r2, #7
 315 0082 C0E7     		b	.L15
 316              	.L17:
ARM GAS  /tmp/ccdWnOQF.s 			page 31


 128:Drivers/STM32L4xx_HAL_Driver/Src/stm32l4xx_ll_usb.c ****     }
 317              		.loc 1 128 14 view .LVU96
 318 0084 0F22     		movs	r2, #15
 319 0086 BEE7     		b	.L15
 320              	.L18:
 133:Drivers/STM32L4xx_HAL_Driver/Src/stm32l4xx_ll_usb.c ****     }
 321              		.loc 1 133 14 view .LVU97
 322 0088 0E22     		movs	r2, #14
 323 008a BCE7     		b	.L15
 324              	.L19:
 138:Drivers/STM32L4xx_HAL_Driver/Src/stm32l4xx_ll_usb.c ****     }
 325              		.loc 1 138 14 view .LVU98
 326 008c 0D22     		movs	r2, #13
 327 008e BAE7     		b	.L15
 328              	.L20:
 143:Drivers/STM32L4xx_HAL_Driver/Src/stm32l4xx_ll_usb.c ****     }
 329              		.loc 1 143 14 view .LVU99
 330 0090 0C22     		movs	r2, #12
 331 0092 B8E7     		b	.L15
 332              	.L21:
 148:Drivers/STM32L4xx_HAL_Driver/Src/stm32l4xx_ll_usb.c ****     }
 333              		.loc 1 148 14 view .LVU100
 334 0094 0B22     		movs	r2, #11
 335 0096 B6E7     		b	.L15
 336              	.L22:
 153:Drivers/STM32L4xx_HAL_Driver/Src/stm32l4xx_ll_usb.c ****     }
 337              		.loc 1 153 14 view .LVU101
 338 0098 0A22     		movs	r2, #10
 339 009a B4E7     		b	.L15
 340              	.L23:
 158:Drivers/STM32L4xx_HAL_Driver/Src/stm32l4xx_ll_usb.c ****     }
 341              		.loc 1 158 14 view .LVU102
 342 009c 0922     		movs	r2, #9
 343 009e B2E7     		b	.L15
 344              	.L24:
 163:Drivers/STM32L4xx_HAL_Driver/Src/stm32l4xx_ll_usb.c ****     }
 345              		.loc 1 163 14 view .LVU103
 346 00a0 0822     		movs	r2, #8
 347 00a2 B0E7     		b	.L15
 348              	.L25:
 173:Drivers/STM32L4xx_HAL_Driver/Src/stm32l4xx_ll_usb.c ****     }
 349              		.loc 1 173 14 view .LVU104
 350 00a4 0622     		movs	r2, #6
 351 00a6 AEE7     		b	.L15
 352              	.L28:
 353              		.align	2
 354              	.L27:
 355 00a8 405327FF 		.word	-14200000
 356 00ac FF340C00 		.word	799999
 357 00b0 401E1BFF 		.word	-15000000
 358 00b4 3F420F00 		.word	999999
 359 00b8 7F4F1200 		.word	1199999
 360 00bc 20D61300 		.word	1300000
 361 00c0 60B6E5FE 		.word	-18500000
 362 00c4 5FE31600 		.word	1499999
 363 00c8 00D3CEFE 		.word	-20000000
 364 00cc 40771B00 		.word	1800000
ARM GAS  /tmp/ccdWnOQF.s 			page 32


 365 00d0 C05BB3FE 		.word	-21800000
 366 00d4 C0912100 		.word	2200000
 367 00d8 20753800 		.word	3700000
 368 00dc E05459FE 		.word	-27700000
 369 00e0 E09C4100 		.word	4300000
 370              		.cfi_endproc
 371              	.LFE133:
 373              		.section	.text.USB_EnableGlobalInt,"ax",%progbits
 374              		.align	1
 375              		.global	USB_EnableGlobalInt
 376              		.syntax unified
 377              		.thumb
 378              		.thumb_func
 380              	USB_EnableGlobalInt:
 381              	.LVL15:
 382              	.LFB134:
 194:Drivers/STM32L4xx_HAL_Driver/Src/stm32l4xx_ll_usb.c ****   USBx->GAHBCFG |= USB_OTG_GAHBCFG_GINT;
 383              		.loc 1 194 1 is_stmt 1 view -0
 384              		.cfi_startproc
 385              		@ args = 0, pretend = 0, frame = 0
 386              		@ frame_needed = 0, uses_anonymous_args = 0
 387              		@ link register save eliminated.
 195:Drivers/STM32L4xx_HAL_Driver/Src/stm32l4xx_ll_usb.c ****   return HAL_OK;
 388              		.loc 1 195 3 view .LVU106
 195:Drivers/STM32L4xx_HAL_Driver/Src/stm32l4xx_ll_usb.c ****   return HAL_OK;
 389              		.loc 1 195 7 is_stmt 0 view .LVU107
 390 0000 8368     		ldr	r3, [r0, #8]
 195:Drivers/STM32L4xx_HAL_Driver/Src/stm32l4xx_ll_usb.c ****   return HAL_OK;
 391              		.loc 1 195 17 view .LVU108
 392 0002 43F00103 		orr	r3, r3, #1
 393 0006 8360     		str	r3, [r0, #8]
 196:Drivers/STM32L4xx_HAL_Driver/Src/stm32l4xx_ll_usb.c **** }
 394              		.loc 1 196 3 is_stmt 1 view .LVU109
 197:Drivers/STM32L4xx_HAL_Driver/Src/stm32l4xx_ll_usb.c **** 
 395              		.loc 1 197 1 is_stmt 0 view .LVU110
 396 0008 0020     		movs	r0, #0
 397              	.LVL16:
 197:Drivers/STM32L4xx_HAL_Driver/Src/stm32l4xx_ll_usb.c **** 
 398              		.loc 1 197 1 view .LVU111
 399 000a 7047     		bx	lr
 400              		.cfi_endproc
 401              	.LFE134:
 403              		.section	.text.USB_DisableGlobalInt,"ax",%progbits
 404              		.align	1
 405              		.global	USB_DisableGlobalInt
 406              		.syntax unified
 407              		.thumb
 408              		.thumb_func
 410              	USB_DisableGlobalInt:
 411              	.LVL17:
 412              	.LFB135:
 206:Drivers/STM32L4xx_HAL_Driver/Src/stm32l4xx_ll_usb.c ****   USBx->GAHBCFG &= ~USB_OTG_GAHBCFG_GINT;
 413              		.loc 1 206 1 is_stmt 1 view -0
 414              		.cfi_startproc
 415              		@ args = 0, pretend = 0, frame = 0
 416              		@ frame_needed = 0, uses_anonymous_args = 0
 417              		@ link register save eliminated.
ARM GAS  /tmp/ccdWnOQF.s 			page 33


 207:Drivers/STM32L4xx_HAL_Driver/Src/stm32l4xx_ll_usb.c ****   return HAL_OK;
 418              		.loc 1 207 3 view .LVU113
 207:Drivers/STM32L4xx_HAL_Driver/Src/stm32l4xx_ll_usb.c ****   return HAL_OK;
 419              		.loc 1 207 7 is_stmt 0 view .LVU114
 420 0000 8368     		ldr	r3, [r0, #8]
 207:Drivers/STM32L4xx_HAL_Driver/Src/stm32l4xx_ll_usb.c ****   return HAL_OK;
 421              		.loc 1 207 17 view .LVU115
 422 0002 23F00103 		bic	r3, r3, #1
 423 0006 8360     		str	r3, [r0, #8]
 208:Drivers/STM32L4xx_HAL_Driver/Src/stm32l4xx_ll_usb.c **** }
 424              		.loc 1 208 3 is_stmt 1 view .LVU116
 209:Drivers/STM32L4xx_HAL_Driver/Src/stm32l4xx_ll_usb.c **** 
 425              		.loc 1 209 1 is_stmt 0 view .LVU117
 426 0008 0020     		movs	r0, #0
 427              	.LVL18:
 209:Drivers/STM32L4xx_HAL_Driver/Src/stm32l4xx_ll_usb.c **** 
 428              		.loc 1 209 1 view .LVU118
 429 000a 7047     		bx	lr
 430              		.cfi_endproc
 431              	.LFE135:
 433              		.section	.text.USB_FlushTxFifo,"ax",%progbits
 434              		.align	1
 435              		.global	USB_FlushTxFifo
 436              		.syntax unified
 437              		.thumb
 438              		.thumb_func
 440              	USB_FlushTxFifo:
 441              	.LVL19:
 442              	.LFB138:
 404:Drivers/STM32L4xx_HAL_Driver/Src/stm32l4xx_ll_usb.c ****   __IO uint32_t count = 0U;
 443              		.loc 1 404 1 is_stmt 1 view -0
 444              		.cfi_startproc
 445              		@ args = 0, pretend = 0, frame = 8
 446              		@ frame_needed = 0, uses_anonymous_args = 0
 447              		@ link register save eliminated.
 404:Drivers/STM32L4xx_HAL_Driver/Src/stm32l4xx_ll_usb.c ****   __IO uint32_t count = 0U;
 448              		.loc 1 404 1 is_stmt 0 view .LVU120
 449 0000 82B0     		sub	sp, sp, #8
 450              		.cfi_def_cfa_offset 8
 405:Drivers/STM32L4xx_HAL_Driver/Src/stm32l4xx_ll_usb.c **** 
 451              		.loc 1 405 3 is_stmt 1 view .LVU121
 405:Drivers/STM32L4xx_HAL_Driver/Src/stm32l4xx_ll_usb.c **** 
 452              		.loc 1 405 17 is_stmt 0 view .LVU122
 453 0002 0023     		movs	r3, #0
 454 0004 0193     		str	r3, [sp, #4]
 455              	.L33:
 408:Drivers/STM32L4xx_HAL_Driver/Src/stm32l4xx_ll_usb.c ****   {
 456              		.loc 1 408 3 is_stmt 1 view .LVU123
 410:Drivers/STM32L4xx_HAL_Driver/Src/stm32l4xx_ll_usb.c **** 
 457              		.loc 1 410 5 view .LVU124
 410:Drivers/STM32L4xx_HAL_Driver/Src/stm32l4xx_ll_usb.c **** 
 458              		.loc 1 410 10 is_stmt 0 view .LVU125
 459 0006 019B     		ldr	r3, [sp, #4]
 460 0008 0133     		adds	r3, r3, #1
 461 000a 0193     		str	r3, [sp, #4]
 412:Drivers/STM32L4xx_HAL_Driver/Src/stm32l4xx_ll_usb.c ****     {
 462              		.loc 1 412 5 is_stmt 1 view .LVU126
ARM GAS  /tmp/ccdWnOQF.s 			page 34


 412:Drivers/STM32L4xx_HAL_Driver/Src/stm32l4xx_ll_usb.c ****     {
 463              		.loc 1 412 15 is_stmt 0 view .LVU127
 464 000c 019A     		ldr	r2, [sp, #4]
 412:Drivers/STM32L4xx_HAL_Driver/Src/stm32l4xx_ll_usb.c ****     {
 465              		.loc 1 412 8 view .LVU128
 466 000e 0F4B     		ldr	r3, .L38
 467 0010 9A42     		cmp	r2, r3
 468 0012 15D8     		bhi	.L35
 416:Drivers/STM32L4xx_HAL_Driver/Src/stm32l4xx_ll_usb.c **** 
 469              		.loc 1 416 53 is_stmt 1 view .LVU129
 416:Drivers/STM32L4xx_HAL_Driver/Src/stm32l4xx_ll_usb.c **** 
 470              		.loc 1 416 17 is_stmt 0 view .LVU130
 471 0014 0369     		ldr	r3, [r0, #16]
 416:Drivers/STM32L4xx_HAL_Driver/Src/stm32l4xx_ll_usb.c **** 
 472              		.loc 1 416 53 view .LVU131
 473 0016 002B     		cmp	r3, #0
 474 0018 F5DA     		bge	.L33
 419:Drivers/STM32L4xx_HAL_Driver/Src/stm32l4xx_ll_usb.c ****   USBx->GRSTCTL = (USB_OTG_GRSTCTL_TXFFLSH | (num << 6));
 475              		.loc 1 419 3 is_stmt 1 view .LVU132
 419:Drivers/STM32L4xx_HAL_Driver/Src/stm32l4xx_ll_usb.c ****   USBx->GRSTCTL = (USB_OTG_GRSTCTL_TXFFLSH | (num << 6));
 476              		.loc 1 419 9 is_stmt 0 view .LVU133
 477 001a 0023     		movs	r3, #0
 478 001c 0193     		str	r3, [sp, #4]
 420:Drivers/STM32L4xx_HAL_Driver/Src/stm32l4xx_ll_usb.c **** 
 479              		.loc 1 420 3 is_stmt 1 view .LVU134
 420:Drivers/STM32L4xx_HAL_Driver/Src/stm32l4xx_ll_usb.c **** 
 480              		.loc 1 420 51 is_stmt 0 view .LVU135
 481 001e 8901     		lsls	r1, r1, #6
 482              	.LVL20:
 420:Drivers/STM32L4xx_HAL_Driver/Src/stm32l4xx_ll_usb.c **** 
 483              		.loc 1 420 44 view .LVU136
 484 0020 41F02001 		orr	r1, r1, #32
 420:Drivers/STM32L4xx_HAL_Driver/Src/stm32l4xx_ll_usb.c **** 
 485              		.loc 1 420 17 view .LVU137
 486 0024 0161     		str	r1, [r0, #16]
 487              	.L34:
 422:Drivers/STM32L4xx_HAL_Driver/Src/stm32l4xx_ll_usb.c ****   {
 488              		.loc 1 422 3 is_stmt 1 view .LVU138
 424:Drivers/STM32L4xx_HAL_Driver/Src/stm32l4xx_ll_usb.c **** 
 489              		.loc 1 424 5 view .LVU139
 424:Drivers/STM32L4xx_HAL_Driver/Src/stm32l4xx_ll_usb.c **** 
 490              		.loc 1 424 10 is_stmt 0 view .LVU140
 491 0026 019B     		ldr	r3, [sp, #4]
 492 0028 0133     		adds	r3, r3, #1
 493 002a 0193     		str	r3, [sp, #4]
 426:Drivers/STM32L4xx_HAL_Driver/Src/stm32l4xx_ll_usb.c ****     {
 494              		.loc 1 426 5 is_stmt 1 view .LVU141
 426:Drivers/STM32L4xx_HAL_Driver/Src/stm32l4xx_ll_usb.c ****     {
 495              		.loc 1 426 15 is_stmt 0 view .LVU142
 496 002c 019A     		ldr	r2, [sp, #4]
 426:Drivers/STM32L4xx_HAL_Driver/Src/stm32l4xx_ll_usb.c ****     {
 497              		.loc 1 426 8 view .LVU143
 498 002e 074B     		ldr	r3, .L38
 499 0030 9A42     		cmp	r2, r3
 500 0032 08D8     		bhi	.L36
 430:Drivers/STM32L4xx_HAL_Driver/Src/stm32l4xx_ll_usb.c **** 
 501              		.loc 1 430 54 is_stmt 1 view .LVU144
ARM GAS  /tmp/ccdWnOQF.s 			page 35


 430:Drivers/STM32L4xx_HAL_Driver/Src/stm32l4xx_ll_usb.c **** 
 502              		.loc 1 430 17 is_stmt 0 view .LVU145
 503 0034 0369     		ldr	r3, [r0, #16]
 430:Drivers/STM32L4xx_HAL_Driver/Src/stm32l4xx_ll_usb.c **** 
 504              		.loc 1 430 54 view .LVU146
 505 0036 13F0200F 		tst	r3, #32
 506 003a F4D1     		bne	.L34
 432:Drivers/STM32L4xx_HAL_Driver/Src/stm32l4xx_ll_usb.c **** }
 507              		.loc 1 432 10 view .LVU147
 508 003c 0020     		movs	r0, #0
 509              	.LVL21:
 432:Drivers/STM32L4xx_HAL_Driver/Src/stm32l4xx_ll_usb.c **** }
 510              		.loc 1 432 10 view .LVU148
 511 003e 00E0     		b	.L32
 512              	.LVL22:
 513              	.L35:
 414:Drivers/STM32L4xx_HAL_Driver/Src/stm32l4xx_ll_usb.c ****     }
 514              		.loc 1 414 14 view .LVU149
 515 0040 0320     		movs	r0, #3
 516              	.LVL23:
 517              	.L32:
 433:Drivers/STM32L4xx_HAL_Driver/Src/stm32l4xx_ll_usb.c **** 
 518              		.loc 1 433 1 view .LVU150
 519 0042 02B0     		add	sp, sp, #8
 520              		.cfi_remember_state
 521              		.cfi_def_cfa_offset 0
 522              		@ sp needed
 523 0044 7047     		bx	lr
 524              	.LVL24:
 525              	.L36:
 526              		.cfi_restore_state
 428:Drivers/STM32L4xx_HAL_Driver/Src/stm32l4xx_ll_usb.c ****     }
 527              		.loc 1 428 14 view .LVU151
 528 0046 0320     		movs	r0, #3
 529              	.LVL25:
 428:Drivers/STM32L4xx_HAL_Driver/Src/stm32l4xx_ll_usb.c ****     }
 530              		.loc 1 428 14 view .LVU152
 531 0048 FBE7     		b	.L32
 532              	.L39:
 533 004a 00BF     		.align	2
 534              	.L38:
 535 004c 400D0300 		.word	200000
 536              		.cfi_endproc
 537              	.LFE138:
 539              		.section	.text.USB_FlushRxFifo,"ax",%progbits
 540              		.align	1
 541              		.global	USB_FlushRxFifo
 542              		.syntax unified
 543              		.thumb
 544              		.thumb_func
 546              	USB_FlushRxFifo:
 547              	.LVL26:
 548              	.LFB139:
 441:Drivers/STM32L4xx_HAL_Driver/Src/stm32l4xx_ll_usb.c ****   __IO uint32_t count = 0U;
 549              		.loc 1 441 1 is_stmt 1 view -0
 550              		.cfi_startproc
 551              		@ args = 0, pretend = 0, frame = 8
ARM GAS  /tmp/ccdWnOQF.s 			page 36


 552              		@ frame_needed = 0, uses_anonymous_args = 0
 553              		@ link register save eliminated.
 441:Drivers/STM32L4xx_HAL_Driver/Src/stm32l4xx_ll_usb.c ****   __IO uint32_t count = 0U;
 554              		.loc 1 441 1 is_stmt 0 view .LVU154
 555 0000 82B0     		sub	sp, sp, #8
 556              		.cfi_def_cfa_offset 8
 442:Drivers/STM32L4xx_HAL_Driver/Src/stm32l4xx_ll_usb.c **** 
 557              		.loc 1 442 3 is_stmt 1 view .LVU155
 442:Drivers/STM32L4xx_HAL_Driver/Src/stm32l4xx_ll_usb.c **** 
 558              		.loc 1 442 17 is_stmt 0 view .LVU156
 559 0002 0023     		movs	r3, #0
 560 0004 0193     		str	r3, [sp, #4]
 561              	.L42:
 445:Drivers/STM32L4xx_HAL_Driver/Src/stm32l4xx_ll_usb.c ****   {
 562              		.loc 1 445 3 is_stmt 1 view .LVU157
 447:Drivers/STM32L4xx_HAL_Driver/Src/stm32l4xx_ll_usb.c **** 
 563              		.loc 1 447 5 view .LVU158
 447:Drivers/STM32L4xx_HAL_Driver/Src/stm32l4xx_ll_usb.c **** 
 564              		.loc 1 447 10 is_stmt 0 view .LVU159
 565 0006 019B     		ldr	r3, [sp, #4]
 566 0008 0133     		adds	r3, r3, #1
 567 000a 0193     		str	r3, [sp, #4]
 449:Drivers/STM32L4xx_HAL_Driver/Src/stm32l4xx_ll_usb.c ****     {
 568              		.loc 1 449 5 is_stmt 1 view .LVU160
 449:Drivers/STM32L4xx_HAL_Driver/Src/stm32l4xx_ll_usb.c ****     {
 569              		.loc 1 449 15 is_stmt 0 view .LVU161
 570 000c 019A     		ldr	r2, [sp, #4]
 449:Drivers/STM32L4xx_HAL_Driver/Src/stm32l4xx_ll_usb.c ****     {
 571              		.loc 1 449 8 view .LVU162
 572 000e 0E4B     		ldr	r3, .L47
 573 0010 9A42     		cmp	r2, r3
 574 0012 13D8     		bhi	.L44
 453:Drivers/STM32L4xx_HAL_Driver/Src/stm32l4xx_ll_usb.c **** 
 575              		.loc 1 453 53 is_stmt 1 view .LVU163
 453:Drivers/STM32L4xx_HAL_Driver/Src/stm32l4xx_ll_usb.c **** 
 576              		.loc 1 453 17 is_stmt 0 view .LVU164
 577 0014 0369     		ldr	r3, [r0, #16]
 453:Drivers/STM32L4xx_HAL_Driver/Src/stm32l4xx_ll_usb.c **** 
 578              		.loc 1 453 53 view .LVU165
 579 0016 002B     		cmp	r3, #0
 580 0018 F5DA     		bge	.L42
 456:Drivers/STM32L4xx_HAL_Driver/Src/stm32l4xx_ll_usb.c ****   USBx->GRSTCTL = USB_OTG_GRSTCTL_RXFFLSH;
 581              		.loc 1 456 3 is_stmt 1 view .LVU166
 456:Drivers/STM32L4xx_HAL_Driver/Src/stm32l4xx_ll_usb.c ****   USBx->GRSTCTL = USB_OTG_GRSTCTL_RXFFLSH;
 582              		.loc 1 456 9 is_stmt 0 view .LVU167
 583 001a 0023     		movs	r3, #0
 584 001c 0193     		str	r3, [sp, #4]
 457:Drivers/STM32L4xx_HAL_Driver/Src/stm32l4xx_ll_usb.c **** 
 585              		.loc 1 457 3 is_stmt 1 view .LVU168
 457:Drivers/STM32L4xx_HAL_Driver/Src/stm32l4xx_ll_usb.c **** 
 586              		.loc 1 457 17 is_stmt 0 view .LVU169
 587 001e 1023     		movs	r3, #16
 588 0020 0361     		str	r3, [r0, #16]
 589              	.L43:
 459:Drivers/STM32L4xx_HAL_Driver/Src/stm32l4xx_ll_usb.c ****   {
 590              		.loc 1 459 3 is_stmt 1 view .LVU170
 461:Drivers/STM32L4xx_HAL_Driver/Src/stm32l4xx_ll_usb.c **** 
ARM GAS  /tmp/ccdWnOQF.s 			page 37


 591              		.loc 1 461 5 view .LVU171
 461:Drivers/STM32L4xx_HAL_Driver/Src/stm32l4xx_ll_usb.c **** 
 592              		.loc 1 461 10 is_stmt 0 view .LVU172
 593 0022 019B     		ldr	r3, [sp, #4]
 594 0024 0133     		adds	r3, r3, #1
 595 0026 0193     		str	r3, [sp, #4]
 463:Drivers/STM32L4xx_HAL_Driver/Src/stm32l4xx_ll_usb.c ****     {
 596              		.loc 1 463 5 is_stmt 1 view .LVU173
 463:Drivers/STM32L4xx_HAL_Driver/Src/stm32l4xx_ll_usb.c ****     {
 597              		.loc 1 463 15 is_stmt 0 view .LVU174
 598 0028 019A     		ldr	r2, [sp, #4]
 463:Drivers/STM32L4xx_HAL_Driver/Src/stm32l4xx_ll_usb.c ****     {
 599              		.loc 1 463 8 view .LVU175
 600 002a 074B     		ldr	r3, .L47
 601 002c 9A42     		cmp	r2, r3
 602 002e 08D8     		bhi	.L45
 467:Drivers/STM32L4xx_HAL_Driver/Src/stm32l4xx_ll_usb.c **** 
 603              		.loc 1 467 54 is_stmt 1 view .LVU176
 467:Drivers/STM32L4xx_HAL_Driver/Src/stm32l4xx_ll_usb.c **** 
 604              		.loc 1 467 17 is_stmt 0 view .LVU177
 605 0030 0369     		ldr	r3, [r0, #16]
 467:Drivers/STM32L4xx_HAL_Driver/Src/stm32l4xx_ll_usb.c **** 
 606              		.loc 1 467 54 view .LVU178
 607 0032 13F0100F 		tst	r3, #16
 608 0036 F4D1     		bne	.L43
 469:Drivers/STM32L4xx_HAL_Driver/Src/stm32l4xx_ll_usb.c **** }
 609              		.loc 1 469 10 view .LVU179
 610 0038 0020     		movs	r0, #0
 611              	.LVL27:
 469:Drivers/STM32L4xx_HAL_Driver/Src/stm32l4xx_ll_usb.c **** }
 612              		.loc 1 469 10 view .LVU180
 613 003a 00E0     		b	.L41
 614              	.LVL28:
 615              	.L44:
 451:Drivers/STM32L4xx_HAL_Driver/Src/stm32l4xx_ll_usb.c ****     }
 616              		.loc 1 451 14 view .LVU181
 617 003c 0320     		movs	r0, #3
 618              	.LVL29:
 619              	.L41:
 470:Drivers/STM32L4xx_HAL_Driver/Src/stm32l4xx_ll_usb.c **** 
 620              		.loc 1 470 1 view .LVU182
 621 003e 02B0     		add	sp, sp, #8
 622              		.cfi_remember_state
 623              		.cfi_def_cfa_offset 0
 624              		@ sp needed
 625 0040 7047     		bx	lr
 626              	.LVL30:
 627              	.L45:
 628              		.cfi_restore_state
 465:Drivers/STM32L4xx_HAL_Driver/Src/stm32l4xx_ll_usb.c ****     }
 629              		.loc 1 465 14 view .LVU183
 630 0042 0320     		movs	r0, #3
 631              	.LVL31:
 465:Drivers/STM32L4xx_HAL_Driver/Src/stm32l4xx_ll_usb.c ****     }
 632              		.loc 1 465 14 view .LVU184
 633 0044 FBE7     		b	.L41
 634              	.L48:
ARM GAS  /tmp/ccdWnOQF.s 			page 38


 635 0046 00BF     		.align	2
 636              	.L47:
 637 0048 400D0300 		.word	200000
 638              		.cfi_endproc
 639              	.LFE139:
 641              		.section	.text.USB_SetDevSpeed,"ax",%progbits
 642              		.align	1
 643              		.global	USB_SetDevSpeed
 644              		.syntax unified
 645              		.thumb
 646              		.thumb_func
 648              	USB_SetDevSpeed:
 649              	.LVL32:
 650              	.LFB140:
 482:Drivers/STM32L4xx_HAL_Driver/Src/stm32l4xx_ll_usb.c ****   uint32_t USBx_BASE = (uint32_t)USBx;
 651              		.loc 1 482 1 is_stmt 1 view -0
 652              		.cfi_startproc
 653              		@ args = 0, pretend = 0, frame = 0
 654              		@ frame_needed = 0, uses_anonymous_args = 0
 655              		@ link register save eliminated.
 483:Drivers/STM32L4xx_HAL_Driver/Src/stm32l4xx_ll_usb.c **** 
 656              		.loc 1 483 3 view .LVU186
 485:Drivers/STM32L4xx_HAL_Driver/Src/stm32l4xx_ll_usb.c ****   return HAL_OK;
 657              		.loc 1 485 3 view .LVU187
 485:Drivers/STM32L4xx_HAL_Driver/Src/stm32l4xx_ll_usb.c ****   return HAL_OK;
 658              		.loc 1 485 14 is_stmt 0 view .LVU188
 659 0000 D0F80038 		ldr	r3, [r0, #2048]
 485:Drivers/STM32L4xx_HAL_Driver/Src/stm32l4xx_ll_usb.c ****   return HAL_OK;
 660              		.loc 1 485 21 view .LVU189
 661 0004 1943     		orrs	r1, r1, r3
 662              	.LVL33:
 485:Drivers/STM32L4xx_HAL_Driver/Src/stm32l4xx_ll_usb.c ****   return HAL_OK;
 663              		.loc 1 485 21 view .LVU190
 664 0006 C0F80018 		str	r1, [r0, #2048]
 486:Drivers/STM32L4xx_HAL_Driver/Src/stm32l4xx_ll_usb.c **** }
 665              		.loc 1 486 3 is_stmt 1 view .LVU191
 487:Drivers/STM32L4xx_HAL_Driver/Src/stm32l4xx_ll_usb.c **** 
 666              		.loc 1 487 1 is_stmt 0 view .LVU192
 667 000a 0020     		movs	r0, #0
 668              	.LVL34:
 487:Drivers/STM32L4xx_HAL_Driver/Src/stm32l4xx_ll_usb.c **** 
 669              		.loc 1 487 1 view .LVU193
 670 000c 7047     		bx	lr
 671              		.cfi_endproc
 672              	.LFE140:
 674              		.section	.text.USB_DevInit,"ax",%progbits
 675              		.align	1
 676              		.global	USB_DevInit
 677              		.syntax unified
 678              		.thumb
 679              		.thumb_func
 681              	USB_DevInit:
 682              	.LVL35:
 683              	.LFB137:
 268:Drivers/STM32L4xx_HAL_Driver/Src/stm32l4xx_ll_usb.c ****   HAL_StatusTypeDef ret = HAL_OK;
 684              		.loc 1 268 1 is_stmt 1 view -0
 685              		.cfi_startproc
ARM GAS  /tmp/ccdWnOQF.s 			page 39


 686              		@ args = 56, pretend = 16, frame = 0
 687              		@ frame_needed = 0, uses_anonymous_args = 0
 268:Drivers/STM32L4xx_HAL_Driver/Src/stm32l4xx_ll_usb.c ****   HAL_StatusTypeDef ret = HAL_OK;
 688              		.loc 1 268 1 is_stmt 0 view .LVU195
 689 0000 84B0     		sub	sp, sp, #16
 690              		.cfi_def_cfa_offset 16
 691 0002 2DE9F041 		push	{r4, r5, r6, r7, r8, lr}
 692              		.cfi_def_cfa_offset 40
 693              		.cfi_offset 4, -40
 694              		.cfi_offset 5, -36
 695              		.cfi_offset 6, -32
 696              		.cfi_offset 7, -28
 697              		.cfi_offset 8, -24
 698              		.cfi_offset 14, -20
 699 0006 0446     		mov	r4, r0
 700 0008 07A8     		add	r0, sp, #28
 701              	.LVL36:
 268:Drivers/STM32L4xx_HAL_Driver/Src/stm32l4xx_ll_usb.c ****   HAL_StatusTypeDef ret = HAL_OK;
 702              		.loc 1 268 1 view .LVU196
 703 000a 80E80E00 		stm	r0, {r1, r2, r3}
 269:Drivers/STM32L4xx_HAL_Driver/Src/stm32l4xx_ll_usb.c ****   uint32_t USBx_BASE = (uint32_t)USBx;
 704              		.loc 1 269 3 is_stmt 1 view .LVU197
 705              	.LVL37:
 270:Drivers/STM32L4xx_HAL_Driver/Src/stm32l4xx_ll_usb.c ****   uint32_t i;
 706              		.loc 1 270 3 view .LVU198
 271:Drivers/STM32L4xx_HAL_Driver/Src/stm32l4xx_ll_usb.c **** 
 707              		.loc 1 271 3 view .LVU199
 273:Drivers/STM32L4xx_HAL_Driver/Src/stm32l4xx_ll_usb.c ****   {
 708              		.loc 1 273 3 view .LVU200
 273:Drivers/STM32L4xx_HAL_Driver/Src/stm32l4xx_ll_usb.c ****   {
 709              		.loc 1 273 10 is_stmt 0 view .LVU201
 710 000e 0023     		movs	r3, #0
 273:Drivers/STM32L4xx_HAL_Driver/Src/stm32l4xx_ll_usb.c ****   {
 711              		.loc 1 273 3 view .LVU202
 712 0010 06E0     		b	.L51
 713              	.LVL38:
 714              	.L52:
 275:Drivers/STM32L4xx_HAL_Driver/Src/stm32l4xx_ll_usb.c ****   }
 715              		.loc 1 275 5 is_stmt 1 discriminator 3 view .LVU203
 275:Drivers/STM32L4xx_HAL_Driver/Src/stm32l4xx_ll_usb.c ****   }
 716              		.loc 1 275 22 is_stmt 0 discriminator 3 view .LVU204
 717 0012 03F14002 		add	r2, r3, #64
 718 0016 04EB8202 		add	r2, r4, r2, lsl #2
 719 001a 0021     		movs	r1, #0
 720 001c 5160     		str	r1, [r2, #4]
 273:Drivers/STM32L4xx_HAL_Driver/Src/stm32l4xx_ll_usb.c ****   {
 721              		.loc 1 273 26 is_stmt 1 discriminator 3 view .LVU205
 722 001e 0133     		adds	r3, r3, #1
 723              	.LVL39:
 724              	.L51:
 273:Drivers/STM32L4xx_HAL_Driver/Src/stm32l4xx_ll_usb.c ****   {
 725              		.loc 1 273 18 discriminator 1 view .LVU206
 726 0020 0E2B     		cmp	r3, #14
 727 0022 F6D9     		bls	.L52
 279:Drivers/STM32L4xx_HAL_Driver/Src/stm32l4xx_ll_usb.c ****   {
 728              		.loc 1 279 3 view .LVU207
 279:Drivers/STM32L4xx_HAL_Driver/Src/stm32l4xx_ll_usb.c ****   {
ARM GAS  /tmp/ccdWnOQF.s 			page 40


 729              		.loc 1 279 10 is_stmt 0 view .LVU208
 730 0024 119F     		ldr	r7, [sp, #68]
 279:Drivers/STM32L4xx_HAL_Driver/Src/stm32l4xx_ll_usb.c ****   {
 731              		.loc 1 279 6 view .LVU209
 732 0026 8FBB     		cbnz	r7, .L53
 281:Drivers/STM32L4xx_HAL_Driver/Src/stm32l4xx_ll_usb.c **** 
 733              		.loc 1 281 5 is_stmt 1 view .LVU210
 281:Drivers/STM32L4xx_HAL_Driver/Src/stm32l4xx_ll_usb.c **** 
 734              		.loc 1 281 16 is_stmt 0 view .LVU211
 735 0028 D4F80438 		ldr	r3, [r4, #2052]
 736              	.LVL40:
 281:Drivers/STM32L4xx_HAL_Driver/Src/stm32l4xx_ll_usb.c **** 
 737              		.loc 1 281 23 view .LVU212
 738 002c 43F00203 		orr	r3, r3, #2
 739 0030 C4F80438 		str	r3, [r4, #2052]
 284:Drivers/STM32L4xx_HAL_Driver/Src/stm32l4xx_ll_usb.c **** 
 740              		.loc 1 284 5 is_stmt 1 view .LVU213
 284:Drivers/STM32L4xx_HAL_Driver/Src/stm32l4xx_ll_usb.c **** 
 741              		.loc 1 284 9 is_stmt 0 view .LVU214
 742 0034 A36B     		ldr	r3, [r4, #56]
 284:Drivers/STM32L4xx_HAL_Driver/Src/stm32l4xx_ll_usb.c **** 
 743              		.loc 1 284 17 view .LVU215
 744 0036 23F40013 		bic	r3, r3, #2097152
 745 003a A363     		str	r3, [r4, #56]
 287:Drivers/STM32L4xx_HAL_Driver/Src/stm32l4xx_ll_usb.c ****     USBx->GOTGCTL |= USB_OTG_GOTGCTL_BVALOVAL;
 746              		.loc 1 287 5 is_stmt 1 view .LVU216
 287:Drivers/STM32L4xx_HAL_Driver/Src/stm32l4xx_ll_usb.c ****     USBx->GOTGCTL |= USB_OTG_GOTGCTL_BVALOVAL;
 747              		.loc 1 287 9 is_stmt 0 view .LVU217
 748 003c 2368     		ldr	r3, [r4]
 287:Drivers/STM32L4xx_HAL_Driver/Src/stm32l4xx_ll_usb.c ****     USBx->GOTGCTL |= USB_OTG_GOTGCTL_BVALOVAL;
 749              		.loc 1 287 19 view .LVU218
 750 003e 43F04003 		orr	r3, r3, #64
 751 0042 2360     		str	r3, [r4]
 288:Drivers/STM32L4xx_HAL_Driver/Src/stm32l4xx_ll_usb.c ****   }
 752              		.loc 1 288 5 is_stmt 1 view .LVU219
 288:Drivers/STM32L4xx_HAL_Driver/Src/stm32l4xx_ll_usb.c ****   }
 753              		.loc 1 288 9 is_stmt 0 view .LVU220
 754 0044 2368     		ldr	r3, [r4]
 288:Drivers/STM32L4xx_HAL_Driver/Src/stm32l4xx_ll_usb.c ****   }
 755              		.loc 1 288 19 view .LVU221
 756 0046 43F08003 		orr	r3, r3, #128
 757 004a 2360     		str	r3, [r4]
 758              	.L54:
 297:Drivers/STM32L4xx_HAL_Driver/Src/stm32l4xx_ll_usb.c **** 
 759              		.loc 1 297 3 is_stmt 1 view .LVU222
 297:Drivers/STM32L4xx_HAL_Driver/Src/stm32l4xx_ll_usb.c **** 
 760              		.loc 1 297 16 is_stmt 0 view .LVU223
 761 004c 0023     		movs	r3, #0
 762 004e C4F8003E 		str	r3, [r4, #3584]
 300:Drivers/STM32L4xx_HAL_Driver/Src/stm32l4xx_ll_usb.c **** 
 763              		.loc 1 300 3 is_stmt 1 view .LVU224
 300:Drivers/STM32L4xx_HAL_Driver/Src/stm32l4xx_ll_usb.c **** 
 764              		.loc 1 300 14 is_stmt 0 view .LVU225
 765 0052 04F50065 		add	r5, r4, #2048
 766 0056 D4F80038 		ldr	r3, [r4, #2048]
 300:Drivers/STM32L4xx_HAL_Driver/Src/stm32l4xx_ll_usb.c **** 
 767              		.loc 1 300 21 view .LVU226
ARM GAS  /tmp/ccdWnOQF.s 			page 41


 768 005a C4F80038 		str	r3, [r4, #2048]
 303:Drivers/STM32L4xx_HAL_Driver/Src/stm32l4xx_ll_usb.c **** 
 769              		.loc 1 303 3 is_stmt 1 view .LVU227
 303:Drivers/STM32L4xx_HAL_Driver/Src/stm32l4xx_ll_usb.c **** 
 770              		.loc 1 303 9 is_stmt 0 view .LVU228
 771 005e 0321     		movs	r1, #3
 772 0060 2046     		mov	r0, r4
 773 0062 FFF7FEFF 		bl	USB_SetDevSpeed
 774              	.LVL41:
 306:Drivers/STM32L4xx_HAL_Driver/Src/stm32l4xx_ll_usb.c ****   {
 775              		.loc 1 306 3 is_stmt 1 view .LVU229
 306:Drivers/STM32L4xx_HAL_Driver/Src/stm32l4xx_ll_usb.c ****   {
 776              		.loc 1 306 7 is_stmt 0 view .LVU230
 777 0066 1021     		movs	r1, #16
 778 0068 2046     		mov	r0, r4
 779 006a FFF7FEFF 		bl	USB_FlushTxFifo
 780              	.LVL42:
 306:Drivers/STM32L4xx_HAL_Driver/Src/stm32l4xx_ll_usb.c ****   {
 781              		.loc 1 306 6 view .LVU231
 782 006e 8046     		mov	r8, r0
 783 0070 08B1     		cbz	r0, .L55
 308:Drivers/STM32L4xx_HAL_Driver/Src/stm32l4xx_ll_usb.c ****   }
 784              		.loc 1 308 9 view .LVU232
 785 0072 4FF00108 		mov	r8, #1
 786              	.L55:
 787              	.LVL43:
 311:Drivers/STM32L4xx_HAL_Driver/Src/stm32l4xx_ll_usb.c ****   {
 788              		.loc 1 311 3 is_stmt 1 view .LVU233
 311:Drivers/STM32L4xx_HAL_Driver/Src/stm32l4xx_ll_usb.c ****   {
 789              		.loc 1 311 7 is_stmt 0 view .LVU234
 790 0076 2046     		mov	r0, r4
 791 0078 FFF7FEFF 		bl	USB_FlushRxFifo
 792              	.LVL44:
 311:Drivers/STM32L4xx_HAL_Driver/Src/stm32l4xx_ll_usb.c ****   {
 793              		.loc 1 311 6 view .LVU235
 794 007c 08B1     		cbz	r0, .L56
 313:Drivers/STM32L4xx_HAL_Driver/Src/stm32l4xx_ll_usb.c ****   }
 795              		.loc 1 313 9 view .LVU236
 796 007e 4FF00108 		mov	r8, #1
 797              	.LVL45:
 798              	.L56:
 317:Drivers/STM32L4xx_HAL_Driver/Src/stm32l4xx_ll_usb.c ****   USBx_DEVICE->DOEPMSK = 0U;
 799              		.loc 1 317 3 is_stmt 1 view .LVU237
 317:Drivers/STM32L4xx_HAL_Driver/Src/stm32l4xx_ll_usb.c ****   USBx_DEVICE->DOEPMSK = 0U;
 800              		.loc 1 317 24 is_stmt 0 view .LVU238
 801 0082 0023     		movs	r3, #0
 802 0084 2B61     		str	r3, [r5, #16]
 318:Drivers/STM32L4xx_HAL_Driver/Src/stm32l4xx_ll_usb.c ****   USBx_DEVICE->DAINTMSK = 0U;
 803              		.loc 1 318 3 is_stmt 1 view .LVU239
 318:Drivers/STM32L4xx_HAL_Driver/Src/stm32l4xx_ll_usb.c ****   USBx_DEVICE->DAINTMSK = 0U;
 804              		.loc 1 318 24 is_stmt 0 view .LVU240
 805 0086 6B61     		str	r3, [r5, #20]
 319:Drivers/STM32L4xx_HAL_Driver/Src/stm32l4xx_ll_usb.c **** 
 806              		.loc 1 319 3 is_stmt 1 view .LVU241
 319:Drivers/STM32L4xx_HAL_Driver/Src/stm32l4xx_ll_usb.c **** 
 807              		.loc 1 319 25 is_stmt 0 view .LVU242
 808 0088 EB61     		str	r3, [r5, #28]
ARM GAS  /tmp/ccdWnOQF.s 			page 42


 321:Drivers/STM32L4xx_HAL_Driver/Src/stm32l4xx_ll_usb.c ****   {
 809              		.loc 1 321 3 is_stmt 1 view .LVU243
 810              	.LVL46:
 321:Drivers/STM32L4xx_HAL_Driver/Src/stm32l4xx_ll_usb.c ****   {
 811              		.loc 1 321 3 is_stmt 0 view .LVU244
 812 008a 0FE0     		b	.L57
 813              	.LVL47:
 814              	.L53:
 293:Drivers/STM32L4xx_HAL_Driver/Src/stm32l4xx_ll_usb.c ****   }
 815              		.loc 1 293 5 is_stmt 1 view .LVU245
 293:Drivers/STM32L4xx_HAL_Driver/Src/stm32l4xx_ll_usb.c ****   }
 816              		.loc 1 293 9 is_stmt 0 view .LVU246
 817 008c A36B     		ldr	r3, [r4, #56]
 818              	.LVL48:
 293:Drivers/STM32L4xx_HAL_Driver/Src/stm32l4xx_ll_usb.c ****   }
 819              		.loc 1 293 17 view .LVU247
 820 008e 43F40013 		orr	r3, r3, #2097152
 821 0092 A363     		str	r3, [r4, #56]
 822 0094 DAE7     		b	.L54
 823              	.LVL49:
 824              	.L73:
 325:Drivers/STM32L4xx_HAL_Driver/Src/stm32l4xx_ll_usb.c ****       {
 825              		.loc 1 325 7 is_stmt 1 view .LVU248
 325:Drivers/STM32L4xx_HAL_Driver/Src/stm32l4xx_ll_usb.c ****       {
 826              		.loc 1 325 10 is_stmt 0 view .LVU249
 827 0096 C3B9     		cbnz	r3, .L59
 327:Drivers/STM32L4xx_HAL_Driver/Src/stm32l4xx_ll_usb.c ****       }
 828              		.loc 1 327 9 is_stmt 1 view .LVU250
 327:Drivers/STM32L4xx_HAL_Driver/Src/stm32l4xx_ll_usb.c ****       }
 829              		.loc 1 327 31 is_stmt 0 view .LVU251
 830 0098 4FF00060 		mov	r0, #134217728
 831 009c C2F80009 		str	r0, [r2, #2304]
 832              	.L60:
 339:Drivers/STM32L4xx_HAL_Driver/Src/stm32l4xx_ll_usb.c ****     USBx_INEP(i)->DIEPINT  = 0xFB7FU;
 833              		.loc 1 339 5 is_stmt 1 discriminator 2 view .LVU252
 339:Drivers/STM32L4xx_HAL_Driver/Src/stm32l4xx_ll_usb.c ****     USBx_INEP(i)->DIEPINT  = 0xFB7FU;
 834              		.loc 1 339 28 is_stmt 0 discriminator 2 view .LVU253
 835 00a0 0022     		movs	r2, #0
 836 00a2 0A61     		str	r2, [r1, #16]
 340:Drivers/STM32L4xx_HAL_Driver/Src/stm32l4xx_ll_usb.c ****   }
 837              		.loc 1 340 5 is_stmt 1 discriminator 2 view .LVU254
 340:Drivers/STM32L4xx_HAL_Driver/Src/stm32l4xx_ll_usb.c ****   }
 838              		.loc 1 340 28 is_stmt 0 discriminator 2 view .LVU255
 839 00a4 4FF67F32 		movw	r2, #64383
 840 00a8 8A60     		str	r2, [r1, #8]
 321:Drivers/STM32L4xx_HAL_Driver/Src/stm32l4xx_ll_usb.c ****   {
 841              		.loc 1 321 40 is_stmt 1 discriminator 2 view .LVU256
 842 00aa 0133     		adds	r3, r3, #1
 843              	.LVL50:
 844              	.L57:
 321:Drivers/STM32L4xx_HAL_Driver/Src/stm32l4xx_ll_usb.c ****   {
 845              		.loc 1 321 18 discriminator 1 view .LVU257
 321:Drivers/STM32L4xx_HAL_Driver/Src/stm32l4xx_ll_usb.c ****   {
 846              		.loc 1 321 23 is_stmt 0 discriminator 1 view .LVU258
 847 00ac 0799     		ldr	r1, [sp, #28]
 321:Drivers/STM32L4xx_HAL_Driver/Src/stm32l4xx_ll_usb.c ****   {
 848              		.loc 1 321 18 discriminator 1 view .LVU259
ARM GAS  /tmp/ccdWnOQF.s 			page 43


 849 00ae 9942     		cmp	r1, r3
 850 00b0 10D9     		bls	.L72
 323:Drivers/STM32L4xx_HAL_Driver/Src/stm32l4xx_ll_usb.c ****     {
 851              		.loc 1 323 5 is_stmt 1 view .LVU260
 323:Drivers/STM32L4xx_HAL_Driver/Src/stm32l4xx_ll_usb.c ****     {
 852              		.loc 1 323 10 is_stmt 0 view .LVU261
 853 00b2 04EB4312 		add	r2, r4, r3, lsl #5
 854 00b6 02F51061 		add	r1, r2, #2304
 323:Drivers/STM32L4xx_HAL_Driver/Src/stm32l4xx_ll_usb.c ****     {
 855              		.loc 1 323 22 view .LVU262
 856 00ba D2F80009 		ldr	r0, [r2, #2304]
 323:Drivers/STM32L4xx_HAL_Driver/Src/stm32l4xx_ll_usb.c ****     {
 857              		.loc 1 323 8 view .LVU263
 858 00be 0028     		cmp	r0, #0
 859 00c0 E9DB     		blt	.L73
 336:Drivers/STM32L4xx_HAL_Driver/Src/stm32l4xx_ll_usb.c ****     }
 860              		.loc 1 336 7 is_stmt 1 view .LVU264
 336:Drivers/STM32L4xx_HAL_Driver/Src/stm32l4xx_ll_usb.c ****     }
 861              		.loc 1 336 29 is_stmt 0 view .LVU265
 862 00c2 0020     		movs	r0, #0
 863 00c4 C2F80009 		str	r0, [r2, #2304]
 864 00c8 EAE7     		b	.L60
 865              	.L59:
 331:Drivers/STM32L4xx_HAL_Driver/Src/stm32l4xx_ll_usb.c ****       }
 866              		.loc 1 331 9 is_stmt 1 view .LVU266
 331:Drivers/STM32L4xx_HAL_Driver/Src/stm32l4xx_ll_usb.c ****       }
 867              		.loc 1 331 31 is_stmt 0 view .LVU267
 868 00ca 4FF09040 		mov	r0, #1207959552
 869 00ce C2F80009 		str	r0, [r2, #2304]
 870 00d2 E5E7     		b	.L60
 871              	.L72:
 343:Drivers/STM32L4xx_HAL_Driver/Src/stm32l4xx_ll_usb.c ****   {
 872              		.loc 1 343 10 view .LVU268
 873 00d4 0023     		movs	r3, #0
 874              	.LVL51:
 343:Drivers/STM32L4xx_HAL_Driver/Src/stm32l4xx_ll_usb.c ****   {
 875              		.loc 1 343 10 view .LVU269
 876 00d6 0AE0     		b	.L62
 877              	.LVL52:
 878              	.L76:
 347:Drivers/STM32L4xx_HAL_Driver/Src/stm32l4xx_ll_usb.c ****       {
 879              		.loc 1 347 7 is_stmt 1 view .LVU270
 347:Drivers/STM32L4xx_HAL_Driver/Src/stm32l4xx_ll_usb.c ****       {
 880              		.loc 1 347 10 is_stmt 0 view .LVU271
 881 00d8 C3B1     		cbz	r3, .L74
 353:Drivers/STM32L4xx_HAL_Driver/Src/stm32l4xx_ll_usb.c ****       }
 882              		.loc 1 353 9 is_stmt 1 view .LVU272
 353:Drivers/STM32L4xx_HAL_Driver/Src/stm32l4xx_ll_usb.c ****       }
 883              		.loc 1 353 32 is_stmt 0 view .LVU273
 884 00da 4FF0904C 		mov	ip, #1207959552
 885 00de C2F800CB 		str	ip, [r2, #2816]
 886              	.L65:
 361:Drivers/STM32L4xx_HAL_Driver/Src/stm32l4xx_ll_usb.c ****     USBx_OUTEP(i)->DOEPINT  = 0xFB7FU;
 887              		.loc 1 361 5 is_stmt 1 discriminator 2 view .LVU274
 361:Drivers/STM32L4xx_HAL_Driver/Src/stm32l4xx_ll_usb.c ****     USBx_OUTEP(i)->DOEPINT  = 0xFB7FU;
 888              		.loc 1 361 29 is_stmt 0 discriminator 2 view .LVU275
 889 00e2 0022     		movs	r2, #0
ARM GAS  /tmp/ccdWnOQF.s 			page 44


 890 00e4 0261     		str	r2, [r0, #16]
 362:Drivers/STM32L4xx_HAL_Driver/Src/stm32l4xx_ll_usb.c ****   }
 891              		.loc 1 362 5 is_stmt 1 discriminator 2 view .LVU276
 362:Drivers/STM32L4xx_HAL_Driver/Src/stm32l4xx_ll_usb.c ****   }
 892              		.loc 1 362 29 is_stmt 0 discriminator 2 view .LVU277
 893 00e6 4FF67F32 		movw	r2, #64383
 894 00ea 8260     		str	r2, [r0, #8]
 343:Drivers/STM32L4xx_HAL_Driver/Src/stm32l4xx_ll_usb.c ****   {
 895              		.loc 1 343 40 is_stmt 1 discriminator 2 view .LVU278
 896 00ec 0133     		adds	r3, r3, #1
 897              	.LVL53:
 898              	.L62:
 343:Drivers/STM32L4xx_HAL_Driver/Src/stm32l4xx_ll_usb.c ****   {
 899              		.loc 1 343 18 discriminator 1 view .LVU279
 900 00ee 9942     		cmp	r1, r3
 901 00f0 11D9     		bls	.L75
 345:Drivers/STM32L4xx_HAL_Driver/Src/stm32l4xx_ll_usb.c ****     {
 902              		.loc 1 345 5 view .LVU280
 345:Drivers/STM32L4xx_HAL_Driver/Src/stm32l4xx_ll_usb.c ****     {
 903              		.loc 1 345 10 is_stmt 0 view .LVU281
 904 00f2 04EB4312 		add	r2, r4, r3, lsl #5
 905 00f6 02F53060 		add	r0, r2, #2816
 345:Drivers/STM32L4xx_HAL_Driver/Src/stm32l4xx_ll_usb.c ****     {
 906              		.loc 1 345 23 view .LVU282
 907 00fa D2F8006B 		ldr	r6, [r2, #2816]
 345:Drivers/STM32L4xx_HAL_Driver/Src/stm32l4xx_ll_usb.c ****     {
 908              		.loc 1 345 8 view .LVU283
 909 00fe 002E     		cmp	r6, #0
 910 0100 EADB     		blt	.L76
 358:Drivers/STM32L4xx_HAL_Driver/Src/stm32l4xx_ll_usb.c ****     }
 911              		.loc 1 358 7 is_stmt 1 view .LVU284
 358:Drivers/STM32L4xx_HAL_Driver/Src/stm32l4xx_ll_usb.c ****     }
 912              		.loc 1 358 30 is_stmt 0 view .LVU285
 913 0102 4FF0000C 		mov	ip, #0
 914 0106 C2F800CB 		str	ip, [r2, #2816]
 915 010a EAE7     		b	.L65
 916              	.L74:
 349:Drivers/STM32L4xx_HAL_Driver/Src/stm32l4xx_ll_usb.c ****       }
 917              		.loc 1 349 9 is_stmt 1 view .LVU286
 349:Drivers/STM32L4xx_HAL_Driver/Src/stm32l4xx_ll_usb.c ****       }
 918              		.loc 1 349 32 is_stmt 0 view .LVU287
 919 010c 4FF0006C 		mov	ip, #134217728
 920 0110 C2F800CB 		str	ip, [r2, #2816]
 921 0114 E5E7     		b	.L65
 922              	.L75:
 365:Drivers/STM32L4xx_HAL_Driver/Src/stm32l4xx_ll_usb.c **** 
 923              		.loc 1 365 3 is_stmt 1 view .LVU288
 365:Drivers/STM32L4xx_HAL_Driver/Src/stm32l4xx_ll_usb.c **** 
 924              		.loc 1 365 14 is_stmt 0 view .LVU289
 925 0116 2B69     		ldr	r3, [r5, #16]
 926              	.LVL54:
 365:Drivers/STM32L4xx_HAL_Driver/Src/stm32l4xx_ll_usb.c **** 
 927              		.loc 1 365 24 view .LVU290
 928 0118 23F48073 		bic	r3, r3, #256
 929 011c 2B61     		str	r3, [r5, #16]
 368:Drivers/STM32L4xx_HAL_Driver/Src/stm32l4xx_ll_usb.c **** 
 930              		.loc 1 368 3 is_stmt 1 view .LVU291
ARM GAS  /tmp/ccdWnOQF.s 			page 45


 368:Drivers/STM32L4xx_HAL_Driver/Src/stm32l4xx_ll_usb.c **** 
 931              		.loc 1 368 17 is_stmt 0 view .LVU292
 932 011e 0023     		movs	r3, #0
 933 0120 A361     		str	r3, [r4, #24]
 371:Drivers/STM32L4xx_HAL_Driver/Src/stm32l4xx_ll_usb.c **** 
 934              		.loc 1 371 3 is_stmt 1 view .LVU293
 371:Drivers/STM32L4xx_HAL_Driver/Src/stm32l4xx_ll_usb.c **** 
 935              		.loc 1 371 17 is_stmt 0 view .LVU294
 936 0122 6FF08043 		mvn	r3, #1073741824
 937 0126 6361     		str	r3, [r4, #20]
 374:Drivers/STM32L4xx_HAL_Driver/Src/stm32l4xx_ll_usb.c **** 
 938              		.loc 1 374 3 is_stmt 1 view .LVU295
 374:Drivers/STM32L4xx_HAL_Driver/Src/stm32l4xx_ll_usb.c **** 
 939              		.loc 1 374 7 is_stmt 0 view .LVU296
 940 0128 A369     		ldr	r3, [r4, #24]
 374:Drivers/STM32L4xx_HAL_Driver/Src/stm32l4xx_ll_usb.c **** 
 941              		.loc 1 374 17 view .LVU297
 942 012a 43F01003 		orr	r3, r3, #16
 943 012e A361     		str	r3, [r4, #24]
 377:Drivers/STM32L4xx_HAL_Driver/Src/stm32l4xx_ll_usb.c ****                    USB_OTG_GINTMSK_ENUMDNEM | USB_OTG_GINTMSK_IEPINT |
 944              		.loc 1 377 3 is_stmt 1 view .LVU298
 377:Drivers/STM32L4xx_HAL_Driver/Src/stm32l4xx_ll_usb.c ****                    USB_OTG_GINTMSK_ENUMDNEM | USB_OTG_GINTMSK_IEPINT |
 945              		.loc 1 377 7 is_stmt 0 view .LVU299
 946 0130 A269     		ldr	r2, [r4, #24]
 377:Drivers/STM32L4xx_HAL_Driver/Src/stm32l4xx_ll_usb.c ****                    USB_OTG_GINTMSK_ENUMDNEM | USB_OTG_GINTMSK_IEPINT |
 947              		.loc 1 377 17 view .LVU300
 948 0132 0B4B     		ldr	r3, .L78
 949 0134 1343     		orrs	r3, r3, r2
 950 0136 A361     		str	r3, [r4, #24]
 382:Drivers/STM32L4xx_HAL_Driver/Src/stm32l4xx_ll_usb.c ****   {
 951              		.loc 1 382 3 is_stmt 1 view .LVU301
 382:Drivers/STM32L4xx_HAL_Driver/Src/stm32l4xx_ll_usb.c ****   {
 952              		.loc 1 382 10 is_stmt 0 view .LVU302
 953 0138 0D9B     		ldr	r3, [sp, #52]
 382:Drivers/STM32L4xx_HAL_Driver/Src/stm32l4xx_ll_usb.c ****   {
 954              		.loc 1 382 6 view .LVU303
 955 013a 1BB1     		cbz	r3, .L67
 384:Drivers/STM32L4xx_HAL_Driver/Src/stm32l4xx_ll_usb.c ****   }
 956              		.loc 1 384 5 is_stmt 1 view .LVU304
 384:Drivers/STM32L4xx_HAL_Driver/Src/stm32l4xx_ll_usb.c ****   }
 957              		.loc 1 384 9 is_stmt 0 view .LVU305
 958 013c A369     		ldr	r3, [r4, #24]
 384:Drivers/STM32L4xx_HAL_Driver/Src/stm32l4xx_ll_usb.c ****   }
 959              		.loc 1 384 19 view .LVU306
 960 013e 43F00803 		orr	r3, r3, #8
 961 0142 A361     		str	r3, [r4, #24]
 962              	.L67:
 387:Drivers/STM32L4xx_HAL_Driver/Src/stm32l4xx_ll_usb.c ****   {
 963              		.loc 1 387 3 is_stmt 1 view .LVU307
 387:Drivers/STM32L4xx_HAL_Driver/Src/stm32l4xx_ll_usb.c ****   {
 964              		.loc 1 387 6 is_stmt 0 view .LVU308
 965 0144 012F     		cmp	r7, #1
 966 0146 04D0     		beq	.L77
 967              	.L68:
 392:Drivers/STM32L4xx_HAL_Driver/Src/stm32l4xx_ll_usb.c **** }
 968              		.loc 1 392 3 is_stmt 1 view .LVU309
 393:Drivers/STM32L4xx_HAL_Driver/Src/stm32l4xx_ll_usb.c **** 
ARM GAS  /tmp/ccdWnOQF.s 			page 46


 969              		.loc 1 393 1 is_stmt 0 view .LVU310
 970 0148 4046     		mov	r0, r8
 971 014a BDE8F041 		pop	{r4, r5, r6, r7, r8, lr}
 972              		.cfi_remember_state
 973              		.cfi_restore 14
 974              		.cfi_restore 8
 975              		.cfi_restore 7
 976              		.cfi_restore 6
 977              		.cfi_restore 5
 978              		.cfi_restore 4
 979              		.cfi_def_cfa_offset 16
 980              	.LVL55:
 393:Drivers/STM32L4xx_HAL_Driver/Src/stm32l4xx_ll_usb.c **** 
 981              		.loc 1 393 1 view .LVU311
 982 014e 04B0     		add	sp, sp, #16
 983              		.cfi_def_cfa_offset 0
 984 0150 7047     		bx	lr
 985              	.LVL56:
 986              	.L77:
 987              		.cfi_restore_state
 389:Drivers/STM32L4xx_HAL_Driver/Src/stm32l4xx_ll_usb.c ****   }
 988              		.loc 1 389 5 is_stmt 1 view .LVU312
 389:Drivers/STM32L4xx_HAL_Driver/Src/stm32l4xx_ll_usb.c ****   }
 989              		.loc 1 389 9 is_stmt 0 view .LVU313
 990 0152 A369     		ldr	r3, [r4, #24]
 389:Drivers/STM32L4xx_HAL_Driver/Src/stm32l4xx_ll_usb.c ****   }
 991              		.loc 1 389 19 view .LVU314
 992 0154 43F08043 		orr	r3, r3, #1073741824
 993 0158 43F00403 		orr	r3, r3, #4
 994 015c A361     		str	r3, [r4, #24]
 995 015e F3E7     		b	.L68
 996              	.L79:
 997              		.align	2
 998              	.L78:
 999 0160 00383C80 		.word	-2143537152
 1000              		.cfi_endproc
 1001              	.LFE137:
 1003              		.section	.text.USB_GetDevSpeed,"ax",%progbits
 1004              		.align	1
 1005              		.global	USB_GetDevSpeed
 1006              		.syntax unified
 1007              		.thumb
 1008              		.thumb_func
 1010              	USB_GetDevSpeed:
 1011              	.LVL57:
 1012              	.LFB141:
 497:Drivers/STM32L4xx_HAL_Driver/Src/stm32l4xx_ll_usb.c ****   uint32_t USBx_BASE = (uint32_t)USBx;
 1013              		.loc 1 497 1 is_stmt 1 view -0
 1014              		.cfi_startproc
 1015              		@ args = 0, pretend = 0, frame = 0
 1016              		@ frame_needed = 0, uses_anonymous_args = 0
 1017              		@ link register save eliminated.
 498:Drivers/STM32L4xx_HAL_Driver/Src/stm32l4xx_ll_usb.c ****   uint8_t speed;
 1018              		.loc 1 498 3 view .LVU316
 499:Drivers/STM32L4xx_HAL_Driver/Src/stm32l4xx_ll_usb.c ****   uint32_t DevEnumSpeed = USBx_DEVICE->DSTS & USB_OTG_DSTS_ENUMSPD;
 1019              		.loc 1 499 3 view .LVU317
 500:Drivers/STM32L4xx_HAL_Driver/Src/stm32l4xx_ll_usb.c **** 
ARM GAS  /tmp/ccdWnOQF.s 			page 47


 1020              		.loc 1 500 3 view .LVU318
 500:Drivers/STM32L4xx_HAL_Driver/Src/stm32l4xx_ll_usb.c **** 
 1021              		.loc 1 500 38 is_stmt 0 view .LVU319
 1022 0000 D0F80838 		ldr	r3, [r0, #2056]
 500:Drivers/STM32L4xx_HAL_Driver/Src/stm32l4xx_ll_usb.c **** 
 1023              		.loc 1 500 12 view .LVU320
 1024 0004 03F00603 		and	r3, r3, #6
 1025              	.LVL58:
 502:Drivers/STM32L4xx_HAL_Driver/Src/stm32l4xx_ll_usb.c ****       (DevEnumSpeed == DSTS_ENUMSPD_FS_PHY_48MHZ))
 1026              		.loc 1 502 3 is_stmt 1 view .LVU321
 502:Drivers/STM32L4xx_HAL_Driver/Src/stm32l4xx_ll_usb.c ****       (DevEnumSpeed == DSTS_ENUMSPD_FS_PHY_48MHZ))
 1027              		.loc 1 502 6 is_stmt 0 view .LVU322
 1028 0008 022B     		cmp	r3, #2
 1029 000a 05D0     		beq	.L82
 502:Drivers/STM32L4xx_HAL_Driver/Src/stm32l4xx_ll_usb.c ****       (DevEnumSpeed == DSTS_ENUMSPD_FS_PHY_48MHZ))
 1030              		.loc 1 502 60 discriminator 1 view .LVU323
 1031 000c 062B     		cmp	r3, #6
 1032 000e 01D0     		beq	.L84
 509:Drivers/STM32L4xx_HAL_Driver/Src/stm32l4xx_ll_usb.c ****   }
 1033              		.loc 1 509 11 view .LVU324
 1034 0010 0F20     		movs	r0, #15
 1035              	.LVL59:
 512:Drivers/STM32L4xx_HAL_Driver/Src/stm32l4xx_ll_usb.c **** }
 1036              		.loc 1 512 3 is_stmt 1 view .LVU325
 513:Drivers/STM32L4xx_HAL_Driver/Src/stm32l4xx_ll_usb.c **** 
 1037              		.loc 1 513 1 is_stmt 0 view .LVU326
 1038 0012 7047     		bx	lr
 1039              	.LVL60:
 1040              	.L84:
 505:Drivers/STM32L4xx_HAL_Driver/Src/stm32l4xx_ll_usb.c ****   }
 1041              		.loc 1 505 11 view .LVU327
 1042 0014 0220     		movs	r0, #2
 1043              	.LVL61:
 505:Drivers/STM32L4xx_HAL_Driver/Src/stm32l4xx_ll_usb.c ****   }
 1044              		.loc 1 505 11 view .LVU328
 1045 0016 7047     		bx	lr
 1046              	.LVL62:
 1047              	.L82:
 505:Drivers/STM32L4xx_HAL_Driver/Src/stm32l4xx_ll_usb.c ****   }
 1048              		.loc 1 505 11 view .LVU329
 1049 0018 0220     		movs	r0, #2
 1050              	.LVL63:
 505:Drivers/STM32L4xx_HAL_Driver/Src/stm32l4xx_ll_usb.c ****   }
 1051              		.loc 1 505 11 view .LVU330
 1052 001a 7047     		bx	lr
 1053              		.cfi_endproc
 1054              	.LFE141:
 1056              		.section	.text.USB_ActivateEndpoint,"ax",%progbits
 1057              		.align	1
 1058              		.global	USB_ActivateEndpoint
 1059              		.syntax unified
 1060              		.thumb
 1061              		.thumb_func
 1063              	USB_ActivateEndpoint:
 1064              	.LVL64:
 1065              	.LFB142:
 522:Drivers/STM32L4xx_HAL_Driver/Src/stm32l4xx_ll_usb.c ****   uint32_t USBx_BASE = (uint32_t)USBx;
ARM GAS  /tmp/ccdWnOQF.s 			page 48


 1066              		.loc 1 522 1 is_stmt 1 view -0
 1067              		.cfi_startproc
 1068              		@ args = 0, pretend = 0, frame = 0
 1069              		@ frame_needed = 0, uses_anonymous_args = 0
 522:Drivers/STM32L4xx_HAL_Driver/Src/stm32l4xx_ll_usb.c ****   uint32_t USBx_BASE = (uint32_t)USBx;
 1070              		.loc 1 522 1 is_stmt 0 view .LVU332
 1071 0000 10B5     		push	{r4, lr}
 1072              		.cfi_def_cfa_offset 8
 1073              		.cfi_offset 4, -8
 1074              		.cfi_offset 14, -4
 523:Drivers/STM32L4xx_HAL_Driver/Src/stm32l4xx_ll_usb.c ****   uint32_t epnum = (uint32_t)ep->num;
 1075              		.loc 1 523 3 is_stmt 1 view .LVU333
 1076              	.LVL65:
 524:Drivers/STM32L4xx_HAL_Driver/Src/stm32l4xx_ll_usb.c **** 
 1077              		.loc 1 524 3 view .LVU334
 524:Drivers/STM32L4xx_HAL_Driver/Src/stm32l4xx_ll_usb.c **** 
 1078              		.loc 1 524 32 is_stmt 0 view .LVU335
 1079 0002 91F800C0 		ldrb	ip, [r1]	@ zero_extendqisi2
 1080              	.LVL66:
 526:Drivers/STM32L4xx_HAL_Driver/Src/stm32l4xx_ll_usb.c ****   {
 1081              		.loc 1 526 3 is_stmt 1 view .LVU336
 526:Drivers/STM32L4xx_HAL_Driver/Src/stm32l4xx_ll_usb.c ****   {
 1082              		.loc 1 526 9 is_stmt 0 view .LVU337
 1083 0006 4B78     		ldrb	r3, [r1, #1]	@ zero_extendqisi2
 526:Drivers/STM32L4xx_HAL_Driver/Src/stm32l4xx_ll_usb.c ****   {
 1084              		.loc 1 526 6 view .LVU338
 1085 0008 012B     		cmp	r3, #1
 1086 000a 23D0     		beq	.L89
 540:Drivers/STM32L4xx_HAL_Driver/Src/stm32l4xx_ll_usb.c **** 
 1087              		.loc 1 540 5 is_stmt 1 view .LVU339
 540:Drivers/STM32L4xx_HAL_Driver/Src/stm32l4xx_ll_usb.c **** 
 1088              		.loc 1 540 16 is_stmt 0 view .LVU340
 1089 000c 00F5006E 		add	lr, r0, #2048
 1090 0010 D0F81C38 		ldr	r3, [r0, #2076]
 540:Drivers/STM32L4xx_HAL_Driver/Src/stm32l4xx_ll_usb.c **** 
 1091              		.loc 1 540 82 view .LVU341
 1092 0014 0CF00F04 		and	r4, ip, #15
 540:Drivers/STM32L4xx_HAL_Driver/Src/stm32l4xx_ll_usb.c **** 
 1093              		.loc 1 540 55 view .LVU342
 1094 0018 0122     		movs	r2, #1
 1095 001a A240     		lsls	r2, r2, r4
 540:Drivers/STM32L4xx_HAL_Driver/Src/stm32l4xx_ll_usb.c **** 
 1096              		.loc 1 540 27 view .LVU343
 1097 001c 43EA0243 		orr	r3, r3, r2, lsl #16
 1098 0020 C0F81C38 		str	r3, [r0, #2076]
 542:Drivers/STM32L4xx_HAL_Driver/Src/stm32l4xx_ll_usb.c ****     {
 1099              		.loc 1 542 5 is_stmt 1 view .LVU344
 542:Drivers/STM32L4xx_HAL_Driver/Src/stm32l4xx_ll_usb.c ****     {
 1100              		.loc 1 542 11 is_stmt 0 view .LVU345
 1101 0024 00EB4C10 		add	r0, r0, ip, lsl #5
 1102              	.LVL67:
 542:Drivers/STM32L4xx_HAL_Driver/Src/stm32l4xx_ll_usb.c ****     {
 1103              		.loc 1 542 28 view .LVU346
 1104 0028 D0F8003B 		ldr	r3, [r0, #2816]
 542:Drivers/STM32L4xx_HAL_Driver/Src/stm32l4xx_ll_usb.c ****     {
 1105              		.loc 1 542 8 view .LVU347
 1106 002c 13F4004F 		tst	r3, #32768
ARM GAS  /tmp/ccdWnOQF.s 			page 49


 1107 0030 0ED1     		bne	.L87
 544:Drivers/STM32L4xx_HAL_Driver/Src/stm32l4xx_ll_usb.c ****                                     ((uint32_t)ep->type << 18) |
 1108              		.loc 1 544 7 is_stmt 1 view .LVU348
 544:Drivers/STM32L4xx_HAL_Driver/Src/stm32l4xx_ll_usb.c ****                                     ((uint32_t)ep->type << 18) |
 1109              		.loc 1 544 24 is_stmt 0 view .LVU349
 1110 0032 D0F8003B 		ldr	r3, [r0, #2816]
 544:Drivers/STM32L4xx_HAL_Driver/Src/stm32l4xx_ll_usb.c ****                                     ((uint32_t)ep->type << 18) |
 1111              		.loc 1 544 40 view .LVU350
 1112 0036 CA68     		ldr	r2, [r1, #12]
 544:Drivers/STM32L4xx_HAL_Driver/Src/stm32l4xx_ll_usb.c ****                                     ((uint32_t)ep->type << 18) |
 1113              		.loc 1 544 52 view .LVU351
 1114 0038 C2F30A02 		ubfx	r2, r2, #0, #11
 545:Drivers/STM32L4xx_HAL_Driver/Src/stm32l4xx_ll_usb.c ****                                     USB_OTG_DIEPCTL_SD0PID_SEVNFRM |
 1115              		.loc 1 545 50 view .LVU352
 1116 003c 0979     		ldrb	r1, [r1, #4]	@ zero_extendqisi2
 1117              	.LVL68:
 544:Drivers/STM32L4xx_HAL_Driver/Src/stm32l4xx_ll_usb.c ****                                     ((uint32_t)ep->type << 18) |
 1118              		.loc 1 544 77 view .LVU353
 1119 003e 42EA8142 		orr	r2, r2, r1, lsl #18
 544:Drivers/STM32L4xx_HAL_Driver/Src/stm32l4xx_ll_usb.c ****                                     ((uint32_t)ep->type << 18) |
 1120              		.loc 1 544 34 view .LVU354
 1121 0042 1343     		orrs	r3, r3, r2
 1122 0044 43F08053 		orr	r3, r3, #268435456
 1123 0048 43F40043 		orr	r3, r3, #32768
 1124 004c C0F8003B 		str	r3, [r0, #2816]
 1125              	.LVL69:
 1126              	.L87:
 550:Drivers/STM32L4xx_HAL_Driver/Src/stm32l4xx_ll_usb.c **** }
 1127              		.loc 1 550 3 is_stmt 1 view .LVU355
 551:Drivers/STM32L4xx_HAL_Driver/Src/stm32l4xx_ll_usb.c **** 
 1128              		.loc 1 551 1 is_stmt 0 view .LVU356
 1129 0050 0020     		movs	r0, #0
 1130 0052 10BD     		pop	{r4, pc}
 1131              	.LVL70:
 1132              	.L89:
 528:Drivers/STM32L4xx_HAL_Driver/Src/stm32l4xx_ll_usb.c **** 
 1133              		.loc 1 528 5 is_stmt 1 view .LVU357
 528:Drivers/STM32L4xx_HAL_Driver/Src/stm32l4xx_ll_usb.c **** 
 1134              		.loc 1 528 16 is_stmt 0 view .LVU358
 1135 0054 D0F81C28 		ldr	r2, [r0, #2076]
 528:Drivers/STM32L4xx_HAL_Driver/Src/stm32l4xx_ll_usb.c **** 
 1136              		.loc 1 528 81 view .LVU359
 1137 0058 0CF00F0E 		and	lr, ip, #15
 528:Drivers/STM32L4xx_HAL_Driver/Src/stm32l4xx_ll_usb.c **** 
 1138              		.loc 1 528 54 view .LVU360
 1139 005c 03FA0EF3 		lsl	r3, r3, lr
 528:Drivers/STM32L4xx_HAL_Driver/Src/stm32l4xx_ll_usb.c **** 
 1140              		.loc 1 528 52 view .LVU361
 1141 0060 9BB2     		uxth	r3, r3
 528:Drivers/STM32L4xx_HAL_Driver/Src/stm32l4xx_ll_usb.c **** 
 1142              		.loc 1 528 27 view .LVU362
 1143 0062 1343     		orrs	r3, r3, r2
 1144 0064 C0F81C38 		str	r3, [r0, #2076]
 530:Drivers/STM32L4xx_HAL_Driver/Src/stm32l4xx_ll_usb.c ****     {
 1145              		.loc 1 530 5 is_stmt 1 view .LVU363
 530:Drivers/STM32L4xx_HAL_Driver/Src/stm32l4xx_ll_usb.c ****     {
 1146              		.loc 1 530 10 is_stmt 0 view .LVU364
ARM GAS  /tmp/ccdWnOQF.s 			page 50


 1147 0068 00EB4C10 		add	r0, r0, ip, lsl #5
 1148              	.LVL71:
 530:Drivers/STM32L4xx_HAL_Driver/Src/stm32l4xx_ll_usb.c ****     {
 1149              		.loc 1 530 26 view .LVU365
 1150 006c D0F80039 		ldr	r3, [r0, #2304]
 530:Drivers/STM32L4xx_HAL_Driver/Src/stm32l4xx_ll_usb.c ****     {
 1151              		.loc 1 530 8 view .LVU366
 1152 0070 13F4004F 		tst	r3, #32768
 1153 0074 ECD1     		bne	.L87
 532:Drivers/STM32L4xx_HAL_Driver/Src/stm32l4xx_ll_usb.c ****                                    ((uint32_t)ep->type << 18) | (epnum << 22) |
 1154              		.loc 1 532 7 is_stmt 1 view .LVU367
 532:Drivers/STM32L4xx_HAL_Driver/Src/stm32l4xx_ll_usb.c ****                                    ((uint32_t)ep->type << 18) | (epnum << 22) |
 1155              		.loc 1 532 23 is_stmt 0 view .LVU368
 1156 0076 D0F80039 		ldr	r3, [r0, #2304]
 532:Drivers/STM32L4xx_HAL_Driver/Src/stm32l4xx_ll_usb.c ****                                    ((uint32_t)ep->type << 18) | (epnum << 22) |
 1157              		.loc 1 532 39 view .LVU369
 1158 007a CA68     		ldr	r2, [r1, #12]
 532:Drivers/STM32L4xx_HAL_Driver/Src/stm32l4xx_ll_usb.c ****                                    ((uint32_t)ep->type << 18) | (epnum << 22) |
 1159              		.loc 1 532 51 view .LVU370
 1160 007c C2F30A02 		ubfx	r2, r2, #0, #11
 533:Drivers/STM32L4xx_HAL_Driver/Src/stm32l4xx_ll_usb.c ****                                    USB_OTG_DIEPCTL_SD0PID_SEVNFRM |
 1161              		.loc 1 533 49 view .LVU371
 1162 0080 0979     		ldrb	r1, [r1, #4]	@ zero_extendqisi2
 1163              	.LVL72:
 532:Drivers/STM32L4xx_HAL_Driver/Src/stm32l4xx_ll_usb.c ****                                    ((uint32_t)ep->type << 18) | (epnum << 22) |
 1164              		.loc 1 532 76 view .LVU372
 1165 0082 42EA8142 		orr	r2, r2, r1, lsl #18
 533:Drivers/STM32L4xx_HAL_Driver/Src/stm32l4xx_ll_usb.c ****                                    USB_OTG_DIEPCTL_SD0PID_SEVNFRM |
 1166              		.loc 1 533 63 view .LVU373
 1167 0086 42EA8C52 		orr	r2, r2, ip, lsl #22
 532:Drivers/STM32L4xx_HAL_Driver/Src/stm32l4xx_ll_usb.c ****                                    ((uint32_t)ep->type << 18) | (epnum << 22) |
 1168              		.loc 1 532 33 view .LVU374
 1169 008a 1343     		orrs	r3, r3, r2
 1170 008c 43F08053 		orr	r3, r3, #268435456
 1171 0090 43F40043 		orr	r3, r3, #32768
 1172 0094 C0F80039 		str	r3, [r0, #2304]
 1173 0098 DAE7     		b	.L87
 1174              		.cfi_endproc
 1175              	.LFE142:
 1177              		.section	.text.USB_ActivateDedicatedEndpoint,"ax",%progbits
 1178              		.align	1
 1179              		.global	USB_ActivateDedicatedEndpoint
 1180              		.syntax unified
 1181              		.thumb
 1182              		.thumb_func
 1184              	USB_ActivateDedicatedEndpoint:
 1185              	.LVL73:
 1186              	.LFB143:
 560:Drivers/STM32L4xx_HAL_Driver/Src/stm32l4xx_ll_usb.c ****   uint32_t USBx_BASE = (uint32_t)USBx;
 1187              		.loc 1 560 1 is_stmt 1 view -0
 1188              		.cfi_startproc
 1189              		@ args = 0, pretend = 0, frame = 0
 1190              		@ frame_needed = 0, uses_anonymous_args = 0
 560:Drivers/STM32L4xx_HAL_Driver/Src/stm32l4xx_ll_usb.c ****   uint32_t USBx_BASE = (uint32_t)USBx;
 1191              		.loc 1 560 1 is_stmt 0 view .LVU376
 1192 0000 10B5     		push	{r4, lr}
 1193              		.cfi_def_cfa_offset 8
ARM GAS  /tmp/ccdWnOQF.s 			page 51


 1194              		.cfi_offset 4, -8
 1195              		.cfi_offset 14, -4
 561:Drivers/STM32L4xx_HAL_Driver/Src/stm32l4xx_ll_usb.c ****   uint32_t epnum = (uint32_t)ep->num;
 1196              		.loc 1 561 3 is_stmt 1 view .LVU377
 1197              	.LVL74:
 562:Drivers/STM32L4xx_HAL_Driver/Src/stm32l4xx_ll_usb.c **** 
 1198              		.loc 1 562 3 view .LVU378
 562:Drivers/STM32L4xx_HAL_Driver/Src/stm32l4xx_ll_usb.c **** 
 1199              		.loc 1 562 32 is_stmt 0 view .LVU379
 1200 0002 0A78     		ldrb	r2, [r1]	@ zero_extendqisi2
 1201              	.LVL75:
 565:Drivers/STM32L4xx_HAL_Driver/Src/stm32l4xx_ll_usb.c ****   {
 1202              		.loc 1 565 3 is_stmt 1 view .LVU380
 565:Drivers/STM32L4xx_HAL_Driver/Src/stm32l4xx_ll_usb.c ****   {
 1203              		.loc 1 565 9 is_stmt 0 view .LVU381
 1204 0004 4B78     		ldrb	r3, [r1, #1]	@ zero_extendqisi2
 565:Drivers/STM32L4xx_HAL_Driver/Src/stm32l4xx_ll_usb.c ****   {
 1205              		.loc 1 565 6 view .LVU382
 1206 0006 012B     		cmp	r3, #1
 1207 0008 23D0     		beq	.L96
 579:Drivers/STM32L4xx_HAL_Driver/Src/stm32l4xx_ll_usb.c ****     {
 1208              		.loc 1 579 5 is_stmt 1 view .LVU383
 579:Drivers/STM32L4xx_HAL_Driver/Src/stm32l4xx_ll_usb.c ****     {
 1209              		.loc 1 579 11 is_stmt 0 view .LVU384
 1210 000a 00EB421C 		add	ip, r0, r2, lsl #5
 579:Drivers/STM32L4xx_HAL_Driver/Src/stm32l4xx_ll_usb.c ****     {
 1211              		.loc 1 579 28 view .LVU385
 1212 000e DCF8003B 		ldr	r3, [ip, #2816]
 579:Drivers/STM32L4xx_HAL_Driver/Src/stm32l4xx_ll_usb.c ****     {
 1213              		.loc 1 579 8 view .LVU386
 1214 0012 13F4004F 		tst	r3, #32768
 1215 0016 0FD1     		bne	.L94
 581:Drivers/STM32L4xx_HAL_Driver/Src/stm32l4xx_ll_usb.c ****                                     ((uint32_t)ep->type << 18) | (epnum << 22) |
 1216              		.loc 1 581 7 is_stmt 1 view .LVU387
 581:Drivers/STM32L4xx_HAL_Driver/Src/stm32l4xx_ll_usb.c ****                                     ((uint32_t)ep->type << 18) | (epnum << 22) |
 1217              		.loc 1 581 24 is_stmt 0 view .LVU388
 1218 0018 DCF8004B 		ldr	r4, [ip, #2816]
 581:Drivers/STM32L4xx_HAL_Driver/Src/stm32l4xx_ll_usb.c ****                                     ((uint32_t)ep->type << 18) | (epnum << 22) |
 1219              		.loc 1 581 40 view .LVU389
 1220 001c CB68     		ldr	r3, [r1, #12]
 581:Drivers/STM32L4xx_HAL_Driver/Src/stm32l4xx_ll_usb.c ****                                     ((uint32_t)ep->type << 18) | (epnum << 22) |
 1221              		.loc 1 581 52 view .LVU390
 1222 001e C3F30A03 		ubfx	r3, r3, #0, #11
 582:Drivers/STM32L4xx_HAL_Driver/Src/stm32l4xx_ll_usb.c ****                                     USB_OTG_DOEPCTL_USBAEP;
 1223              		.loc 1 582 50 view .LVU391
 1224 0022 91F804E0 		ldrb	lr, [r1, #4]	@ zero_extendqisi2
 581:Drivers/STM32L4xx_HAL_Driver/Src/stm32l4xx_ll_usb.c ****                                     ((uint32_t)ep->type << 18) | (epnum << 22) |
 1225              		.loc 1 581 77 view .LVU392
 1226 0026 43EA8E43 		orr	r3, r3, lr, lsl #18
 582:Drivers/STM32L4xx_HAL_Driver/Src/stm32l4xx_ll_usb.c ****                                     USB_OTG_DOEPCTL_USBAEP;
 1227              		.loc 1 582 64 view .LVU393
 1228 002a 43EA8253 		orr	r3, r3, r2, lsl #22
 581:Drivers/STM32L4xx_HAL_Driver/Src/stm32l4xx_ll_usb.c ****                                     ((uint32_t)ep->type << 18) | (epnum << 22) |
 1229              		.loc 1 581 34 view .LVU394
 1230 002e 2343     		orrs	r3, r3, r4
 1231 0030 43F40043 		orr	r3, r3, #32768
 1232 0034 CCF8003B 		str	r3, [ip, #2816]
ARM GAS  /tmp/ccdWnOQF.s 			page 52


 1233              	.L94:
 586:Drivers/STM32L4xx_HAL_Driver/Src/stm32l4xx_ll_usb.c ****   }
 1234              		.loc 1 586 5 is_stmt 1 view .LVU395
 586:Drivers/STM32L4xx_HAL_Driver/Src/stm32l4xx_ll_usb.c ****   }
 1235              		.loc 1 586 16 is_stmt 0 view .LVU396
 1236 0038 D0F83C38 		ldr	r3, [r0, #2108]
 586:Drivers/STM32L4xx_HAL_Driver/Src/stm32l4xx_ll_usb.c ****   }
 1237              		.loc 1 586 76 view .LVU397
 1238 003c 0978     		ldrb	r1, [r1]	@ zero_extendqisi2
 1239              	.LVL76:
 586:Drivers/STM32L4xx_HAL_Driver/Src/stm32l4xx_ll_usb.c ****   }
 1240              		.loc 1 586 82 view .LVU398
 1241 003e 01F00F01 		and	r1, r1, #15
 586:Drivers/STM32L4xx_HAL_Driver/Src/stm32l4xx_ll_usb.c ****   }
 1242              		.loc 1 586 55 view .LVU399
 1243 0042 0122     		movs	r2, #1
 1244              	.LVL77:
 586:Drivers/STM32L4xx_HAL_Driver/Src/stm32l4xx_ll_usb.c ****   }
 1245              		.loc 1 586 55 view .LVU400
 1246 0044 8A40     		lsls	r2, r2, r1
 586:Drivers/STM32L4xx_HAL_Driver/Src/stm32l4xx_ll_usb.c ****   }
 1247              		.loc 1 586 27 view .LVU401
 1248 0046 43EA0243 		orr	r3, r3, r2, lsl #16
 1249 004a C0F83C38 		str	r3, [r0, #2108]
 1250              	.L93:
 589:Drivers/STM32L4xx_HAL_Driver/Src/stm32l4xx_ll_usb.c **** }
 1251              		.loc 1 589 3 is_stmt 1 view .LVU402
 590:Drivers/STM32L4xx_HAL_Driver/Src/stm32l4xx_ll_usb.c **** 
 1252              		.loc 1 590 1 is_stmt 0 view .LVU403
 1253 004e 0020     		movs	r0, #0
 1254              	.LVL78:
 590:Drivers/STM32L4xx_HAL_Driver/Src/stm32l4xx_ll_usb.c **** 
 1255              		.loc 1 590 1 view .LVU404
 1256 0050 10BD     		pop	{r4, pc}
 1257              	.LVL79:
 1258              	.L96:
 567:Drivers/STM32L4xx_HAL_Driver/Src/stm32l4xx_ll_usb.c ****     {
 1259              		.loc 1 567 5 is_stmt 1 view .LVU405
 567:Drivers/STM32L4xx_HAL_Driver/Src/stm32l4xx_ll_usb.c ****     {
 1260              		.loc 1 567 11 is_stmt 0 view .LVU406
 1261 0052 00EB421C 		add	ip, r0, r2, lsl #5
 567:Drivers/STM32L4xx_HAL_Driver/Src/stm32l4xx_ll_usb.c ****     {
 1262              		.loc 1 567 27 view .LVU407
 1263 0056 DCF80039 		ldr	r3, [ip, #2304]
 567:Drivers/STM32L4xx_HAL_Driver/Src/stm32l4xx_ll_usb.c ****     {
 1264              		.loc 1 567 8 view .LVU408
 1265 005a 13F4004F 		tst	r3, #32768
 1266 005e 11D1     		bne	.L92
 569:Drivers/STM32L4xx_HAL_Driver/Src/stm32l4xx_ll_usb.c ****                                    ((uint32_t)ep->type << 18) | (epnum << 22) |
 1267              		.loc 1 569 7 is_stmt 1 view .LVU409
 569:Drivers/STM32L4xx_HAL_Driver/Src/stm32l4xx_ll_usb.c ****                                    ((uint32_t)ep->type << 18) | (epnum << 22) |
 1268              		.loc 1 569 23 is_stmt 0 view .LVU410
 1269 0060 DCF80039 		ldr	r3, [ip, #2304]
 569:Drivers/STM32L4xx_HAL_Driver/Src/stm32l4xx_ll_usb.c ****                                    ((uint32_t)ep->type << 18) | (epnum << 22) |
 1270              		.loc 1 569 39 view .LVU411
 1271 0064 CC68     		ldr	r4, [r1, #12]
 569:Drivers/STM32L4xx_HAL_Driver/Src/stm32l4xx_ll_usb.c ****                                    ((uint32_t)ep->type << 18) | (epnum << 22) |
ARM GAS  /tmp/ccdWnOQF.s 			page 53


 1272              		.loc 1 569 51 view .LVU412
 1273 0066 C4F30A04 		ubfx	r4, r4, #0, #11
 570:Drivers/STM32L4xx_HAL_Driver/Src/stm32l4xx_ll_usb.c ****                                    USB_OTG_DIEPCTL_SD0PID_SEVNFRM |
 1274              		.loc 1 570 49 view .LVU413
 1275 006a 91F804E0 		ldrb	lr, [r1, #4]	@ zero_extendqisi2
 569:Drivers/STM32L4xx_HAL_Driver/Src/stm32l4xx_ll_usb.c ****                                    ((uint32_t)ep->type << 18) | (epnum << 22) |
 1276              		.loc 1 569 76 view .LVU414
 1277 006e 44EA8E44 		orr	r4, r4, lr, lsl #18
 570:Drivers/STM32L4xx_HAL_Driver/Src/stm32l4xx_ll_usb.c ****                                    USB_OTG_DIEPCTL_SD0PID_SEVNFRM |
 1278              		.loc 1 570 63 view .LVU415
 1279 0072 44EA8254 		orr	r4, r4, r2, lsl #22
 569:Drivers/STM32L4xx_HAL_Driver/Src/stm32l4xx_ll_usb.c ****                                    ((uint32_t)ep->type << 18) | (epnum << 22) |
 1280              		.loc 1 569 33 view .LVU416
 1281 0076 2343     		orrs	r3, r3, r4
 1282 0078 43F08053 		orr	r3, r3, #268435456
 1283 007c 43F40043 		orr	r3, r3, #32768
 1284 0080 CCF80039 		str	r3, [ip, #2304]
 1285              	.L92:
 575:Drivers/STM32L4xx_HAL_Driver/Src/stm32l4xx_ll_usb.c ****   }
 1286              		.loc 1 575 5 is_stmt 1 view .LVU417
 575:Drivers/STM32L4xx_HAL_Driver/Src/stm32l4xx_ll_usb.c ****   }
 1287              		.loc 1 575 16 is_stmt 0 view .LVU418
 1288 0084 D0F83C28 		ldr	r2, [r0, #2108]
 1289              	.LVL80:
 575:Drivers/STM32L4xx_HAL_Driver/Src/stm32l4xx_ll_usb.c ****   }
 1290              		.loc 1 575 75 view .LVU419
 1291 0088 0978     		ldrb	r1, [r1]	@ zero_extendqisi2
 1292              	.LVL81:
 575:Drivers/STM32L4xx_HAL_Driver/Src/stm32l4xx_ll_usb.c ****   }
 1293              		.loc 1 575 81 view .LVU420
 1294 008a 01F00F01 		and	r1, r1, #15
 575:Drivers/STM32L4xx_HAL_Driver/Src/stm32l4xx_ll_usb.c ****   }
 1295              		.loc 1 575 54 view .LVU421
 1296 008e 0123     		movs	r3, #1
 1297 0090 8B40     		lsls	r3, r3, r1
 575:Drivers/STM32L4xx_HAL_Driver/Src/stm32l4xx_ll_usb.c ****   }
 1298              		.loc 1 575 52 view .LVU422
 1299 0092 9BB2     		uxth	r3, r3
 575:Drivers/STM32L4xx_HAL_Driver/Src/stm32l4xx_ll_usb.c ****   }
 1300              		.loc 1 575 27 view .LVU423
 1301 0094 1343     		orrs	r3, r3, r2
 1302 0096 C0F83C38 		str	r3, [r0, #2108]
 1303 009a D8E7     		b	.L93
 1304              		.cfi_endproc
 1305              	.LFE143:
 1307              		.section	.text.USB_DeactivateEndpoint,"ax",%progbits
 1308              		.align	1
 1309              		.global	USB_DeactivateEndpoint
 1310              		.syntax unified
 1311              		.thumb
 1312              		.thumb_func
 1314              	USB_DeactivateEndpoint:
 1315              	.LVL82:
 1316              	.LFB144:
 599:Drivers/STM32L4xx_HAL_Driver/Src/stm32l4xx_ll_usb.c ****   uint32_t USBx_BASE = (uint32_t)USBx;
 1317              		.loc 1 599 1 is_stmt 1 view -0
 1318              		.cfi_startproc
ARM GAS  /tmp/ccdWnOQF.s 			page 54


 1319              		@ args = 0, pretend = 0, frame = 0
 1320              		@ frame_needed = 0, uses_anonymous_args = 0
 1321              		@ link register save eliminated.
 599:Drivers/STM32L4xx_HAL_Driver/Src/stm32l4xx_ll_usb.c ****   uint32_t USBx_BASE = (uint32_t)USBx;
 1322              		.loc 1 599 1 is_stmt 0 view .LVU425
 1323 0000 30B4     		push	{r4, r5}
 1324              		.cfi_def_cfa_offset 8
 1325              		.cfi_offset 4, -8
 1326              		.cfi_offset 5, -4
 600:Drivers/STM32L4xx_HAL_Driver/Src/stm32l4xx_ll_usb.c ****   uint32_t epnum = (uint32_t)ep->num;
 1327              		.loc 1 600 3 is_stmt 1 view .LVU426
 1328              	.LVL83:
 601:Drivers/STM32L4xx_HAL_Driver/Src/stm32l4xx_ll_usb.c **** 
 1329              		.loc 1 601 3 view .LVU427
 601:Drivers/STM32L4xx_HAL_Driver/Src/stm32l4xx_ll_usb.c **** 
 1330              		.loc 1 601 32 is_stmt 0 view .LVU428
 1331 0002 0B78     		ldrb	r3, [r1]	@ zero_extendqisi2
 1332              	.LVL84:
 604:Drivers/STM32L4xx_HAL_Driver/Src/stm32l4xx_ll_usb.c ****   {
 1333              		.loc 1 604 3 is_stmt 1 view .LVU429
 604:Drivers/STM32L4xx_HAL_Driver/Src/stm32l4xx_ll_usb.c ****   {
 1334              		.loc 1 604 9 is_stmt 0 view .LVU430
 1335 0004 4A78     		ldrb	r2, [r1, #1]	@ zero_extendqisi2
 604:Drivers/STM32L4xx_HAL_Driver/Src/stm32l4xx_ll_usb.c ****   {
 1336              		.loc 1 604 6 view .LVU431
 1337 0006 012A     		cmp	r2, #1
 1338 0008 26D0     		beq	.L103
 622:Drivers/STM32L4xx_HAL_Driver/Src/stm32l4xx_ll_usb.c ****     {
 1339              		.loc 1 622 5 is_stmt 1 view .LVU432
 622:Drivers/STM32L4xx_HAL_Driver/Src/stm32l4xx_ll_usb.c ****     {
 1340              		.loc 1 622 10 is_stmt 0 view .LVU433
 1341 000a 00EB4313 		add	r3, r0, r3, lsl #5
 1342              	.LVL85:
 622:Drivers/STM32L4xx_HAL_Driver/Src/stm32l4xx_ll_usb.c ****     {
 1343              		.loc 1 622 27 view .LVU434
 1344 000e D3F8002B 		ldr	r2, [r3, #2816]
 622:Drivers/STM32L4xx_HAL_Driver/Src/stm32l4xx_ll_usb.c ****     {
 1345              		.loc 1 622 8 view .LVU435
 1346 0012 002A     		cmp	r2, #0
 1347 0014 52DB     		blt	.L104
 1348              	.LVL86:
 1349              	.L101:
 628:Drivers/STM32L4xx_HAL_Driver/Src/stm32l4xx_ll_usb.c ****     USBx_DEVICE->DAINTMSK &= ~(USB_OTG_DAINTMSK_OEPM & ((uint32_t)(1UL << (ep->num & EP_ADDR_MSK)) 
 1350              		.loc 1 628 5 is_stmt 1 view .LVU436
 628:Drivers/STM32L4xx_HAL_Driver/Src/stm32l4xx_ll_usb.c ****     USBx_DEVICE->DAINTMSK &= ~(USB_OTG_DAINTMSK_OEPM & ((uint32_t)(1UL << (ep->num & EP_ADDR_MSK)) 
 1351              		.loc 1 628 16 is_stmt 0 view .LVU437
 1352 0016 D0F83C48 		ldr	r4, [r0, #2108]
 628:Drivers/STM32L4xx_HAL_Driver/Src/stm32l4xx_ll_usb.c ****     USBx_DEVICE->DAINTMSK &= ~(USB_OTG_DAINTMSK_OEPM & ((uint32_t)(1UL << (ep->num & EP_ADDR_MSK)) 
 1353              		.loc 1 628 78 view .LVU438
 1354 001a 0A78     		ldrb	r2, [r1]	@ zero_extendqisi2
 628:Drivers/STM32L4xx_HAL_Driver/Src/stm32l4xx_ll_usb.c ****     USBx_DEVICE->DAINTMSK &= ~(USB_OTG_DAINTMSK_OEPM & ((uint32_t)(1UL << (ep->num & EP_ADDR_MSK)) 
 1355              		.loc 1 628 84 view .LVU439
 1356 001c 02F00F02 		and	r2, r2, #15
 628:Drivers/STM32L4xx_HAL_Driver/Src/stm32l4xx_ll_usb.c ****     USBx_DEVICE->DAINTMSK &= ~(USB_OTG_DAINTMSK_OEPM & ((uint32_t)(1UL << (ep->num & EP_ADDR_MSK)) 
 1357              		.loc 1 628 57 view .LVU440
 1358 0020 4FF0010C 		mov	ip, #1
 1359 0024 0CFA02F2 		lsl	r2, ip, r2
ARM GAS  /tmp/ccdWnOQF.s 			page 55


 628:Drivers/STM32L4xx_HAL_Driver/Src/stm32l4xx_ll_usb.c ****     USBx_DEVICE->DAINTMSK &= ~(USB_OTG_DAINTMSK_OEPM & ((uint32_t)(1UL << (ep->num & EP_ADDR_MSK)) 
 1360              		.loc 1 628 27 view .LVU441
 1361 0028 24EA0242 		bic	r2, r4, r2, lsl #16
 1362 002c C0F83C28 		str	r2, [r0, #2108]
 629:Drivers/STM32L4xx_HAL_Driver/Src/stm32l4xx_ll_usb.c ****     USBx_OUTEP(epnum)->DOEPCTL &= ~(USB_OTG_DOEPCTL_USBAEP |
 1363              		.loc 1 629 5 is_stmt 1 view .LVU442
 629:Drivers/STM32L4xx_HAL_Driver/Src/stm32l4xx_ll_usb.c ****     USBx_OUTEP(epnum)->DOEPCTL &= ~(USB_OTG_DOEPCTL_USBAEP |
 1364              		.loc 1 629 16 is_stmt 0 view .LVU443
 1365 0030 D0F81C28 		ldr	r2, [r0, #2076]
 629:Drivers/STM32L4xx_HAL_Driver/Src/stm32l4xx_ll_usb.c ****     USBx_OUTEP(epnum)->DOEPCTL &= ~(USB_OTG_DOEPCTL_USBAEP |
 1366              		.loc 1 629 78 view .LVU444
 1367 0034 0978     		ldrb	r1, [r1]	@ zero_extendqisi2
 1368              	.LVL87:
 629:Drivers/STM32L4xx_HAL_Driver/Src/stm32l4xx_ll_usb.c ****     USBx_OUTEP(epnum)->DOEPCTL &= ~(USB_OTG_DOEPCTL_USBAEP |
 1369              		.loc 1 629 84 view .LVU445
 1370 0036 01F00F01 		and	r1, r1, #15
 629:Drivers/STM32L4xx_HAL_Driver/Src/stm32l4xx_ll_usb.c ****     USBx_OUTEP(epnum)->DOEPCTL &= ~(USB_OTG_DOEPCTL_USBAEP |
 1371              		.loc 1 629 57 view .LVU446
 1372 003a 0CFA01FC 		lsl	ip, ip, r1
 629:Drivers/STM32L4xx_HAL_Driver/Src/stm32l4xx_ll_usb.c ****     USBx_OUTEP(epnum)->DOEPCTL &= ~(USB_OTG_DOEPCTL_USBAEP |
 1373              		.loc 1 629 27 view .LVU447
 1374 003e 22EA0C42 		bic	r2, r2, ip, lsl #16
 1375 0042 C0F81C28 		str	r2, [r0, #2076]
 630:Drivers/STM32L4xx_HAL_Driver/Src/stm32l4xx_ll_usb.c ****                                     USB_OTG_DOEPCTL_MPSIZ |
 1376              		.loc 1 630 5 is_stmt 1 view .LVU448
 630:Drivers/STM32L4xx_HAL_Driver/Src/stm32l4xx_ll_usb.c ****                                     USB_OTG_DOEPCTL_MPSIZ |
 1377              		.loc 1 630 22 is_stmt 0 view .LVU449
 1378 0046 D3F8001B 		ldr	r1, [r3, #2816]
 630:Drivers/STM32L4xx_HAL_Driver/Src/stm32l4xx_ll_usb.c ****                                     USB_OTG_DOEPCTL_MPSIZ |
 1379              		.loc 1 630 32 view .LVU450
 1380 004a 234A     		ldr	r2, .L106
 1381 004c 0A40     		ands	r2, r2, r1
 1382 004e C3F8002B 		str	r2, [r3, #2816]
 1383              	.L100:
 636:Drivers/STM32L4xx_HAL_Driver/Src/stm32l4xx_ll_usb.c **** }
 1384              		.loc 1 636 3 is_stmt 1 view .LVU451
 637:Drivers/STM32L4xx_HAL_Driver/Src/stm32l4xx_ll_usb.c **** 
 1385              		.loc 1 637 1 is_stmt 0 view .LVU452
 1386 0052 0020     		movs	r0, #0
 1387              	.LVL88:
 637:Drivers/STM32L4xx_HAL_Driver/Src/stm32l4xx_ll_usb.c **** 
 1388              		.loc 1 637 1 view .LVU453
 1389 0054 30BC     		pop	{r4, r5}
 1390              		.cfi_remember_state
 1391              		.cfi_restore 5
 1392              		.cfi_restore 4
 1393              		.cfi_def_cfa_offset 0
 1394 0056 7047     		bx	lr
 1395              	.LVL89:
 1396              	.L103:
 1397              		.cfi_restore_state
 606:Drivers/STM32L4xx_HAL_Driver/Src/stm32l4xx_ll_usb.c ****     {
 1398              		.loc 1 606 5 is_stmt 1 view .LVU454
 606:Drivers/STM32L4xx_HAL_Driver/Src/stm32l4xx_ll_usb.c ****     {
 1399              		.loc 1 606 10 is_stmt 0 view .LVU455
 1400 0058 00EB4313 		add	r3, r0, r3, lsl #5
 1401              	.LVL90:
ARM GAS  /tmp/ccdWnOQF.s 			page 56


 606:Drivers/STM32L4xx_HAL_Driver/Src/stm32l4xx_ll_usb.c ****     {
 1402              		.loc 1 606 26 view .LVU456
 1403 005c D3F80029 		ldr	r2, [r3, #2304]
 606:Drivers/STM32L4xx_HAL_Driver/Src/stm32l4xx_ll_usb.c ****     {
 1404              		.loc 1 606 8 view .LVU457
 1405 0060 002A     		cmp	r2, #0
 1406 0062 1EDB     		blt	.L105
 1407              	.LVL91:
 1408              	.L99:
 612:Drivers/STM32L4xx_HAL_Driver/Src/stm32l4xx_ll_usb.c ****     USBx_DEVICE->DAINTMSK &= ~(USB_OTG_DAINTMSK_IEPM & (uint32_t)(1UL << (ep->num & EP_ADDR_MSK)));
 1409              		.loc 1 612 5 is_stmt 1 view .LVU458
 612:Drivers/STM32L4xx_HAL_Driver/Src/stm32l4xx_ll_usb.c ****     USBx_DEVICE->DAINTMSK &= ~(USB_OTG_DAINTMSK_IEPM & (uint32_t)(1UL << (ep->num & EP_ADDR_MSK)));
 1410              		.loc 1 612 16 is_stmt 0 view .LVU459
 1411 0064 D0F83C58 		ldr	r5, [r0, #2108]
 612:Drivers/STM32L4xx_HAL_Driver/Src/stm32l4xx_ll_usb.c ****     USBx_DEVICE->DAINTMSK &= ~(USB_OTG_DAINTMSK_IEPM & (uint32_t)(1UL << (ep->num & EP_ADDR_MSK)));
 1412              		.loc 1 612 77 view .LVU460
 1413 0068 0A78     		ldrb	r2, [r1]	@ zero_extendqisi2
 612:Drivers/STM32L4xx_HAL_Driver/Src/stm32l4xx_ll_usb.c ****     USBx_DEVICE->DAINTMSK &= ~(USB_OTG_DAINTMSK_IEPM & (uint32_t)(1UL << (ep->num & EP_ADDR_MSK)));
 1414              		.loc 1 612 83 view .LVU461
 1415 006a 02F00F02 		and	r2, r2, #15
 612:Drivers/STM32L4xx_HAL_Driver/Src/stm32l4xx_ll_usb.c ****     USBx_DEVICE->DAINTMSK &= ~(USB_OTG_DAINTMSK_IEPM & (uint32_t)(1UL << (ep->num & EP_ADDR_MSK)));
 1416              		.loc 1 612 56 view .LVU462
 1417 006e 0124     		movs	r4, #1
 1418 0070 04FA02F2 		lsl	r2, r4, r2
 612:Drivers/STM32L4xx_HAL_Driver/Src/stm32l4xx_ll_usb.c ****     USBx_DEVICE->DAINTMSK &= ~(USB_OTG_DAINTMSK_IEPM & (uint32_t)(1UL << (ep->num & EP_ADDR_MSK)));
 1419              		.loc 1 612 54 view .LVU463
 1420 0074 92B2     		uxth	r2, r2
 612:Drivers/STM32L4xx_HAL_Driver/Src/stm32l4xx_ll_usb.c ****     USBx_DEVICE->DAINTMSK &= ~(USB_OTG_DAINTMSK_IEPM & (uint32_t)(1UL << (ep->num & EP_ADDR_MSK)));
 1421              		.loc 1 612 27 view .LVU464
 1422 0076 25EA0202 		bic	r2, r5, r2
 1423 007a C0F83C28 		str	r2, [r0, #2108]
 613:Drivers/STM32L4xx_HAL_Driver/Src/stm32l4xx_ll_usb.c ****     USBx_INEP(epnum)->DIEPCTL &= ~(USB_OTG_DIEPCTL_USBAEP |
 1424              		.loc 1 613 5 is_stmt 1 view .LVU465
 613:Drivers/STM32L4xx_HAL_Driver/Src/stm32l4xx_ll_usb.c ****     USBx_INEP(epnum)->DIEPCTL &= ~(USB_OTG_DIEPCTL_USBAEP |
 1425              		.loc 1 613 16 is_stmt 0 view .LVU466
 1426 007e D0F81C28 		ldr	r2, [r0, #2076]
 613:Drivers/STM32L4xx_HAL_Driver/Src/stm32l4xx_ll_usb.c ****     USBx_INEP(epnum)->DIEPCTL &= ~(USB_OTG_DIEPCTL_USBAEP |
 1427              		.loc 1 613 77 view .LVU467
 1428 0082 0978     		ldrb	r1, [r1]	@ zero_extendqisi2
 1429              	.LVL92:
 613:Drivers/STM32L4xx_HAL_Driver/Src/stm32l4xx_ll_usb.c ****     USBx_INEP(epnum)->DIEPCTL &= ~(USB_OTG_DIEPCTL_USBAEP |
 1430              		.loc 1 613 83 view .LVU468
 1431 0084 01F00F01 		and	r1, r1, #15
 613:Drivers/STM32L4xx_HAL_Driver/Src/stm32l4xx_ll_usb.c ****     USBx_INEP(epnum)->DIEPCTL &= ~(USB_OTG_DIEPCTL_USBAEP |
 1432              		.loc 1 613 56 view .LVU469
 1433 0088 8C40     		lsls	r4, r4, r1
 613:Drivers/STM32L4xx_HAL_Driver/Src/stm32l4xx_ll_usb.c ****     USBx_INEP(epnum)->DIEPCTL &= ~(USB_OTG_DIEPCTL_USBAEP |
 1434              		.loc 1 613 54 view .LVU470
 1435 008a A4B2     		uxth	r4, r4
 613:Drivers/STM32L4xx_HAL_Driver/Src/stm32l4xx_ll_usb.c ****     USBx_INEP(epnum)->DIEPCTL &= ~(USB_OTG_DIEPCTL_USBAEP |
 1436              		.loc 1 613 27 view .LVU471
 1437 008c 22EA0402 		bic	r2, r2, r4
 1438 0090 C0F81C28 		str	r2, [r0, #2076]
 614:Drivers/STM32L4xx_HAL_Driver/Src/stm32l4xx_ll_usb.c ****                                    USB_OTG_DIEPCTL_MPSIZ |
 1439              		.loc 1 614 5 is_stmt 1 view .LVU472
 614:Drivers/STM32L4xx_HAL_Driver/Src/stm32l4xx_ll_usb.c ****                                    USB_OTG_DIEPCTL_MPSIZ |
 1440              		.loc 1 614 21 is_stmt 0 view .LVU473
ARM GAS  /tmp/ccdWnOQF.s 			page 57


 1441 0094 D3F80019 		ldr	r1, [r3, #2304]
 614:Drivers/STM32L4xx_HAL_Driver/Src/stm32l4xx_ll_usb.c ****                                    USB_OTG_DIEPCTL_MPSIZ |
 1442              		.loc 1 614 31 view .LVU474
 1443 0098 104A     		ldr	r2, .L106+4
 1444 009a 0A40     		ands	r2, r2, r1
 1445 009c C3F80029 		str	r2, [r3, #2304]
 1446 00a0 D7E7     		b	.L100
 1447              	.LVL93:
 1448              	.L105:
 608:Drivers/STM32L4xx_HAL_Driver/Src/stm32l4xx_ll_usb.c ****       USBx_INEP(epnum)->DIEPCTL |= USB_OTG_DIEPCTL_EPDIS;
 1449              		.loc 1 608 7 is_stmt 1 view .LVU475
 608:Drivers/STM32L4xx_HAL_Driver/Src/stm32l4xx_ll_usb.c ****       USBx_INEP(epnum)->DIEPCTL |= USB_OTG_DIEPCTL_EPDIS;
 1450              		.loc 1 608 23 is_stmt 0 view .LVU476
 1451 00a2 D3F80029 		ldr	r2, [r3, #2304]
 608:Drivers/STM32L4xx_HAL_Driver/Src/stm32l4xx_ll_usb.c ****       USBx_INEP(epnum)->DIEPCTL |= USB_OTG_DIEPCTL_EPDIS;
 1452              		.loc 1 608 33 view .LVU477
 1453 00a6 42F00062 		orr	r2, r2, #134217728
 1454 00aa C3F80029 		str	r2, [r3, #2304]
 1455              	.LVL94:
 609:Drivers/STM32L4xx_HAL_Driver/Src/stm32l4xx_ll_usb.c ****     }
 1456              		.loc 1 609 7 is_stmt 1 view .LVU478
 609:Drivers/STM32L4xx_HAL_Driver/Src/stm32l4xx_ll_usb.c ****     }
 1457              		.loc 1 609 23 is_stmt 0 view .LVU479
 1458 00ae D3F80029 		ldr	r2, [r3, #2304]
 609:Drivers/STM32L4xx_HAL_Driver/Src/stm32l4xx_ll_usb.c ****     }
 1459              		.loc 1 609 33 view .LVU480
 1460 00b2 42F08042 		orr	r2, r2, #1073741824
 1461 00b6 C3F80029 		str	r2, [r3, #2304]
 1462 00ba D3E7     		b	.L99
 1463              	.LVL95:
 1464              	.L104:
 624:Drivers/STM32L4xx_HAL_Driver/Src/stm32l4xx_ll_usb.c ****       USBx_OUTEP(epnum)->DOEPCTL |= USB_OTG_DOEPCTL_EPDIS;
 1465              		.loc 1 624 7 is_stmt 1 view .LVU481
 624:Drivers/STM32L4xx_HAL_Driver/Src/stm32l4xx_ll_usb.c ****       USBx_OUTEP(epnum)->DOEPCTL |= USB_OTG_DOEPCTL_EPDIS;
 1466              		.loc 1 624 24 is_stmt 0 view .LVU482
 1467 00bc D3F8002B 		ldr	r2, [r3, #2816]
 624:Drivers/STM32L4xx_HAL_Driver/Src/stm32l4xx_ll_usb.c ****       USBx_OUTEP(epnum)->DOEPCTL |= USB_OTG_DOEPCTL_EPDIS;
 1468              		.loc 1 624 34 view .LVU483
 1469 00c0 42F00062 		orr	r2, r2, #134217728
 1470 00c4 C3F8002B 		str	r2, [r3, #2816]
 1471              	.LVL96:
 625:Drivers/STM32L4xx_HAL_Driver/Src/stm32l4xx_ll_usb.c ****     }
 1472              		.loc 1 625 7 is_stmt 1 view .LVU484
 625:Drivers/STM32L4xx_HAL_Driver/Src/stm32l4xx_ll_usb.c ****     }
 1473              		.loc 1 625 24 is_stmt 0 view .LVU485
 1474 00c8 D3F8002B 		ldr	r2, [r3, #2816]
 625:Drivers/STM32L4xx_HAL_Driver/Src/stm32l4xx_ll_usb.c ****     }
 1475              		.loc 1 625 34 view .LVU486
 1476 00cc 42F08042 		orr	r2, r2, #1073741824
 1477 00d0 C3F8002B 		str	r2, [r3, #2816]
 1478 00d4 9FE7     		b	.L101
 1479              	.L107:
 1480 00d6 00BF     		.align	2
 1481              	.L106:
 1482 00d8 0078F3EF 		.word	-269256704
 1483 00dc 007833EC 		.word	-332171264
 1484              		.cfi_endproc
ARM GAS  /tmp/ccdWnOQF.s 			page 58


 1485              	.LFE144:
 1487              		.section	.text.USB_DeactivateDedicatedEndpoint,"ax",%progbits
 1488              		.align	1
 1489              		.global	USB_DeactivateDedicatedEndpoint
 1490              		.syntax unified
 1491              		.thumb
 1492              		.thumb_func
 1494              	USB_DeactivateDedicatedEndpoint:
 1495              	.LVL97:
 1496              	.LFB145:
 646:Drivers/STM32L4xx_HAL_Driver/Src/stm32l4xx_ll_usb.c ****   uint32_t USBx_BASE = (uint32_t)USBx;
 1497              		.loc 1 646 1 is_stmt 1 view -0
 1498              		.cfi_startproc
 1499              		@ args = 0, pretend = 0, frame = 0
 1500              		@ frame_needed = 0, uses_anonymous_args = 0
 1501              		@ link register save eliminated.
 647:Drivers/STM32L4xx_HAL_Driver/Src/stm32l4xx_ll_usb.c ****   uint32_t epnum = (uint32_t)ep->num;
 1502              		.loc 1 647 3 view .LVU488
 648:Drivers/STM32L4xx_HAL_Driver/Src/stm32l4xx_ll_usb.c **** 
 1503              		.loc 1 648 3 view .LVU489
 648:Drivers/STM32L4xx_HAL_Driver/Src/stm32l4xx_ll_usb.c **** 
 1504              		.loc 1 648 32 is_stmt 0 view .LVU490
 1505 0000 0B78     		ldrb	r3, [r1]	@ zero_extendqisi2
 1506              	.LVL98:
 651:Drivers/STM32L4xx_HAL_Driver/Src/stm32l4xx_ll_usb.c ****   {
 1507              		.loc 1 651 3 is_stmt 1 view .LVU491
 651:Drivers/STM32L4xx_HAL_Driver/Src/stm32l4xx_ll_usb.c ****   {
 1508              		.loc 1 651 9 is_stmt 0 view .LVU492
 1509 0002 4A78     		ldrb	r2, [r1, #1]	@ zero_extendqisi2
 651:Drivers/STM32L4xx_HAL_Driver/Src/stm32l4xx_ll_usb.c ****   {
 1510              		.loc 1 651 6 view .LVU493
 1511 0004 012A     		cmp	r2, #1
 1512 0006 18D0     		beq	.L113
 664:Drivers/STM32L4xx_HAL_Driver/Src/stm32l4xx_ll_usb.c ****     {
 1513              		.loc 1 664 5 is_stmt 1 view .LVU494
 664:Drivers/STM32L4xx_HAL_Driver/Src/stm32l4xx_ll_usb.c ****     {
 1514              		.loc 1 664 10 is_stmt 0 view .LVU495
 1515 0008 00EB4313 		add	r3, r0, r3, lsl #5
 1516              	.LVL99:
 664:Drivers/STM32L4xx_HAL_Driver/Src/stm32l4xx_ll_usb.c ****     {
 1517              		.loc 1 664 27 view .LVU496
 1518 000c D3F8002B 		ldr	r2, [r3, #2816]
 664:Drivers/STM32L4xx_HAL_Driver/Src/stm32l4xx_ll_usb.c ****     {
 1519              		.loc 1 664 8 view .LVU497
 1520 0010 002A     		cmp	r2, #0
 1521 0012 38DB     		blt	.L114
 1522              	.LVL100:
 1523              	.L112:
 670:Drivers/STM32L4xx_HAL_Driver/Src/stm32l4xx_ll_usb.c ****     USBx_DEVICE->DAINTMSK &= ~(USB_OTG_DAINTMSK_OEPM & ((uint32_t)(1UL << (ep->num & EP_ADDR_MSK)) 
 1524              		.loc 1 670 5 is_stmt 1 view .LVU498
 670:Drivers/STM32L4xx_HAL_Driver/Src/stm32l4xx_ll_usb.c ****     USBx_DEVICE->DAINTMSK &= ~(USB_OTG_DAINTMSK_OEPM & ((uint32_t)(1UL << (ep->num & EP_ADDR_MSK)) 
 1525              		.loc 1 670 22 is_stmt 0 view .LVU499
 1526 0014 D3F8002B 		ldr	r2, [r3, #2816]
 670:Drivers/STM32L4xx_HAL_Driver/Src/stm32l4xx_ll_usb.c ****     USBx_DEVICE->DAINTMSK &= ~(USB_OTG_DAINTMSK_OEPM & ((uint32_t)(1UL << (ep->num & EP_ADDR_MSK)) 
 1527              		.loc 1 670 32 view .LVU500
 1528 0018 22F40042 		bic	r2, r2, #32768
 1529 001c C3F8002B 		str	r2, [r3, #2816]
ARM GAS  /tmp/ccdWnOQF.s 			page 59


 671:Drivers/STM32L4xx_HAL_Driver/Src/stm32l4xx_ll_usb.c ****   }
 1530              		.loc 1 671 5 is_stmt 1 view .LVU501
 671:Drivers/STM32L4xx_HAL_Driver/Src/stm32l4xx_ll_usb.c ****   }
 1531              		.loc 1 671 16 is_stmt 0 view .LVU502
 1532 0020 D0F81C38 		ldr	r3, [r0, #2076]
 671:Drivers/STM32L4xx_HAL_Driver/Src/stm32l4xx_ll_usb.c ****   }
 1533              		.loc 1 671 78 view .LVU503
 1534 0024 0978     		ldrb	r1, [r1]	@ zero_extendqisi2
 1535              	.LVL101:
 671:Drivers/STM32L4xx_HAL_Driver/Src/stm32l4xx_ll_usb.c ****   }
 1536              		.loc 1 671 84 view .LVU504
 1537 0026 01F00F01 		and	r1, r1, #15
 671:Drivers/STM32L4xx_HAL_Driver/Src/stm32l4xx_ll_usb.c ****   }
 1538              		.loc 1 671 57 view .LVU505
 1539 002a 0122     		movs	r2, #1
 1540 002c 8A40     		lsls	r2, r2, r1
 671:Drivers/STM32L4xx_HAL_Driver/Src/stm32l4xx_ll_usb.c ****   }
 1541              		.loc 1 671 27 view .LVU506
 1542 002e 23EA0243 		bic	r3, r3, r2, lsl #16
 1543 0032 C0F81C38 		str	r3, [r0, #2076]
 1544              	.L111:
 674:Drivers/STM32L4xx_HAL_Driver/Src/stm32l4xx_ll_usb.c **** }
 1545              		.loc 1 674 3 is_stmt 1 view .LVU507
 675:Drivers/STM32L4xx_HAL_Driver/Src/stm32l4xx_ll_usb.c **** 
 1546              		.loc 1 675 1 is_stmt 0 view .LVU508
 1547 0036 0020     		movs	r0, #0
 1548              	.LVL102:
 675:Drivers/STM32L4xx_HAL_Driver/Src/stm32l4xx_ll_usb.c **** 
 1549              		.loc 1 675 1 view .LVU509
 1550 0038 7047     		bx	lr
 1551              	.LVL103:
 1552              	.L113:
 653:Drivers/STM32L4xx_HAL_Driver/Src/stm32l4xx_ll_usb.c ****     {
 1553              		.loc 1 653 5 is_stmt 1 view .LVU510
 653:Drivers/STM32L4xx_HAL_Driver/Src/stm32l4xx_ll_usb.c ****     {
 1554              		.loc 1 653 10 is_stmt 0 view .LVU511
 1555 003a 00EB4313 		add	r3, r0, r3, lsl #5
 1556              	.LVL104:
 653:Drivers/STM32L4xx_HAL_Driver/Src/stm32l4xx_ll_usb.c ****     {
 1557              		.loc 1 653 26 view .LVU512
 1558 003e D3F80029 		ldr	r2, [r3, #2304]
 653:Drivers/STM32L4xx_HAL_Driver/Src/stm32l4xx_ll_usb.c ****     {
 1559              		.loc 1 653 8 view .LVU513
 1560 0042 002A     		cmp	r2, #0
 1561 0044 12DB     		blt	.L115
 1562              	.LVL105:
 1563              	.L110:
 659:Drivers/STM32L4xx_HAL_Driver/Src/stm32l4xx_ll_usb.c ****     USBx_DEVICE->DAINTMSK &= ~(USB_OTG_DAINTMSK_IEPM & (uint32_t)(1UL << (ep->num & EP_ADDR_MSK)));
 1564              		.loc 1 659 5 is_stmt 1 view .LVU514
 659:Drivers/STM32L4xx_HAL_Driver/Src/stm32l4xx_ll_usb.c ****     USBx_DEVICE->DAINTMSK &= ~(USB_OTG_DAINTMSK_IEPM & (uint32_t)(1UL << (ep->num & EP_ADDR_MSK)));
 1565              		.loc 1 659 21 is_stmt 0 view .LVU515
 1566 0046 D3F80029 		ldr	r2, [r3, #2304]
 659:Drivers/STM32L4xx_HAL_Driver/Src/stm32l4xx_ll_usb.c ****     USBx_DEVICE->DAINTMSK &= ~(USB_OTG_DAINTMSK_IEPM & (uint32_t)(1UL << (ep->num & EP_ADDR_MSK)));
 1567              		.loc 1 659 31 view .LVU516
 1568 004a 22F40042 		bic	r2, r2, #32768
 1569 004e C3F80029 		str	r2, [r3, #2304]
 660:Drivers/STM32L4xx_HAL_Driver/Src/stm32l4xx_ll_usb.c ****   }
ARM GAS  /tmp/ccdWnOQF.s 			page 60


 1570              		.loc 1 660 5 is_stmt 1 view .LVU517
 660:Drivers/STM32L4xx_HAL_Driver/Src/stm32l4xx_ll_usb.c ****   }
 1571              		.loc 1 660 16 is_stmt 0 view .LVU518
 1572 0052 D0F81C28 		ldr	r2, [r0, #2076]
 660:Drivers/STM32L4xx_HAL_Driver/Src/stm32l4xx_ll_usb.c ****   }
 1573              		.loc 1 660 77 view .LVU519
 1574 0056 0978     		ldrb	r1, [r1]	@ zero_extendqisi2
 1575              	.LVL106:
 660:Drivers/STM32L4xx_HAL_Driver/Src/stm32l4xx_ll_usb.c ****   }
 1576              		.loc 1 660 83 view .LVU520
 1577 0058 01F00F01 		and	r1, r1, #15
 660:Drivers/STM32L4xx_HAL_Driver/Src/stm32l4xx_ll_usb.c ****   }
 1578              		.loc 1 660 56 view .LVU521
 1579 005c 0123     		movs	r3, #1
 1580 005e 8B40     		lsls	r3, r3, r1
 660:Drivers/STM32L4xx_HAL_Driver/Src/stm32l4xx_ll_usb.c ****   }
 1581              		.loc 1 660 54 view .LVU522
 1582 0060 9BB2     		uxth	r3, r3
 660:Drivers/STM32L4xx_HAL_Driver/Src/stm32l4xx_ll_usb.c ****   }
 1583              		.loc 1 660 27 view .LVU523
 1584 0062 22EA0303 		bic	r3, r2, r3
 1585 0066 C0F81C38 		str	r3, [r0, #2076]
 1586 006a E4E7     		b	.L111
 1587              	.LVL107:
 1588              	.L115:
 655:Drivers/STM32L4xx_HAL_Driver/Src/stm32l4xx_ll_usb.c ****       USBx_INEP(epnum)->DIEPCTL  |= USB_OTG_DIEPCTL_EPDIS;
 1589              		.loc 1 655 7 is_stmt 1 view .LVU524
 655:Drivers/STM32L4xx_HAL_Driver/Src/stm32l4xx_ll_usb.c ****       USBx_INEP(epnum)->DIEPCTL  |= USB_OTG_DIEPCTL_EPDIS;
 1590              		.loc 1 655 23 is_stmt 0 view .LVU525
 1591 006c D3F80029 		ldr	r2, [r3, #2304]
 655:Drivers/STM32L4xx_HAL_Driver/Src/stm32l4xx_ll_usb.c ****       USBx_INEP(epnum)->DIEPCTL  |= USB_OTG_DIEPCTL_EPDIS;
 1592              		.loc 1 655 34 view .LVU526
 1593 0070 42F00062 		orr	r2, r2, #134217728
 1594 0074 C3F80029 		str	r2, [r3, #2304]
 1595              	.LVL108:
 656:Drivers/STM32L4xx_HAL_Driver/Src/stm32l4xx_ll_usb.c ****     }
 1596              		.loc 1 656 7 is_stmt 1 view .LVU527
 656:Drivers/STM32L4xx_HAL_Driver/Src/stm32l4xx_ll_usb.c ****     }
 1597              		.loc 1 656 23 is_stmt 0 view .LVU528
 1598 0078 D3F80029 		ldr	r2, [r3, #2304]
 656:Drivers/STM32L4xx_HAL_Driver/Src/stm32l4xx_ll_usb.c ****     }
 1599              		.loc 1 656 34 view .LVU529
 1600 007c 42F08042 		orr	r2, r2, #1073741824
 1601 0080 C3F80029 		str	r2, [r3, #2304]
 1602 0084 DFE7     		b	.L110
 1603              	.LVL109:
 1604              	.L114:
 666:Drivers/STM32L4xx_HAL_Driver/Src/stm32l4xx_ll_usb.c ****       USBx_OUTEP(epnum)->DOEPCTL  |= USB_OTG_DOEPCTL_EPDIS;
 1605              		.loc 1 666 7 is_stmt 1 view .LVU530
 666:Drivers/STM32L4xx_HAL_Driver/Src/stm32l4xx_ll_usb.c ****       USBx_OUTEP(epnum)->DOEPCTL  |= USB_OTG_DOEPCTL_EPDIS;
 1606              		.loc 1 666 24 is_stmt 0 view .LVU531
 1607 0086 D3F8002B 		ldr	r2, [r3, #2816]
 666:Drivers/STM32L4xx_HAL_Driver/Src/stm32l4xx_ll_usb.c ****       USBx_OUTEP(epnum)->DOEPCTL  |= USB_OTG_DOEPCTL_EPDIS;
 1608              		.loc 1 666 35 view .LVU532
 1609 008a 42F00062 		orr	r2, r2, #134217728
 1610 008e C3F8002B 		str	r2, [r3, #2816]
 1611              	.LVL110:
ARM GAS  /tmp/ccdWnOQF.s 			page 61


 667:Drivers/STM32L4xx_HAL_Driver/Src/stm32l4xx_ll_usb.c ****     }
 1612              		.loc 1 667 7 is_stmt 1 view .LVU533
 667:Drivers/STM32L4xx_HAL_Driver/Src/stm32l4xx_ll_usb.c ****     }
 1613              		.loc 1 667 24 is_stmt 0 view .LVU534
 1614 0092 D3F8002B 		ldr	r2, [r3, #2816]
 667:Drivers/STM32L4xx_HAL_Driver/Src/stm32l4xx_ll_usb.c ****     }
 1615              		.loc 1 667 35 view .LVU535
 1616 0096 42F08042 		orr	r2, r2, #1073741824
 1617 009a C3F8002B 		str	r2, [r3, #2816]
 1618 009e B9E7     		b	.L112
 1619              		.cfi_endproc
 1620              	.LFE145:
 1622              		.section	.text.USB_EP0StartXfer,"ax",%progbits
 1623              		.align	1
 1624              		.global	USB_EP0StartXfer
 1625              		.syntax unified
 1626              		.thumb
 1627              		.thumb_func
 1629              	USB_EP0StartXfer:
 1630              	.LVL111:
 1631              	.LFB147:
 792:Drivers/STM32L4xx_HAL_Driver/Src/stm32l4xx_ll_usb.c ****   uint32_t USBx_BASE = (uint32_t)USBx;
 1632              		.loc 1 792 1 is_stmt 1 view -0
 1633              		.cfi_startproc
 1634              		@ args = 0, pretend = 0, frame = 0
 1635              		@ frame_needed = 0, uses_anonymous_args = 0
 1636              		@ link register save eliminated.
 793:Drivers/STM32L4xx_HAL_Driver/Src/stm32l4xx_ll_usb.c ****   uint32_t epnum = (uint32_t)ep->num;
 1637              		.loc 1 793 3 view .LVU537
 794:Drivers/STM32L4xx_HAL_Driver/Src/stm32l4xx_ll_usb.c **** 
 1638              		.loc 1 794 3 view .LVU538
 794:Drivers/STM32L4xx_HAL_Driver/Src/stm32l4xx_ll_usb.c **** 
 1639              		.loc 1 794 32 is_stmt 0 view .LVU539
 1640 0000 0B78     		ldrb	r3, [r1]	@ zero_extendqisi2
 1641              	.LVL112:
 797:Drivers/STM32L4xx_HAL_Driver/Src/stm32l4xx_ll_usb.c ****   {
 1642              		.loc 1 797 3 is_stmt 1 view .LVU540
 797:Drivers/STM32L4xx_HAL_Driver/Src/stm32l4xx_ll_usb.c ****   {
 1643              		.loc 1 797 9 is_stmt 0 view .LVU541
 1644 0002 4A78     		ldrb	r2, [r1, #1]	@ zero_extendqisi2
 797:Drivers/STM32L4xx_HAL_Driver/Src/stm32l4xx_ll_usb.c ****   {
 1645              		.loc 1 797 6 view .LVU542
 1646 0004 012A     		cmp	r2, #1
 1647 0006 25D0     		beq	.L127
 839:Drivers/STM32L4xx_HAL_Driver/Src/stm32l4xx_ll_usb.c ****     USBx_OUTEP(epnum)->DOEPTSIZ &= ~(USB_OTG_DOEPTSIZ_PKTCNT);
 1648              		.loc 1 839 5 is_stmt 1 view .LVU543
 839:Drivers/STM32L4xx_HAL_Driver/Src/stm32l4xx_ll_usb.c ****     USBx_OUTEP(epnum)->DOEPTSIZ &= ~(USB_OTG_DOEPTSIZ_PKTCNT);
 1649              		.loc 1 839 22 is_stmt 0 view .LVU544
 1650 0008 00EB4310 		add	r0, r0, r3, lsl #5
 1651              	.LVL113:
 839:Drivers/STM32L4xx_HAL_Driver/Src/stm32l4xx_ll_usb.c ****     USBx_OUTEP(epnum)->DOEPTSIZ &= ~(USB_OTG_DOEPTSIZ_PKTCNT);
 1652              		.loc 1 839 22 view .LVU545
 1653 000c 00F53063 		add	r3, r0, #2816
 1654              	.LVL114:
 839:Drivers/STM32L4xx_HAL_Driver/Src/stm32l4xx_ll_usb.c ****     USBx_OUTEP(epnum)->DOEPTSIZ &= ~(USB_OTG_DOEPTSIZ_PKTCNT);
 1655              		.loc 1 839 22 view .LVU546
 1656 0010 1A69     		ldr	r2, [r3, #16]
ARM GAS  /tmp/ccdWnOQF.s 			page 62


 839:Drivers/STM32L4xx_HAL_Driver/Src/stm32l4xx_ll_usb.c ****     USBx_OUTEP(epnum)->DOEPTSIZ &= ~(USB_OTG_DOEPTSIZ_PKTCNT);
 1657              		.loc 1 839 33 view .LVU547
 1658 0012 D20C     		lsrs	r2, r2, #19
 1659 0014 D204     		lsls	r2, r2, #19
 1660 0016 1A61     		str	r2, [r3, #16]
 1661              	.LVL115:
 840:Drivers/STM32L4xx_HAL_Driver/Src/stm32l4xx_ll_usb.c **** 
 1662              		.loc 1 840 5 is_stmt 1 view .LVU548
 840:Drivers/STM32L4xx_HAL_Driver/Src/stm32l4xx_ll_usb.c **** 
 1663              		.loc 1 840 22 is_stmt 0 view .LVU549
 1664 0018 1A69     		ldr	r2, [r3, #16]
 840:Drivers/STM32L4xx_HAL_Driver/Src/stm32l4xx_ll_usb.c **** 
 1665              		.loc 1 840 33 view .LVU550
 1666 001a 22F0FF52 		bic	r2, r2, #534773760
 1667 001e 22F4C012 		bic	r2, r2, #1572864
 1668 0022 1A61     		str	r2, [r3, #16]
 842:Drivers/STM32L4xx_HAL_Driver/Src/stm32l4xx_ll_usb.c ****     {
 1669              		.loc 1 842 5 is_stmt 1 view .LVU551
 842:Drivers/STM32L4xx_HAL_Driver/Src/stm32l4xx_ll_usb.c ****     {
 1670              		.loc 1 842 11 is_stmt 0 view .LVU552
 1671 0024 8A69     		ldr	r2, [r1, #24]
 842:Drivers/STM32L4xx_HAL_Driver/Src/stm32l4xx_ll_usb.c ****     {
 1672              		.loc 1 842 8 view .LVU553
 1673 0026 0AB1     		cbz	r2, .L122
 844:Drivers/STM32L4xx_HAL_Driver/Src/stm32l4xx_ll_usb.c ****     }
 1674              		.loc 1 844 7 is_stmt 1 view .LVU554
 844:Drivers/STM32L4xx_HAL_Driver/Src/stm32l4xx_ll_usb.c ****     }
 1675              		.loc 1 844 24 is_stmt 0 view .LVU555
 1676 0028 CA68     		ldr	r2, [r1, #12]
 844:Drivers/STM32L4xx_HAL_Driver/Src/stm32l4xx_ll_usb.c ****     }
 1677              		.loc 1 844 20 view .LVU556
 1678 002a 8A61     		str	r2, [r1, #24]
 1679              	.L122:
 848:Drivers/STM32L4xx_HAL_Driver/Src/stm32l4xx_ll_usb.c **** 
 1680              		.loc 1 848 5 is_stmt 1 view .LVU557
 848:Drivers/STM32L4xx_HAL_Driver/Src/stm32l4xx_ll_usb.c **** 
 1681              		.loc 1 848 23 is_stmt 0 view .LVU558
 1682 002c CA68     		ldr	r2, [r1, #12]
 848:Drivers/STM32L4xx_HAL_Driver/Src/stm32l4xx_ll_usb.c **** 
 1683              		.loc 1 848 19 view .LVU559
 1684 002e CA61     		str	r2, [r1, #28]
 850:Drivers/STM32L4xx_HAL_Driver/Src/stm32l4xx_ll_usb.c ****     USBx_OUTEP(epnum)->DOEPTSIZ |= (USB_OTG_DOEPTSIZ_XFRSIZ & ep->xfer_size);
 1685              		.loc 1 850 5 is_stmt 1 view .LVU560
 850:Drivers/STM32L4xx_HAL_Driver/Src/stm32l4xx_ll_usb.c ****     USBx_OUTEP(epnum)->DOEPTSIZ |= (USB_OTG_DOEPTSIZ_XFRSIZ & ep->xfer_size);
 1686              		.loc 1 850 22 is_stmt 0 view .LVU561
 1687 0030 1A69     		ldr	r2, [r3, #16]
 850:Drivers/STM32L4xx_HAL_Driver/Src/stm32l4xx_ll_usb.c ****     USBx_OUTEP(epnum)->DOEPTSIZ |= (USB_OTG_DOEPTSIZ_XFRSIZ & ep->xfer_size);
 1688              		.loc 1 850 33 view .LVU562
 1689 0032 42F40022 		orr	r2, r2, #524288
 1690 0036 1A61     		str	r2, [r3, #16]
 851:Drivers/STM32L4xx_HAL_Driver/Src/stm32l4xx_ll_usb.c **** 
 1691              		.loc 1 851 5 is_stmt 1 view .LVU563
 851:Drivers/STM32L4xx_HAL_Driver/Src/stm32l4xx_ll_usb.c **** 
 1692              		.loc 1 851 22 is_stmt 0 view .LVU564
 1693 0038 1A69     		ldr	r2, [r3, #16]
 851:Drivers/STM32L4xx_HAL_Driver/Src/stm32l4xx_ll_usb.c **** 
 1694              		.loc 1 851 65 view .LVU565
ARM GAS  /tmp/ccdWnOQF.s 			page 63


 1695 003a C969     		ldr	r1, [r1, #28]
 1696              	.LVL116:
 851:Drivers/STM32L4xx_HAL_Driver/Src/stm32l4xx_ll_usb.c **** 
 1697              		.loc 1 851 61 view .LVU566
 1698 003c C1F31201 		ubfx	r1, r1, #0, #19
 851:Drivers/STM32L4xx_HAL_Driver/Src/stm32l4xx_ll_usb.c **** 
 1699              		.loc 1 851 33 view .LVU567
 1700 0040 0A43     		orrs	r2, r2, r1
 1701 0042 1A61     		str	r2, [r3, #16]
 854:Drivers/STM32L4xx_HAL_Driver/Src/stm32l4xx_ll_usb.c ****   }
 1702              		.loc 1 854 5 is_stmt 1 view .LVU568
 854:Drivers/STM32L4xx_HAL_Driver/Src/stm32l4xx_ll_usb.c ****   }
 1703              		.loc 1 854 22 is_stmt 0 view .LVU569
 1704 0044 D0F8003B 		ldr	r3, [r0, #2816]
 854:Drivers/STM32L4xx_HAL_Driver/Src/stm32l4xx_ll_usb.c ****   }
 1705              		.loc 1 854 32 view .LVU570
 1706 0048 43F00443 		orr	r3, r3, #-2080374784
 1707 004c C0F8003B 		str	r3, [r0, #2816]
 857:Drivers/STM32L4xx_HAL_Driver/Src/stm32l4xx_ll_usb.c **** }
 1708              		.loc 1 857 3 is_stmt 1 view .LVU571
 858:Drivers/STM32L4xx_HAL_Driver/Src/stm32l4xx_ll_usb.c **** 
 1709              		.loc 1 858 1 is_stmt 0 view .LVU572
 1710 0050 0020     		movs	r0, #0
 1711 0052 7047     		bx	lr
 1712              	.LVL117:
 1713              	.L127:
 792:Drivers/STM32L4xx_HAL_Driver/Src/stm32l4xx_ll_usb.c ****   uint32_t USBx_BASE = (uint32_t)USBx;
 1714              		.loc 1 792 1 view .LVU573
 1715 0054 30B4     		push	{r4, r5}
 1716              		.cfi_def_cfa_offset 8
 1717              		.cfi_offset 4, -8
 1718              		.cfi_offset 5, -4
 800:Drivers/STM32L4xx_HAL_Driver/Src/stm32l4xx_ll_usb.c ****     {
 1719              		.loc 1 800 5 is_stmt 1 view .LVU574
 800:Drivers/STM32L4xx_HAL_Driver/Src/stm32l4xx_ll_usb.c ****     {
 1720              		.loc 1 800 11 is_stmt 0 view .LVU575
 1721 0056 8A69     		ldr	r2, [r1, #24]
 800:Drivers/STM32L4xx_HAL_Driver/Src/stm32l4xx_ll_usb.c ****     {
 1722              		.loc 1 800 8 view .LVU576
 1723 0058 62BB     		cbnz	r2, .L118
 802:Drivers/STM32L4xx_HAL_Driver/Src/stm32l4xx_ll_usb.c ****       USBx_INEP(epnum)->DIEPTSIZ |= (USB_OTG_DIEPTSIZ_PKTCNT & (1U << 19));
 1724              		.loc 1 802 7 is_stmt 1 view .LVU577
 802:Drivers/STM32L4xx_HAL_Driver/Src/stm32l4xx_ll_usb.c ****       USBx_INEP(epnum)->DIEPTSIZ |= (USB_OTG_DIEPTSIZ_PKTCNT & (1U << 19));
 1725              		.loc 1 802 23 is_stmt 0 view .LVU578
 1726 005a 00EB4312 		add	r2, r0, r3, lsl #5
 1727 005e D2F81049 		ldr	r4, [r2, #2320]
 802:Drivers/STM32L4xx_HAL_Driver/Src/stm32l4xx_ll_usb.c ****       USBx_INEP(epnum)->DIEPTSIZ |= (USB_OTG_DIEPTSIZ_PKTCNT & (1U << 19));
 1728              		.loc 1 802 34 view .LVU579
 1729 0062 24F0FF54 		bic	r4, r4, #534773760
 1730 0066 24F4C014 		bic	r4, r4, #1572864
 1731 006a C2F81049 		str	r4, [r2, #2320]
 803:Drivers/STM32L4xx_HAL_Driver/Src/stm32l4xx_ll_usb.c ****       USBx_INEP(epnum)->DIEPTSIZ &= ~(USB_OTG_DIEPTSIZ_XFRSIZ);
 1732              		.loc 1 803 7 is_stmt 1 view .LVU580
 803:Drivers/STM32L4xx_HAL_Driver/Src/stm32l4xx_ll_usb.c ****       USBx_INEP(epnum)->DIEPTSIZ &= ~(USB_OTG_DIEPTSIZ_XFRSIZ);
 1733              		.loc 1 803 23 is_stmt 0 view .LVU581
 1734 006e D2F81049 		ldr	r4, [r2, #2320]
 803:Drivers/STM32L4xx_HAL_Driver/Src/stm32l4xx_ll_usb.c ****       USBx_INEP(epnum)->DIEPTSIZ &= ~(USB_OTG_DIEPTSIZ_XFRSIZ);
ARM GAS  /tmp/ccdWnOQF.s 			page 64


 1735              		.loc 1 803 34 view .LVU582
 1736 0072 44F40024 		orr	r4, r4, #524288
 1737 0076 C2F81049 		str	r4, [r2, #2320]
 804:Drivers/STM32L4xx_HAL_Driver/Src/stm32l4xx_ll_usb.c ****     }
 1738              		.loc 1 804 7 is_stmt 1 view .LVU583
 804:Drivers/STM32L4xx_HAL_Driver/Src/stm32l4xx_ll_usb.c ****     }
 1739              		.loc 1 804 23 is_stmt 0 view .LVU584
 1740 007a D2F81049 		ldr	r4, [r2, #2320]
 804:Drivers/STM32L4xx_HAL_Driver/Src/stm32l4xx_ll_usb.c ****     }
 1741              		.loc 1 804 34 view .LVU585
 1742 007e E40C     		lsrs	r4, r4, #19
 1743 0080 E404     		lsls	r4, r4, #19
 1744 0082 C2F81049 		str	r4, [r2, #2320]
 1745              	.L119:
 825:Drivers/STM32L4xx_HAL_Driver/Src/stm32l4xx_ll_usb.c **** 
 1746              		.loc 1 825 5 is_stmt 1 view .LVU586
 825:Drivers/STM32L4xx_HAL_Driver/Src/stm32l4xx_ll_usb.c **** 
 1747              		.loc 1 825 21 is_stmt 0 view .LVU587
 1748 0086 00EB4313 		add	r3, r0, r3, lsl #5
 1749              	.LVL118:
 825:Drivers/STM32L4xx_HAL_Driver/Src/stm32l4xx_ll_usb.c **** 
 1750              		.loc 1 825 21 view .LVU588
 1751 008a D3F80029 		ldr	r2, [r3, #2304]
 825:Drivers/STM32L4xx_HAL_Driver/Src/stm32l4xx_ll_usb.c **** 
 1752              		.loc 1 825 31 view .LVU589
 1753 008e 42F00442 		orr	r2, r2, #-2080374784
 1754 0092 C3F80029 		str	r2, [r3, #2304]
 828:Drivers/STM32L4xx_HAL_Driver/Src/stm32l4xx_ll_usb.c ****     {
 1755              		.loc 1 828 5 is_stmt 1 view .LVU590
 828:Drivers/STM32L4xx_HAL_Driver/Src/stm32l4xx_ll_usb.c ****     {
 1756              		.loc 1 828 11 is_stmt 0 view .LVU591
 1757 0096 8B69     		ldr	r3, [r1, #24]
 828:Drivers/STM32L4xx_HAL_Driver/Src/stm32l4xx_ll_usb.c ****     {
 1758              		.loc 1 828 8 view .LVU592
 1759 0098 4BB1     		cbz	r3, .L121
 830:Drivers/STM32L4xx_HAL_Driver/Src/stm32l4xx_ll_usb.c ****     }
 1760              		.loc 1 830 7 is_stmt 1 view .LVU593
 830:Drivers/STM32L4xx_HAL_Driver/Src/stm32l4xx_ll_usb.c ****     }
 1761              		.loc 1 830 18 is_stmt 0 view .LVU594
 1762 009a D0F83438 		ldr	r3, [r0, #2100]
 830:Drivers/STM32L4xx_HAL_Driver/Src/stm32l4xx_ll_usb.c ****     }
 1763              		.loc 1 830 44 view .LVU595
 1764 009e 0978     		ldrb	r1, [r1]	@ zero_extendqisi2
 1765              	.LVL119:
 830:Drivers/STM32L4xx_HAL_Driver/Src/stm32l4xx_ll_usb.c ****     }
 1766              		.loc 1 830 50 view .LVU596
 1767 00a0 01F00F01 		and	r1, r1, #15
 830:Drivers/STM32L4xx_HAL_Driver/Src/stm32l4xx_ll_usb.c ****     }
 1768              		.loc 1 830 38 view .LVU597
 1769 00a4 0122     		movs	r2, #1
 1770 00a6 8A40     		lsls	r2, r2, r1
 830:Drivers/STM32L4xx_HAL_Driver/Src/stm32l4xx_ll_usb.c ****     }
 1771              		.loc 1 830 31 view .LVU598
 1772 00a8 1343     		orrs	r3, r3, r2
 1773 00aa C0F83438 		str	r3, [r0, #2100]
 1774              	.L121:
 857:Drivers/STM32L4xx_HAL_Driver/Src/stm32l4xx_ll_usb.c **** }
ARM GAS  /tmp/ccdWnOQF.s 			page 65


 1775              		.loc 1 857 3 is_stmt 1 view .LVU599
 858:Drivers/STM32L4xx_HAL_Driver/Src/stm32l4xx_ll_usb.c **** 
 1776              		.loc 1 858 1 is_stmt 0 view .LVU600
 1777 00ae 0020     		movs	r0, #0
 1778              	.LVL120:
 858:Drivers/STM32L4xx_HAL_Driver/Src/stm32l4xx_ll_usb.c **** 
 1779              		.loc 1 858 1 view .LVU601
 1780 00b0 30BC     		pop	{r4, r5}
 1781              		.cfi_remember_state
 1782              		.cfi_restore 5
 1783              		.cfi_restore 4
 1784              		.cfi_def_cfa_offset 0
 1785 00b2 7047     		bx	lr
 1786              	.LVL121:
 1787              	.L118:
 1788              		.cfi_restore_state
 813:Drivers/STM32L4xx_HAL_Driver/Src/stm32l4xx_ll_usb.c ****       USBx_INEP(epnum)->DIEPTSIZ &= ~(USB_OTG_DIEPTSIZ_PKTCNT);
 1789              		.loc 1 813 7 is_stmt 1 view .LVU602
 813:Drivers/STM32L4xx_HAL_Driver/Src/stm32l4xx_ll_usb.c ****       USBx_INEP(epnum)->DIEPTSIZ &= ~(USB_OTG_DIEPTSIZ_PKTCNT);
 1790              		.loc 1 813 23 is_stmt 0 view .LVU603
 1791 00b4 00EB4312 		add	r2, r0, r3, lsl #5
 1792 00b8 02F51062 		add	r2, r2, #2304
 1793 00bc 1469     		ldr	r4, [r2, #16]
 813:Drivers/STM32L4xx_HAL_Driver/Src/stm32l4xx_ll_usb.c ****       USBx_INEP(epnum)->DIEPTSIZ &= ~(USB_OTG_DIEPTSIZ_PKTCNT);
 1794              		.loc 1 813 34 view .LVU604
 1795 00be E40C     		lsrs	r4, r4, #19
 1796 00c0 E404     		lsls	r4, r4, #19
 1797 00c2 1461     		str	r4, [r2, #16]
 814:Drivers/STM32L4xx_HAL_Driver/Src/stm32l4xx_ll_usb.c **** 
 1798              		.loc 1 814 7 is_stmt 1 view .LVU605
 814:Drivers/STM32L4xx_HAL_Driver/Src/stm32l4xx_ll_usb.c **** 
 1799              		.loc 1 814 23 is_stmt 0 view .LVU606
 1800 00c4 1469     		ldr	r4, [r2, #16]
 814:Drivers/STM32L4xx_HAL_Driver/Src/stm32l4xx_ll_usb.c **** 
 1801              		.loc 1 814 34 view .LVU607
 1802 00c6 24F0FF54 		bic	r4, r4, #534773760
 1803 00ca 24F4C014 		bic	r4, r4, #1572864
 1804 00ce 1461     		str	r4, [r2, #16]
 816:Drivers/STM32L4xx_HAL_Driver/Src/stm32l4xx_ll_usb.c ****       {
 1805              		.loc 1 816 7 is_stmt 1 view .LVU608
 816:Drivers/STM32L4xx_HAL_Driver/Src/stm32l4xx_ll_usb.c ****       {
 1806              		.loc 1 816 28 is_stmt 0 view .LVU609
 1807 00d0 CC68     		ldr	r4, [r1, #12]
 816:Drivers/STM32L4xx_HAL_Driver/Src/stm32l4xx_ll_usb.c ****       {
 1808              		.loc 1 816 10 view .LVU610
 1809 00d2 8D69     		ldr	r5, [r1, #24]
 1810 00d4 A542     		cmp	r5, r4
 1811 00d6 00D9     		bls	.L120
 818:Drivers/STM32L4xx_HAL_Driver/Src/stm32l4xx_ll_usb.c ****       }
 1812              		.loc 1 818 9 is_stmt 1 view .LVU611
 818:Drivers/STM32L4xx_HAL_Driver/Src/stm32l4xx_ll_usb.c ****       }
 1813              		.loc 1 818 22 is_stmt 0 view .LVU612
 1814 00d8 8C61     		str	r4, [r1, #24]
 1815              	.L120:
 820:Drivers/STM32L4xx_HAL_Driver/Src/stm32l4xx_ll_usb.c ****       USBx_INEP(epnum)->DIEPTSIZ |= (USB_OTG_DIEPTSIZ_XFRSIZ & ep->xfer_len);
 1816              		.loc 1 820 7 is_stmt 1 view .LVU613
 820:Drivers/STM32L4xx_HAL_Driver/Src/stm32l4xx_ll_usb.c ****       USBx_INEP(epnum)->DIEPTSIZ |= (USB_OTG_DIEPTSIZ_XFRSIZ & ep->xfer_len);
ARM GAS  /tmp/ccdWnOQF.s 			page 66


 1817              		.loc 1 820 23 is_stmt 0 view .LVU614
 1818 00da 1469     		ldr	r4, [r2, #16]
 820:Drivers/STM32L4xx_HAL_Driver/Src/stm32l4xx_ll_usb.c ****       USBx_INEP(epnum)->DIEPTSIZ |= (USB_OTG_DIEPTSIZ_XFRSIZ & ep->xfer_len);
 1819              		.loc 1 820 34 view .LVU615
 1820 00dc 44F40024 		orr	r4, r4, #524288
 1821 00e0 1461     		str	r4, [r2, #16]
 821:Drivers/STM32L4xx_HAL_Driver/Src/stm32l4xx_ll_usb.c ****     }
 1822              		.loc 1 821 7 is_stmt 1 view .LVU616
 821:Drivers/STM32L4xx_HAL_Driver/Src/stm32l4xx_ll_usb.c ****     }
 1823              		.loc 1 821 23 is_stmt 0 view .LVU617
 1824 00e2 1469     		ldr	r4, [r2, #16]
 821:Drivers/STM32L4xx_HAL_Driver/Src/stm32l4xx_ll_usb.c ****     }
 1825              		.loc 1 821 62 view .LVU618
 1826 00e4 8D69     		ldr	r5, [r1, #24]
 1827 00e6 C5F3120C 		ubfx	ip, r5, #0, #19
 821:Drivers/STM32L4xx_HAL_Driver/Src/stm32l4xx_ll_usb.c ****     }
 1828              		.loc 1 821 34 view .LVU619
 1829 00ea 44EA0C04 		orr	r4, r4, ip
 1830 00ee 1461     		str	r4, [r2, #16]
 1831 00f0 C9E7     		b	.L119
 1832              		.cfi_endproc
 1833              	.LFE147:
 1835              		.section	.text.USB_EPStopXfer,"ax",%progbits
 1836              		.align	1
 1837              		.global	USB_EPStopXfer
 1838              		.syntax unified
 1839              		.thumb
 1840              		.thumb_func
 1842              	USB_EPStopXfer:
 1843              	.LVL122:
 1844              	.LFB148:
 868:Drivers/STM32L4xx_HAL_Driver/Src/stm32l4xx_ll_usb.c ****   __IO uint32_t count = 0U;
 1845              		.loc 1 868 1 is_stmt 1 view -0
 1846              		.cfi_startproc
 1847              		@ args = 0, pretend = 0, frame = 8
 1848              		@ frame_needed = 0, uses_anonymous_args = 0
 1849              		@ link register save eliminated.
 868:Drivers/STM32L4xx_HAL_Driver/Src/stm32l4xx_ll_usb.c ****   __IO uint32_t count = 0U;
 1850              		.loc 1 868 1 is_stmt 0 view .LVU621
 1851 0000 10B4     		push	{r4}
 1852              		.cfi_def_cfa_offset 4
 1853              		.cfi_offset 4, -4
 1854 0002 83B0     		sub	sp, sp, #12
 1855              		.cfi_def_cfa_offset 16
 1856 0004 0246     		mov	r2, r0
 869:Drivers/STM32L4xx_HAL_Driver/Src/stm32l4xx_ll_usb.c ****   HAL_StatusTypeDef ret = HAL_OK;
 1857              		.loc 1 869 3 is_stmt 1 view .LVU622
 869:Drivers/STM32L4xx_HAL_Driver/Src/stm32l4xx_ll_usb.c ****   HAL_StatusTypeDef ret = HAL_OK;
 1858              		.loc 1 869 17 is_stmt 0 view .LVU623
 1859 0006 0023     		movs	r3, #0
 1860 0008 0193     		str	r3, [sp, #4]
 870:Drivers/STM32L4xx_HAL_Driver/Src/stm32l4xx_ll_usb.c ****   uint32_t USBx_BASE = (uint32_t)USBx;
 1861              		.loc 1 870 3 is_stmt 1 view .LVU624
 1862              	.LVL123:
 871:Drivers/STM32L4xx_HAL_Driver/Src/stm32l4xx_ll_usb.c **** 
 1863              		.loc 1 871 3 view .LVU625
 874:Drivers/STM32L4xx_HAL_Driver/Src/stm32l4xx_ll_usb.c ****   {
ARM GAS  /tmp/ccdWnOQF.s 			page 67


 1864              		.loc 1 874 3 view .LVU626
 874:Drivers/STM32L4xx_HAL_Driver/Src/stm32l4xx_ll_usb.c ****   {
 1865              		.loc 1 874 9 is_stmt 0 view .LVU627
 1866 000a 4878     		ldrb	r0, [r1, #1]	@ zero_extendqisi2
 1867              	.LVL124:
 874:Drivers/STM32L4xx_HAL_Driver/Src/stm32l4xx_ll_usb.c ****   {
 1868              		.loc 1 874 6 view .LVU628
 1869 000c 0128     		cmp	r0, #1
 1870 000e 0BD0     		beq	.L137
 896:Drivers/STM32L4xx_HAL_Driver/Src/stm32l4xx_ll_usb.c ****     {
 1871              		.loc 1 896 5 is_stmt 1 view .LVU629
 896:Drivers/STM32L4xx_HAL_Driver/Src/stm32l4xx_ll_usb.c ****     {
 1872              		.loc 1 896 11 is_stmt 0 view .LVU630
 1873 0010 0B78     		ldrb	r3, [r1]	@ zero_extendqisi2
 1874 0012 02EB4313 		add	r3, r2, r3, lsl #5
 896:Drivers/STM32L4xx_HAL_Driver/Src/stm32l4xx_ll_usb.c ****     {
 1875              		.loc 1 896 30 view .LVU631
 1876 0016 D3F8000B 		ldr	r0, [r3, #2816]
 896:Drivers/STM32L4xx_HAL_Driver/Src/stm32l4xx_ll_usb.c ****     {
 1877              		.loc 1 896 8 view .LVU632
 1878 001a 0028     		cmp	r0, #0
 1879 001c 2DDB     		blt	.L138
 870:Drivers/STM32L4xx_HAL_Driver/Src/stm32l4xx_ll_usb.c ****   uint32_t USBx_BASE = (uint32_t)USBx;
 1880              		.loc 1 870 21 view .LVU633
 1881 001e 0020     		movs	r0, #0
 1882              	.L130:
 1883              	.LVL125:
 914:Drivers/STM32L4xx_HAL_Driver/Src/stm32l4xx_ll_usb.c **** }
 1884              		.loc 1 914 3 is_stmt 1 view .LVU634
 915:Drivers/STM32L4xx_HAL_Driver/Src/stm32l4xx_ll_usb.c **** 
 1885              		.loc 1 915 1 is_stmt 0 view .LVU635
 1886 0020 03B0     		add	sp, sp, #12
 1887              		.cfi_remember_state
 1888              		.cfi_def_cfa_offset 4
 1889              		@ sp needed
 1890 0022 5DF8044B 		ldr	r4, [sp], #4
 1891              		.cfi_restore 4
 1892              		.cfi_def_cfa_offset 0
 1893 0026 7047     		bx	lr
 1894              	.LVL126:
 1895              	.L137:
 1896              		.cfi_restore_state
 877:Drivers/STM32L4xx_HAL_Driver/Src/stm32l4xx_ll_usb.c ****     {
 1897              		.loc 1 877 5 is_stmt 1 view .LVU636
 877:Drivers/STM32L4xx_HAL_Driver/Src/stm32l4xx_ll_usb.c ****     {
 1898              		.loc 1 877 11 is_stmt 0 view .LVU637
 1899 0028 0B78     		ldrb	r3, [r1]	@ zero_extendqisi2
 1900 002a 02EB4313 		add	r3, r2, r3, lsl #5
 877:Drivers/STM32L4xx_HAL_Driver/Src/stm32l4xx_ll_usb.c ****     {
 1901              		.loc 1 877 29 view .LVU638
 1902 002e D3F80049 		ldr	r4, [r3, #2304]
 877:Drivers/STM32L4xx_HAL_Driver/Src/stm32l4xx_ll_usb.c ****     {
 1903              		.loc 1 877 8 view .LVU639
 1904 0032 002C     		cmp	r4, #0
 1905 0034 01DB     		blt	.L139
 870:Drivers/STM32L4xx_HAL_Driver/Src/stm32l4xx_ll_usb.c ****   uint32_t USBx_BASE = (uint32_t)USBx;
 1906              		.loc 1 870 21 view .LVU640
ARM GAS  /tmp/ccdWnOQF.s 			page 68


 1907 0036 0020     		movs	r0, #0
 1908 0038 F2E7     		b	.L130
 1909              	.L139:
 879:Drivers/STM32L4xx_HAL_Driver/Src/stm32l4xx_ll_usb.c ****       USBx_INEP(ep->num)->DIEPCTL |= (USB_OTG_DIEPCTL_EPDIS);
 1910              		.loc 1 879 7 is_stmt 1 view .LVU641
 879:Drivers/STM32L4xx_HAL_Driver/Src/stm32l4xx_ll_usb.c ****       USBx_INEP(ep->num)->DIEPCTL |= (USB_OTG_DIEPCTL_EPDIS);
 1911              		.loc 1 879 25 is_stmt 0 view .LVU642
 1912 003a D3F80049 		ldr	r4, [r3, #2304]
 879:Drivers/STM32L4xx_HAL_Driver/Src/stm32l4xx_ll_usb.c ****       USBx_INEP(ep->num)->DIEPCTL |= (USB_OTG_DIEPCTL_EPDIS);
 1913              		.loc 1 879 35 view .LVU643
 1914 003e 44F00064 		orr	r4, r4, #134217728
 1915 0042 C3F80049 		str	r4, [r3, #2304]
 880:Drivers/STM32L4xx_HAL_Driver/Src/stm32l4xx_ll_usb.c **** 
 1916              		.loc 1 880 7 is_stmt 1 view .LVU644
 1917 0046 0B78     		ldrb	r3, [r1]	@ zero_extendqisi2
 880:Drivers/STM32L4xx_HAL_Driver/Src/stm32l4xx_ll_usb.c **** 
 1918              		.loc 1 880 25 is_stmt 0 view .LVU645
 1919 0048 02EB4313 		add	r3, r2, r3, lsl #5
 1920 004c D3F80049 		ldr	r4, [r3, #2304]
 880:Drivers/STM32L4xx_HAL_Driver/Src/stm32l4xx_ll_usb.c **** 
 1921              		.loc 1 880 35 view .LVU646
 1922 0050 44F08044 		orr	r4, r4, #1073741824
 1923 0054 C3F80049 		str	r4, [r3, #2304]
 1924              	.L131:
 882:Drivers/STM32L4xx_HAL_Driver/Src/stm32l4xx_ll_usb.c ****       {
 1925              		.loc 1 882 7 is_stmt 1 view .LVU647
 884:Drivers/STM32L4xx_HAL_Driver/Src/stm32l4xx_ll_usb.c **** 
 1926              		.loc 1 884 9 view .LVU648
 884:Drivers/STM32L4xx_HAL_Driver/Src/stm32l4xx_ll_usb.c **** 
 1927              		.loc 1 884 14 is_stmt 0 view .LVU649
 1928 0058 019B     		ldr	r3, [sp, #4]
 1929 005a 0133     		adds	r3, r3, #1
 1930 005c 0193     		str	r3, [sp, #4]
 886:Drivers/STM32L4xx_HAL_Driver/Src/stm32l4xx_ll_usb.c ****         {
 1931              		.loc 1 886 9 is_stmt 1 view .LVU650
 886:Drivers/STM32L4xx_HAL_Driver/Src/stm32l4xx_ll_usb.c ****         {
 1932              		.loc 1 886 19 is_stmt 0 view .LVU651
 1933 005e 019C     		ldr	r4, [sp, #4]
 886:Drivers/STM32L4xx_HAL_Driver/Src/stm32l4xx_ll_usb.c ****         {
 1934              		.loc 1 886 12 view .LVU652
 1935 0060 42F21073 		movw	r3, #10000
 1936 0064 9C42     		cmp	r4, r3
 1937 0066 DBD8     		bhi	.L130
 891:Drivers/STM32L4xx_HAL_Driver/Src/stm32l4xx_ll_usb.c ****     }
 1938              		.loc 1 891 72 is_stmt 1 view .LVU653
 891:Drivers/STM32L4xx_HAL_Driver/Src/stm32l4xx_ll_usb.c ****     }
 1939              		.loc 1 891 18 is_stmt 0 view .LVU654
 1940 0068 0B78     		ldrb	r3, [r1]	@ zero_extendqisi2
 1941 006a 02EB4313 		add	r3, r2, r3, lsl #5
 891:Drivers/STM32L4xx_HAL_Driver/Src/stm32l4xx_ll_usb.c ****     }
 1942              		.loc 1 891 36 view .LVU655
 1943 006e D3F80039 		ldr	r3, [r3, #2304]
 891:Drivers/STM32L4xx_HAL_Driver/Src/stm32l4xx_ll_usb.c ****     }
 1944              		.loc 1 891 72 view .LVU656
 1945 0072 002B     		cmp	r3, #0
 1946 0074 F0DB     		blt	.L131
 870:Drivers/STM32L4xx_HAL_Driver/Src/stm32l4xx_ll_usb.c ****   uint32_t USBx_BASE = (uint32_t)USBx;
ARM GAS  /tmp/ccdWnOQF.s 			page 69


 1947              		.loc 1 870 21 view .LVU657
 1948 0076 0020     		movs	r0, #0
 1949 0078 D2E7     		b	.L130
 1950              	.L138:
 898:Drivers/STM32L4xx_HAL_Driver/Src/stm32l4xx_ll_usb.c ****       USBx_OUTEP(ep->num)->DOEPCTL |= (USB_OTG_DOEPCTL_EPDIS);
 1951              		.loc 1 898 7 is_stmt 1 view .LVU658
 898:Drivers/STM32L4xx_HAL_Driver/Src/stm32l4xx_ll_usb.c ****       USBx_OUTEP(ep->num)->DOEPCTL |= (USB_OTG_DOEPCTL_EPDIS);
 1952              		.loc 1 898 26 is_stmt 0 view .LVU659
 1953 007a D3F8000B 		ldr	r0, [r3, #2816]
 898:Drivers/STM32L4xx_HAL_Driver/Src/stm32l4xx_ll_usb.c ****       USBx_OUTEP(ep->num)->DOEPCTL |= (USB_OTG_DOEPCTL_EPDIS);
 1954              		.loc 1 898 36 view .LVU660
 1955 007e 40F00060 		orr	r0, r0, #134217728
 1956 0082 C3F8000B 		str	r0, [r3, #2816]
 899:Drivers/STM32L4xx_HAL_Driver/Src/stm32l4xx_ll_usb.c **** 
 1957              		.loc 1 899 7 is_stmt 1 view .LVU661
 1958 0086 0B78     		ldrb	r3, [r1]	@ zero_extendqisi2
 899:Drivers/STM32L4xx_HAL_Driver/Src/stm32l4xx_ll_usb.c **** 
 1959              		.loc 1 899 26 is_stmt 0 view .LVU662
 1960 0088 02EB4313 		add	r3, r2, r3, lsl #5
 1961 008c D3F8000B 		ldr	r0, [r3, #2816]
 899:Drivers/STM32L4xx_HAL_Driver/Src/stm32l4xx_ll_usb.c **** 
 1962              		.loc 1 899 36 view .LVU663
 1963 0090 40F08040 		orr	r0, r0, #1073741824
 1964 0094 C3F8000B 		str	r0, [r3, #2816]
 1965              	.L132:
 901:Drivers/STM32L4xx_HAL_Driver/Src/stm32l4xx_ll_usb.c ****       {
 1966              		.loc 1 901 7 is_stmt 1 view .LVU664
 903:Drivers/STM32L4xx_HAL_Driver/Src/stm32l4xx_ll_usb.c **** 
 1967              		.loc 1 903 9 view .LVU665
 903:Drivers/STM32L4xx_HAL_Driver/Src/stm32l4xx_ll_usb.c **** 
 1968              		.loc 1 903 14 is_stmt 0 view .LVU666
 1969 0098 019B     		ldr	r3, [sp, #4]
 1970 009a 0133     		adds	r3, r3, #1
 1971 009c 0193     		str	r3, [sp, #4]
 905:Drivers/STM32L4xx_HAL_Driver/Src/stm32l4xx_ll_usb.c ****         {
 1972              		.loc 1 905 9 is_stmt 1 view .LVU667
 905:Drivers/STM32L4xx_HAL_Driver/Src/stm32l4xx_ll_usb.c ****         {
 1973              		.loc 1 905 19 is_stmt 0 view .LVU668
 1974 009e 0198     		ldr	r0, [sp, #4]
 905:Drivers/STM32L4xx_HAL_Driver/Src/stm32l4xx_ll_usb.c ****         {
 1975              		.loc 1 905 12 view .LVU669
 1976 00a0 42F21073 		movw	r3, #10000
 1977 00a4 9842     		cmp	r0, r3
 1978 00a6 08D8     		bhi	.L135
 910:Drivers/STM32L4xx_HAL_Driver/Src/stm32l4xx_ll_usb.c ****     }
 1979              		.loc 1 910 73 is_stmt 1 view .LVU670
 910:Drivers/STM32L4xx_HAL_Driver/Src/stm32l4xx_ll_usb.c ****     }
 1980              		.loc 1 910 18 is_stmt 0 view .LVU671
 1981 00a8 0B78     		ldrb	r3, [r1]	@ zero_extendqisi2
 1982 00aa 02EB4313 		add	r3, r2, r3, lsl #5
 910:Drivers/STM32L4xx_HAL_Driver/Src/stm32l4xx_ll_usb.c ****     }
 1983              		.loc 1 910 37 view .LVU672
 1984 00ae D3F8003B 		ldr	r3, [r3, #2816]
 910:Drivers/STM32L4xx_HAL_Driver/Src/stm32l4xx_ll_usb.c ****     }
 1985              		.loc 1 910 73 view .LVU673
 1986 00b2 002B     		cmp	r3, #0
 1987 00b4 F0DB     		blt	.L132
ARM GAS  /tmp/ccdWnOQF.s 			page 70


 870:Drivers/STM32L4xx_HAL_Driver/Src/stm32l4xx_ll_usb.c ****   uint32_t USBx_BASE = (uint32_t)USBx;
 1988              		.loc 1 870 21 view .LVU674
 1989 00b6 0020     		movs	r0, #0
 1990 00b8 B2E7     		b	.L130
 1991              	.L135:
 907:Drivers/STM32L4xx_HAL_Driver/Src/stm32l4xx_ll_usb.c ****           break;
 1992              		.loc 1 907 15 view .LVU675
 1993 00ba 0120     		movs	r0, #1
 1994 00bc B0E7     		b	.L130
 1995              		.cfi_endproc
 1996              	.LFE148:
 1998              		.section	.text.USB_WritePacket,"ax",%progbits
 1999              		.align	1
 2000              		.global	USB_WritePacket
 2001              		.syntax unified
 2002              		.thumb
 2003              		.thumb_func
 2005              	USB_WritePacket:
 2006              	.LVL127:
 2007              	.LFB149:
 929:Drivers/STM32L4xx_HAL_Driver/Src/stm32l4xx_ll_usb.c ****   uint32_t USBx_BASE = (uint32_t)USBx;
 2008              		.loc 1 929 1 is_stmt 1 view -0
 2009              		.cfi_startproc
 2010              		@ args = 0, pretend = 0, frame = 0
 2011              		@ frame_needed = 0, uses_anonymous_args = 0
 929:Drivers/STM32L4xx_HAL_Driver/Src/stm32l4xx_ll_usb.c ****   uint32_t USBx_BASE = (uint32_t)USBx;
 2012              		.loc 1 929 1 is_stmt 0 view .LVU677
 2013 0000 10B5     		push	{r4, lr}
 2014              		.cfi_def_cfa_offset 8
 2015              		.cfi_offset 4, -8
 2016              		.cfi_offset 14, -4
 930:Drivers/STM32L4xx_HAL_Driver/Src/stm32l4xx_ll_usb.c ****   uint8_t *pSrc = src;
 2017              		.loc 1 930 3 is_stmt 1 view .LVU678
 2018              	.LVL128:
 931:Drivers/STM32L4xx_HAL_Driver/Src/stm32l4xx_ll_usb.c ****   uint32_t count32b;
 2019              		.loc 1 931 3 view .LVU679
 932:Drivers/STM32L4xx_HAL_Driver/Src/stm32l4xx_ll_usb.c ****   uint32_t i;
 2020              		.loc 1 932 3 view .LVU680
 933:Drivers/STM32L4xx_HAL_Driver/Src/stm32l4xx_ll_usb.c **** 
 2021              		.loc 1 933 3 view .LVU681
 935:Drivers/STM32L4xx_HAL_Driver/Src/stm32l4xx_ll_usb.c ****   for (i = 0U; i < count32b; i++)
 2022              		.loc 1 935 3 view .LVU682
 935:Drivers/STM32L4xx_HAL_Driver/Src/stm32l4xx_ll_usb.c ****   for (i = 0U; i < count32b; i++)
 2023              		.loc 1 935 29 is_stmt 0 view .LVU683
 2024 0002 DC1C     		adds	r4, r3, #3
 935:Drivers/STM32L4xx_HAL_Driver/Src/stm32l4xx_ll_usb.c ****   for (i = 0U; i < count32b; i++)
 2025              		.loc 1 935 12 view .LVU684
 2026 0004 A408     		lsrs	r4, r4, #2
 2027              	.LVL129:
 936:Drivers/STM32L4xx_HAL_Driver/Src/stm32l4xx_ll_usb.c ****   {
 2028              		.loc 1 936 3 is_stmt 1 view .LVU685
 936:Drivers/STM32L4xx_HAL_Driver/Src/stm32l4xx_ll_usb.c ****   {
 2029              		.loc 1 936 10 is_stmt 0 view .LVU686
 2030 0006 4FF0000E 		mov	lr, #0
 936:Drivers/STM32L4xx_HAL_Driver/Src/stm32l4xx_ll_usb.c ****   {
 2031              		.loc 1 936 3 view .LVU687
 2032 000a 09E0     		b	.L141
ARM GAS  /tmp/ccdWnOQF.s 			page 71


 2033              	.LVL130:
 2034              	.L142:
 938:Drivers/STM32L4xx_HAL_Driver/Src/stm32l4xx_ll_usb.c ****     pSrc++;
 2035              		.loc 1 938 5 is_stmt 1 discriminator 3 view .LVU688
 2036 000c 00EB023C 		add	ip, r0, r2, lsl #12
 2037 0010 0CF5805C 		add	ip, ip, #4096
 938:Drivers/STM32L4xx_HAL_Driver/Src/stm32l4xx_ll_usb.c ****     pSrc++;
 2038              		.loc 1 938 39 is_stmt 0 discriminator 3 view .LVU689
 2039 0014 51F8043B 		ldr	r3, [r1], #4	@ unaligned
 2040              	.LVL131:
 938:Drivers/STM32L4xx_HAL_Driver/Src/stm32l4xx_ll_usb.c ****     pSrc++;
 2041              		.loc 1 938 37 discriminator 3 view .LVU690
 2042 0018 CCF80030 		str	r3, [ip]
 939:Drivers/STM32L4xx_HAL_Driver/Src/stm32l4xx_ll_usb.c ****     pSrc++;
 2043              		.loc 1 939 5 is_stmt 1 discriminator 3 view .LVU691
 2044              	.LVL132:
 940:Drivers/STM32L4xx_HAL_Driver/Src/stm32l4xx_ll_usb.c ****     pSrc++;
 2045              		.loc 1 940 5 discriminator 3 view .LVU692
 941:Drivers/STM32L4xx_HAL_Driver/Src/stm32l4xx_ll_usb.c ****     pSrc++;
 2046              		.loc 1 941 5 discriminator 3 view .LVU693
 942:Drivers/STM32L4xx_HAL_Driver/Src/stm32l4xx_ll_usb.c ****   }
 2047              		.loc 1 942 5 discriminator 3 view .LVU694
 936:Drivers/STM32L4xx_HAL_Driver/Src/stm32l4xx_ll_usb.c ****   {
 2048              		.loc 1 936 31 discriminator 3 view .LVU695
 2049 001c 0EF1010E 		add	lr, lr, #1
 2050              	.LVL133:
 2051              	.L141:
 936:Drivers/STM32L4xx_HAL_Driver/Src/stm32l4xx_ll_usb.c ****   {
 2052              		.loc 1 936 18 discriminator 1 view .LVU696
 2053 0020 A645     		cmp	lr, r4
 2054 0022 F3D3     		bcc	.L142
 945:Drivers/STM32L4xx_HAL_Driver/Src/stm32l4xx_ll_usb.c **** }
 2055              		.loc 1 945 3 view .LVU697
 946:Drivers/STM32L4xx_HAL_Driver/Src/stm32l4xx_ll_usb.c **** 
 2056              		.loc 1 946 1 is_stmt 0 view .LVU698
 2057 0024 0020     		movs	r0, #0
 2058              	.LVL134:
 946:Drivers/STM32L4xx_HAL_Driver/Src/stm32l4xx_ll_usb.c **** 
 2059              		.loc 1 946 1 view .LVU699
 2060 0026 10BD     		pop	{r4, pc}
 946:Drivers/STM32L4xx_HAL_Driver/Src/stm32l4xx_ll_usb.c **** 
 2061              		.loc 1 946 1 view .LVU700
 2062              		.cfi_endproc
 2063              	.LFE149:
 2065              		.section	.text.USB_EPStartXfer,"ax",%progbits
 2066              		.align	1
 2067              		.global	USB_EPStartXfer
 2068              		.syntax unified
 2069              		.thumb
 2070              		.thumb_func
 2072              	USB_EPStartXfer:
 2073              	.LVL135:
 2074              	.LFB146:
 684:Drivers/STM32L4xx_HAL_Driver/Src/stm32l4xx_ll_usb.c ****   uint32_t USBx_BASE = (uint32_t)USBx;
 2075              		.loc 1 684 1 is_stmt 1 view -0
 2076              		.cfi_startproc
 2077              		@ args = 0, pretend = 0, frame = 0
ARM GAS  /tmp/ccdWnOQF.s 			page 72


 2078              		@ frame_needed = 0, uses_anonymous_args = 0
 684:Drivers/STM32L4xx_HAL_Driver/Src/stm32l4xx_ll_usb.c ****   uint32_t USBx_BASE = (uint32_t)USBx;
 2079              		.loc 1 684 1 is_stmt 0 view .LVU702
 2080 0000 70B5     		push	{r4, r5, r6, lr}
 2081              		.cfi_def_cfa_offset 16
 2082              		.cfi_offset 4, -16
 2083              		.cfi_offset 5, -12
 2084              		.cfi_offset 6, -8
 2085              		.cfi_offset 14, -4
 685:Drivers/STM32L4xx_HAL_Driver/Src/stm32l4xx_ll_usb.c ****   uint32_t epnum = (uint32_t)ep->num;
 2086              		.loc 1 685 3 is_stmt 1 view .LVU703
 2087              	.LVL136:
 686:Drivers/STM32L4xx_HAL_Driver/Src/stm32l4xx_ll_usb.c ****   uint16_t pktcnt;
 2088              		.loc 1 686 3 view .LVU704
 686:Drivers/STM32L4xx_HAL_Driver/Src/stm32l4xx_ll_usb.c ****   uint16_t pktcnt;
 2089              		.loc 1 686 32 is_stmt 0 view .LVU705
 2090 0002 0B78     		ldrb	r3, [r1]	@ zero_extendqisi2
 2091              	.LVL137:
 687:Drivers/STM32L4xx_HAL_Driver/Src/stm32l4xx_ll_usb.c **** 
 2092              		.loc 1 687 3 is_stmt 1 view .LVU706
 690:Drivers/STM32L4xx_HAL_Driver/Src/stm32l4xx_ll_usb.c ****   {
 2093              		.loc 1 690 3 view .LVU707
 690:Drivers/STM32L4xx_HAL_Driver/Src/stm32l4xx_ll_usb.c ****   {
 2094              		.loc 1 690 9 is_stmt 0 view .LVU708
 2095 0004 4A78     		ldrb	r2, [r1, #1]	@ zero_extendqisi2
 690:Drivers/STM32L4xx_HAL_Driver/Src/stm32l4xx_ll_usb.c ****   {
 2096              		.loc 1 690 6 view .LVU709
 2097 0006 012A     		cmp	r2, #1
 2098 0008 27D0     		beq	.L157
 750:Drivers/STM32L4xx_HAL_Driver/Src/stm32l4xx_ll_usb.c ****     USBx_OUTEP(epnum)->DOEPTSIZ &= ~(USB_OTG_DOEPTSIZ_PKTCNT);
 2099              		.loc 1 750 5 is_stmt 1 view .LVU710
 750:Drivers/STM32L4xx_HAL_Driver/Src/stm32l4xx_ll_usb.c ****     USBx_OUTEP(epnum)->DOEPTSIZ &= ~(USB_OTG_DOEPTSIZ_PKTCNT);
 2100              		.loc 1 750 22 is_stmt 0 view .LVU711
 2101 000a 00EB4313 		add	r3, r0, r3, lsl #5
 2102              	.LVL138:
 750:Drivers/STM32L4xx_HAL_Driver/Src/stm32l4xx_ll_usb.c ****     USBx_OUTEP(epnum)->DOEPTSIZ &= ~(USB_OTG_DOEPTSIZ_PKTCNT);
 2103              		.loc 1 750 22 view .LVU712
 2104 000e 03F53062 		add	r2, r3, #2816
 2105 0012 1469     		ldr	r4, [r2, #16]
 750:Drivers/STM32L4xx_HAL_Driver/Src/stm32l4xx_ll_usb.c ****     USBx_OUTEP(epnum)->DOEPTSIZ &= ~(USB_OTG_DOEPTSIZ_PKTCNT);
 2106              		.loc 1 750 33 view .LVU713
 2107 0014 E40C     		lsrs	r4, r4, #19
 2108 0016 E404     		lsls	r4, r4, #19
 2109 0018 1461     		str	r4, [r2, #16]
 2110              	.LVL139:
 751:Drivers/STM32L4xx_HAL_Driver/Src/stm32l4xx_ll_usb.c **** 
 2111              		.loc 1 751 5 is_stmt 1 view .LVU714
 751:Drivers/STM32L4xx_HAL_Driver/Src/stm32l4xx_ll_usb.c **** 
 2112              		.loc 1 751 22 is_stmt 0 view .LVU715
 2113 001a 1469     		ldr	r4, [r2, #16]
 751:Drivers/STM32L4xx_HAL_Driver/Src/stm32l4xx_ll_usb.c **** 
 2114              		.loc 1 751 33 view .LVU716
 2115 001c 24F0FF54 		bic	r4, r4, #534773760
 2116 0020 24F4C014 		bic	r4, r4, #1572864
 2117 0024 1461     		str	r4, [r2, #16]
 753:Drivers/STM32L4xx_HAL_Driver/Src/stm32l4xx_ll_usb.c ****     {
 2118              		.loc 1 753 5 is_stmt 1 view .LVU717
ARM GAS  /tmp/ccdWnOQF.s 			page 73


 753:Drivers/STM32L4xx_HAL_Driver/Src/stm32l4xx_ll_usb.c ****     {
 2119              		.loc 1 753 11 is_stmt 0 view .LVU718
 2120 0026 8C69     		ldr	r4, [r1, #24]
 753:Drivers/STM32L4xx_HAL_Driver/Src/stm32l4xx_ll_usb.c ****     {
 2121              		.loc 1 753 8 view .LVU719
 2122 0028 002C     		cmp	r4, #0
 2123 002a 40F09380 		bne	.L152
 755:Drivers/STM32L4xx_HAL_Driver/Src/stm32l4xx_ll_usb.c ****       USBx_OUTEP(epnum)->DOEPTSIZ |= (USB_OTG_DOEPTSIZ_PKTCNT & (1U << 19));
 2124              		.loc 1 755 7 is_stmt 1 view .LVU720
 755:Drivers/STM32L4xx_HAL_Driver/Src/stm32l4xx_ll_usb.c ****       USBx_OUTEP(epnum)->DOEPTSIZ |= (USB_OTG_DOEPTSIZ_PKTCNT & (1U << 19));
 2125              		.loc 1 755 24 is_stmt 0 view .LVU721
 2126 002e 1469     		ldr	r4, [r2, #16]
 755:Drivers/STM32L4xx_HAL_Driver/Src/stm32l4xx_ll_usb.c ****       USBx_OUTEP(epnum)->DOEPTSIZ |= (USB_OTG_DOEPTSIZ_PKTCNT & (1U << 19));
 2127              		.loc 1 755 67 view .LVU722
 2128 0030 CD68     		ldr	r5, [r1, #12]
 755:Drivers/STM32L4xx_HAL_Driver/Src/stm32l4xx_ll_usb.c ****       USBx_OUTEP(epnum)->DOEPTSIZ |= (USB_OTG_DOEPTSIZ_PKTCNT & (1U << 19));
 2129              		.loc 1 755 63 view .LVU723
 2130 0032 C5F31205 		ubfx	r5, r5, #0, #19
 755:Drivers/STM32L4xx_HAL_Driver/Src/stm32l4xx_ll_usb.c ****       USBx_OUTEP(epnum)->DOEPTSIZ |= (USB_OTG_DOEPTSIZ_PKTCNT & (1U << 19));
 2131              		.loc 1 755 35 view .LVU724
 2132 0036 2C43     		orrs	r4, r4, r5
 2133 0038 1461     		str	r4, [r2, #16]
 756:Drivers/STM32L4xx_HAL_Driver/Src/stm32l4xx_ll_usb.c ****     }
 2134              		.loc 1 756 7 is_stmt 1 view .LVU725
 756:Drivers/STM32L4xx_HAL_Driver/Src/stm32l4xx_ll_usb.c ****     }
 2135              		.loc 1 756 24 is_stmt 0 view .LVU726
 2136 003a 1469     		ldr	r4, [r2, #16]
 756:Drivers/STM32L4xx_HAL_Driver/Src/stm32l4xx_ll_usb.c ****     }
 2137              		.loc 1 756 35 view .LVU727
 2138 003c 44F40024 		orr	r4, r4, #524288
 2139 0040 1461     		str	r4, [r2, #16]
 2140              	.L153:
 767:Drivers/STM32L4xx_HAL_Driver/Src/stm32l4xx_ll_usb.c ****     {
 2141              		.loc 1 767 5 is_stmt 1 view .LVU728
 767:Drivers/STM32L4xx_HAL_Driver/Src/stm32l4xx_ll_usb.c ****     {
 2142              		.loc 1 767 11 is_stmt 0 view .LVU729
 2143 0042 0A79     		ldrb	r2, [r1, #4]	@ zero_extendqisi2
 767:Drivers/STM32L4xx_HAL_Driver/Src/stm32l4xx_ll_usb.c ****     {
 2144              		.loc 1 767 8 view .LVU730
 2145 0044 012A     		cmp	r2, #1
 2146 0046 00F09B80 		beq	.L158
 2147              	.L154:
 779:Drivers/STM32L4xx_HAL_Driver/Src/stm32l4xx_ll_usb.c ****   }
 2148              		.loc 1 779 5 is_stmt 1 view .LVU731
 779:Drivers/STM32L4xx_HAL_Driver/Src/stm32l4xx_ll_usb.c ****   }
 2149              		.loc 1 779 22 is_stmt 0 view .LVU732
 2150 004a D3F8002B 		ldr	r2, [r3, #2816]
 779:Drivers/STM32L4xx_HAL_Driver/Src/stm32l4xx_ll_usb.c ****   }
 2151              		.loc 1 779 32 view .LVU733
 2152 004e 42F00442 		orr	r2, r2, #-2080374784
 2153 0052 C3F8002B 		str	r2, [r3, #2816]
 2154              	.LVL140:
 2155              	.L149:
 782:Drivers/STM32L4xx_HAL_Driver/Src/stm32l4xx_ll_usb.c **** }
 2156              		.loc 1 782 3 is_stmt 1 view .LVU734
 783:Drivers/STM32L4xx_HAL_Driver/Src/stm32l4xx_ll_usb.c **** 
 2157              		.loc 1 783 1 is_stmt 0 view .LVU735
ARM GAS  /tmp/ccdWnOQF.s 			page 74


 2158 0056 0020     		movs	r0, #0
 2159 0058 70BD     		pop	{r4, r5, r6, pc}
 2160              	.LVL141:
 2161              	.L157:
 693:Drivers/STM32L4xx_HAL_Driver/Src/stm32l4xx_ll_usb.c ****     {
 2162              		.loc 1 693 5 is_stmt 1 view .LVU736
 693:Drivers/STM32L4xx_HAL_Driver/Src/stm32l4xx_ll_usb.c ****     {
 2163              		.loc 1 693 11 is_stmt 0 view .LVU737
 2164 005a 8A69     		ldr	r2, [r1, #24]
 693:Drivers/STM32L4xx_HAL_Driver/Src/stm32l4xx_ll_usb.c ****     {
 2165              		.loc 1 693 8 view .LVU738
 2166 005c 72BB     		cbnz	r2, .L146
 695:Drivers/STM32L4xx_HAL_Driver/Src/stm32l4xx_ll_usb.c ****       USBx_INEP(epnum)->DIEPTSIZ |= (USB_OTG_DIEPTSIZ_PKTCNT & (1U << 19));
 2167              		.loc 1 695 7 is_stmt 1 view .LVU739
 695:Drivers/STM32L4xx_HAL_Driver/Src/stm32l4xx_ll_usb.c ****       USBx_INEP(epnum)->DIEPTSIZ |= (USB_OTG_DIEPTSIZ_PKTCNT & (1U << 19));
 2168              		.loc 1 695 23 is_stmt 0 view .LVU740
 2169 005e 00EB4312 		add	r2, r0, r3, lsl #5
 2170 0062 D2F81049 		ldr	r4, [r2, #2320]
 695:Drivers/STM32L4xx_HAL_Driver/Src/stm32l4xx_ll_usb.c ****       USBx_INEP(epnum)->DIEPTSIZ |= (USB_OTG_DIEPTSIZ_PKTCNT & (1U << 19));
 2171              		.loc 1 695 34 view .LVU741
 2172 0066 24F0FF54 		bic	r4, r4, #534773760
 2173 006a 24F4C014 		bic	r4, r4, #1572864
 2174 006e C2F81049 		str	r4, [r2, #2320]
 696:Drivers/STM32L4xx_HAL_Driver/Src/stm32l4xx_ll_usb.c ****       USBx_INEP(epnum)->DIEPTSIZ &= ~(USB_OTG_DIEPTSIZ_XFRSIZ);
 2175              		.loc 1 696 7 is_stmt 1 view .LVU742
 696:Drivers/STM32L4xx_HAL_Driver/Src/stm32l4xx_ll_usb.c ****       USBx_INEP(epnum)->DIEPTSIZ &= ~(USB_OTG_DIEPTSIZ_XFRSIZ);
 2176              		.loc 1 696 23 is_stmt 0 view .LVU743
 2177 0072 D2F81049 		ldr	r4, [r2, #2320]
 696:Drivers/STM32L4xx_HAL_Driver/Src/stm32l4xx_ll_usb.c ****       USBx_INEP(epnum)->DIEPTSIZ &= ~(USB_OTG_DIEPTSIZ_XFRSIZ);
 2178              		.loc 1 696 34 view .LVU744
 2179 0076 44F40024 		orr	r4, r4, #524288
 2180 007a C2F81049 		str	r4, [r2, #2320]
 697:Drivers/STM32L4xx_HAL_Driver/Src/stm32l4xx_ll_usb.c ****     }
 2181              		.loc 1 697 7 is_stmt 1 view .LVU745
 697:Drivers/STM32L4xx_HAL_Driver/Src/stm32l4xx_ll_usb.c ****     }
 2182              		.loc 1 697 23 is_stmt 0 view .LVU746
 2183 007e D2F81049 		ldr	r4, [r2, #2320]
 697:Drivers/STM32L4xx_HAL_Driver/Src/stm32l4xx_ll_usb.c ****     }
 2184              		.loc 1 697 34 view .LVU747
 2185 0082 E40C     		lsrs	r4, r4, #19
 2186 0084 E404     		lsls	r4, r4, #19
 2187 0086 C2F81049 		str	r4, [r2, #2320]
 2188              	.L147:
 720:Drivers/STM32L4xx_HAL_Driver/Src/stm32l4xx_ll_usb.c **** 
 2189              		.loc 1 720 5 is_stmt 1 view .LVU748
 720:Drivers/STM32L4xx_HAL_Driver/Src/stm32l4xx_ll_usb.c **** 
 2190              		.loc 1 720 21 is_stmt 0 view .LVU749
 2191 008a 00EB4313 		add	r3, r0, r3, lsl #5
 2192              	.LVL142:
 720:Drivers/STM32L4xx_HAL_Driver/Src/stm32l4xx_ll_usb.c **** 
 2193              		.loc 1 720 21 view .LVU750
 2194 008e D3F80029 		ldr	r2, [r3, #2304]
 720:Drivers/STM32L4xx_HAL_Driver/Src/stm32l4xx_ll_usb.c **** 
 2195              		.loc 1 720 31 view .LVU751
 2196 0092 42F00442 		orr	r2, r2, #-2080374784
 2197 0096 C3F80029 		str	r2, [r3, #2304]
 722:Drivers/STM32L4xx_HAL_Driver/Src/stm32l4xx_ll_usb.c ****     {
ARM GAS  /tmp/ccdWnOQF.s 			page 75


 2198              		.loc 1 722 5 is_stmt 1 view .LVU752
 722:Drivers/STM32L4xx_HAL_Driver/Src/stm32l4xx_ll_usb.c ****     {
 2199              		.loc 1 722 11 is_stmt 0 view .LVU753
 2200 009a 0A79     		ldrb	r2, [r1, #4]	@ zero_extendqisi2
 722:Drivers/STM32L4xx_HAL_Driver/Src/stm32l4xx_ll_usb.c ****     {
 2201              		.loc 1 722 8 view .LVU754
 2202 009c 012A     		cmp	r2, #1
 2203 009e 41D0     		beq	.L148
 725:Drivers/STM32L4xx_HAL_Driver/Src/stm32l4xx_ll_usb.c ****       {
 2204              		.loc 1 725 7 is_stmt 1 view .LVU755
 725:Drivers/STM32L4xx_HAL_Driver/Src/stm32l4xx_ll_usb.c ****       {
 2205              		.loc 1 725 13 is_stmt 0 view .LVU756
 2206 00a0 8B69     		ldr	r3, [r1, #24]
 725:Drivers/STM32L4xx_HAL_Driver/Src/stm32l4xx_ll_usb.c ****       {
 2207              		.loc 1 725 10 view .LVU757
 2208 00a2 002B     		cmp	r3, #0
 2209 00a4 D7D0     		beq	.L149
 727:Drivers/STM32L4xx_HAL_Driver/Src/stm32l4xx_ll_usb.c ****       }
 2210              		.loc 1 727 9 is_stmt 1 view .LVU758
 727:Drivers/STM32L4xx_HAL_Driver/Src/stm32l4xx_ll_usb.c ****       }
 2211              		.loc 1 727 20 is_stmt 0 view .LVU759
 2212 00a6 D0F83438 		ldr	r3, [r0, #2100]
 727:Drivers/STM32L4xx_HAL_Driver/Src/stm32l4xx_ll_usb.c ****       }
 2213              		.loc 1 727 46 view .LVU760
 2214 00aa 0978     		ldrb	r1, [r1]	@ zero_extendqisi2
 2215              	.LVL143:
 727:Drivers/STM32L4xx_HAL_Driver/Src/stm32l4xx_ll_usb.c ****       }
 2216              		.loc 1 727 52 view .LVU761
 2217 00ac 01F00F01 		and	r1, r1, #15
 727:Drivers/STM32L4xx_HAL_Driver/Src/stm32l4xx_ll_usb.c ****       }
 2218              		.loc 1 727 40 view .LVU762
 2219 00b0 0122     		movs	r2, #1
 2220 00b2 8A40     		lsls	r2, r2, r1
 727:Drivers/STM32L4xx_HAL_Driver/Src/stm32l4xx_ll_usb.c ****       }
 2221              		.loc 1 727 33 view .LVU763
 2222 00b4 1343     		orrs	r3, r3, r2
 2223 00b6 C0F83438 		str	r3, [r0, #2100]
 2224 00ba CCE7     		b	.L149
 2225              	.LVL144:
 2226              	.L146:
 706:Drivers/STM32L4xx_HAL_Driver/Src/stm32l4xx_ll_usb.c ****       USBx_INEP(epnum)->DIEPTSIZ &= ~(USB_OTG_DIEPTSIZ_PKTCNT);
 2227              		.loc 1 706 7 is_stmt 1 view .LVU764
 706:Drivers/STM32L4xx_HAL_Driver/Src/stm32l4xx_ll_usb.c ****       USBx_INEP(epnum)->DIEPTSIZ &= ~(USB_OTG_DIEPTSIZ_PKTCNT);
 2228              		.loc 1 706 23 is_stmt 0 view .LVU765
 2229 00bc 00EB4312 		add	r2, r0, r3, lsl #5
 2230 00c0 D2F81049 		ldr	r4, [r2, #2320]
 706:Drivers/STM32L4xx_HAL_Driver/Src/stm32l4xx_ll_usb.c ****       USBx_INEP(epnum)->DIEPTSIZ &= ~(USB_OTG_DIEPTSIZ_PKTCNT);
 2231              		.loc 1 706 34 view .LVU766
 2232 00c4 E40C     		lsrs	r4, r4, #19
 2233 00c6 E404     		lsls	r4, r4, #19
 2234 00c8 C2F81049 		str	r4, [r2, #2320]
 707:Drivers/STM32L4xx_HAL_Driver/Src/stm32l4xx_ll_usb.c ****       USBx_INEP(epnum)->DIEPTSIZ |= (USB_OTG_DIEPTSIZ_PKTCNT &
 2235              		.loc 1 707 7 is_stmt 1 view .LVU767
 707:Drivers/STM32L4xx_HAL_Driver/Src/stm32l4xx_ll_usb.c ****       USBx_INEP(epnum)->DIEPTSIZ |= (USB_OTG_DIEPTSIZ_PKTCNT &
 2236              		.loc 1 707 23 is_stmt 0 view .LVU768
 2237 00cc D2F81049 		ldr	r4, [r2, #2320]
 707:Drivers/STM32L4xx_HAL_Driver/Src/stm32l4xx_ll_usb.c ****       USBx_INEP(epnum)->DIEPTSIZ |= (USB_OTG_DIEPTSIZ_PKTCNT &
ARM GAS  /tmp/ccdWnOQF.s 			page 76


 2238              		.loc 1 707 34 view .LVU769
 2239 00d0 24F0FF54 		bic	r4, r4, #534773760
 2240 00d4 24F4C014 		bic	r4, r4, #1572864
 2241 00d8 C2F81049 		str	r4, [r2, #2320]
 708:Drivers/STM32L4xx_HAL_Driver/Src/stm32l4xx_ll_usb.c ****                                      (((ep->xfer_len + ep->maxpacket - 1U) / ep->maxpacket) << 19))
 2242              		.loc 1 708 7 is_stmt 1 view .LVU770
 708:Drivers/STM32L4xx_HAL_Driver/Src/stm32l4xx_ll_usb.c ****                                      (((ep->xfer_len + ep->maxpacket - 1U) / ep->maxpacket) << 19))
 2243              		.loc 1 708 23 is_stmt 0 view .LVU771
 2244 00dc D2F81059 		ldr	r5, [r2, #2320]
 709:Drivers/STM32L4xx_HAL_Driver/Src/stm32l4xx_ll_usb.c **** 
 2245              		.loc 1 709 43 view .LVU772
 2246 00e0 8C69     		ldr	r4, [r1, #24]
 709:Drivers/STM32L4xx_HAL_Driver/Src/stm32l4xx_ll_usb.c **** 
 2247              		.loc 1 709 58 view .LVU773
 2248 00e2 CE68     		ldr	r6, [r1, #12]
 709:Drivers/STM32L4xx_HAL_Driver/Src/stm32l4xx_ll_usb.c **** 
 2249              		.loc 1 709 54 view .LVU774
 2250 00e4 3444     		add	r4, r4, r6
 709:Drivers/STM32L4xx_HAL_Driver/Src/stm32l4xx_ll_usb.c **** 
 2251              		.loc 1 709 70 view .LVU775
 2252 00e6 013C     		subs	r4, r4, #1
 709:Drivers/STM32L4xx_HAL_Driver/Src/stm32l4xx_ll_usb.c **** 
 2253              		.loc 1 709 76 view .LVU776
 2254 00e8 B4FBF6F4 		udiv	r4, r4, r6
 708:Drivers/STM32L4xx_HAL_Driver/Src/stm32l4xx_ll_usb.c ****                                      (((ep->xfer_len + ep->maxpacket - 1U) / ep->maxpacket) << 19))
 2255              		.loc 1 708 62 view .LVU777
 2256 00ec 2E4E     		ldr	r6, .L159
 2257 00ee 06EAC444 		and	r4, r6, r4, lsl #19
 708:Drivers/STM32L4xx_HAL_Driver/Src/stm32l4xx_ll_usb.c ****                                      (((ep->xfer_len + ep->maxpacket - 1U) / ep->maxpacket) << 19))
 2258              		.loc 1 708 34 view .LVU778
 2259 00f2 2C43     		orrs	r4, r4, r5
 2260 00f4 C2F81049 		str	r4, [r2, #2320]
 711:Drivers/STM32L4xx_HAL_Driver/Src/stm32l4xx_ll_usb.c **** 
 2261              		.loc 1 711 7 is_stmt 1 view .LVU779
 711:Drivers/STM32L4xx_HAL_Driver/Src/stm32l4xx_ll_usb.c **** 
 2262              		.loc 1 711 23 is_stmt 0 view .LVU780
 2263 00f8 D2F81049 		ldr	r4, [r2, #2320]
 711:Drivers/STM32L4xx_HAL_Driver/Src/stm32l4xx_ll_usb.c **** 
 2264              		.loc 1 711 66 view .LVU781
 2265 00fc 8D69     		ldr	r5, [r1, #24]
 711:Drivers/STM32L4xx_HAL_Driver/Src/stm32l4xx_ll_usb.c **** 
 2266              		.loc 1 711 62 view .LVU782
 2267 00fe C5F31205 		ubfx	r5, r5, #0, #19
 711:Drivers/STM32L4xx_HAL_Driver/Src/stm32l4xx_ll_usb.c **** 
 2268              		.loc 1 711 34 view .LVU783
 2269 0102 2C43     		orrs	r4, r4, r5
 2270 0104 C2F81049 		str	r4, [r2, #2320]
 706:Drivers/STM32L4xx_HAL_Driver/Src/stm32l4xx_ll_usb.c ****       USBx_INEP(epnum)->DIEPTSIZ &= ~(USB_OTG_DIEPTSIZ_PKTCNT);
 2271              		.loc 1 706 23 view .LVU784
 2272 0108 02F51062 		add	r2, r2, #2304
 713:Drivers/STM32L4xx_HAL_Driver/Src/stm32l4xx_ll_usb.c ****       {
 2273              		.loc 1 713 7 is_stmt 1 view .LVU785
 713:Drivers/STM32L4xx_HAL_Driver/Src/stm32l4xx_ll_usb.c ****       {
 2274              		.loc 1 713 13 is_stmt 0 view .LVU786
 2275 010c 0C79     		ldrb	r4, [r1, #4]	@ zero_extendqisi2
 713:Drivers/STM32L4xx_HAL_Driver/Src/stm32l4xx_ll_usb.c ****       {
 2276              		.loc 1 713 10 view .LVU787
ARM GAS  /tmp/ccdWnOQF.s 			page 77


 2277 010e 012C     		cmp	r4, #1
 2278 0110 BBD1     		bne	.L147
 715:Drivers/STM32L4xx_HAL_Driver/Src/stm32l4xx_ll_usb.c ****         USBx_INEP(epnum)->DIEPTSIZ |= (USB_OTG_DIEPTSIZ_MULCNT & (1U << 29));
 2279              		.loc 1 715 9 is_stmt 1 view .LVU788
 715:Drivers/STM32L4xx_HAL_Driver/Src/stm32l4xx_ll_usb.c ****         USBx_INEP(epnum)->DIEPTSIZ |= (USB_OTG_DIEPTSIZ_MULCNT & (1U << 29));
 2280              		.loc 1 715 25 is_stmt 0 view .LVU789
 2281 0112 1469     		ldr	r4, [r2, #16]
 715:Drivers/STM32L4xx_HAL_Driver/Src/stm32l4xx_ll_usb.c ****         USBx_INEP(epnum)->DIEPTSIZ |= (USB_OTG_DIEPTSIZ_MULCNT & (1U << 29));
 2282              		.loc 1 715 36 view .LVU790
 2283 0114 24F0C044 		bic	r4, r4, #1610612736
 2284 0118 1461     		str	r4, [r2, #16]
 716:Drivers/STM32L4xx_HAL_Driver/Src/stm32l4xx_ll_usb.c ****       }
 2285              		.loc 1 716 9 is_stmt 1 view .LVU791
 716:Drivers/STM32L4xx_HAL_Driver/Src/stm32l4xx_ll_usb.c ****       }
 2286              		.loc 1 716 25 is_stmt 0 view .LVU792
 2287 011a 1469     		ldr	r4, [r2, #16]
 716:Drivers/STM32L4xx_HAL_Driver/Src/stm32l4xx_ll_usb.c ****       }
 2288              		.loc 1 716 36 view .LVU793
 2289 011c 44F00054 		orr	r4, r4, #536870912
 2290 0120 1461     		str	r4, [r2, #16]
 2291 0122 B2E7     		b	.L147
 2292              	.LVL145:
 2293              	.L148:
 732:Drivers/STM32L4xx_HAL_Driver/Src/stm32l4xx_ll_usb.c ****       {
 2294              		.loc 1 732 7 is_stmt 1 view .LVU794
 732:Drivers/STM32L4xx_HAL_Driver/Src/stm32l4xx_ll_usb.c ****       {
 2295              		.loc 1 732 23 is_stmt 0 view .LVU795
 2296 0124 D0F80828 		ldr	r2, [r0, #2056]
 732:Drivers/STM32L4xx_HAL_Driver/Src/stm32l4xx_ll_usb.c ****       {
 2297              		.loc 1 732 10 view .LVU796
 2298 0128 12F4807F 		tst	r2, #256
 2299 012c 0BD1     		bne	.L150
 734:Drivers/STM32L4xx_HAL_Driver/Src/stm32l4xx_ll_usb.c ****       }
 2300              		.loc 1 734 9 is_stmt 1 view .LVU797
 734:Drivers/STM32L4xx_HAL_Driver/Src/stm32l4xx_ll_usb.c ****       }
 2301              		.loc 1 734 25 is_stmt 0 view .LVU798
 2302 012e D3F80029 		ldr	r2, [r3, #2304]
 734:Drivers/STM32L4xx_HAL_Driver/Src/stm32l4xx_ll_usb.c ****       }
 2303              		.loc 1 734 35 view .LVU799
 2304 0132 42F00052 		orr	r2, r2, #536870912
 2305 0136 C3F80029 		str	r2, [r3, #2304]
 2306              	.L151:
 741:Drivers/STM32L4xx_HAL_Driver/Src/stm32l4xx_ll_usb.c ****     }
 2307              		.loc 1 741 7 is_stmt 1 view .LVU800
 741:Drivers/STM32L4xx_HAL_Driver/Src/stm32l4xx_ll_usb.c ****     }
 2308              		.loc 1 741 13 is_stmt 0 view .LVU801
 2309 013a 0B8B     		ldrh	r3, [r1, #24]
 2310 013c 0A78     		ldrb	r2, [r1]	@ zero_extendqisi2
 2311 013e 0969     		ldr	r1, [r1, #16]
 2312              	.LVL146:
 741:Drivers/STM32L4xx_HAL_Driver/Src/stm32l4xx_ll_usb.c ****     }
 2313              		.loc 1 741 13 view .LVU802
 2314 0140 FFF7FEFF 		bl	USB_WritePacket
 2315              	.LVL147:
 741:Drivers/STM32L4xx_HAL_Driver/Src/stm32l4xx_ll_usb.c ****     }
 2316              		.loc 1 741 13 view .LVU803
 2317 0144 87E7     		b	.L149
ARM GAS  /tmp/ccdWnOQF.s 			page 78


 2318              	.LVL148:
 2319              	.L150:
 738:Drivers/STM32L4xx_HAL_Driver/Src/stm32l4xx_ll_usb.c ****       }
 2320              		.loc 1 738 9 is_stmt 1 view .LVU804
 738:Drivers/STM32L4xx_HAL_Driver/Src/stm32l4xx_ll_usb.c ****       }
 2321              		.loc 1 738 25 is_stmt 0 view .LVU805
 2322 0146 D3F80029 		ldr	r2, [r3, #2304]
 738:Drivers/STM32L4xx_HAL_Driver/Src/stm32l4xx_ll_usb.c ****       }
 2323              		.loc 1 738 35 view .LVU806
 2324 014a 42F08052 		orr	r2, r2, #268435456
 2325 014e C3F80029 		str	r2, [r3, #2304]
 2326 0152 F2E7     		b	.L151
 2327              	.L152:
 760:Drivers/STM32L4xx_HAL_Driver/Src/stm32l4xx_ll_usb.c ****       ep->xfer_size = ep->maxpacket * pktcnt;
 2328              		.loc 1 760 7 is_stmt 1 view .LVU807
 760:Drivers/STM32L4xx_HAL_Driver/Src/stm32l4xx_ll_usb.c ****       ep->xfer_size = ep->maxpacket * pktcnt;
 2329              		.loc 1 760 45 is_stmt 0 view .LVU808
 2330 0154 CD68     		ldr	r5, [r1, #12]
 760:Drivers/STM32L4xx_HAL_Driver/Src/stm32l4xx_ll_usb.c ****       ep->xfer_size = ep->maxpacket * pktcnt;
 2331              		.loc 1 760 41 view .LVU809
 2332 0156 2C44     		add	r4, r4, r5
 760:Drivers/STM32L4xx_HAL_Driver/Src/stm32l4xx_ll_usb.c ****       ep->xfer_size = ep->maxpacket * pktcnt;
 2333              		.loc 1 760 57 view .LVU810
 2334 0158 013C     		subs	r4, r4, #1
 760:Drivers/STM32L4xx_HAL_Driver/Src/stm32l4xx_ll_usb.c ****       ep->xfer_size = ep->maxpacket * pktcnt;
 2335              		.loc 1 760 63 view .LVU811
 2336 015a B4FBF5F4 		udiv	r4, r4, r5
 2337              	.LVL149:
 761:Drivers/STM32L4xx_HAL_Driver/Src/stm32l4xx_ll_usb.c **** 
 2338              		.loc 1 761 7 is_stmt 1 view .LVU812
 2339 015e A4B2     		uxth	r4, r4
 761:Drivers/STM32L4xx_HAL_Driver/Src/stm32l4xx_ll_usb.c **** 
 2340              		.loc 1 761 37 is_stmt 0 view .LVU813
 2341 0160 04FB05F5 		mul	r5, r4, r5
 761:Drivers/STM32L4xx_HAL_Driver/Src/stm32l4xx_ll_usb.c **** 
 2342              		.loc 1 761 21 view .LVU814
 2343 0164 CD61     		str	r5, [r1, #28]
 763:Drivers/STM32L4xx_HAL_Driver/Src/stm32l4xx_ll_usb.c ****       USBx_OUTEP(epnum)->DOEPTSIZ |= USB_OTG_DOEPTSIZ_XFRSIZ & ep->xfer_size;
 2344              		.loc 1 763 7 is_stmt 1 view .LVU815
 763:Drivers/STM32L4xx_HAL_Driver/Src/stm32l4xx_ll_usb.c ****       USBx_OUTEP(epnum)->DOEPTSIZ |= USB_OTG_DOEPTSIZ_XFRSIZ & ep->xfer_size;
 2345              		.loc 1 763 24 is_stmt 0 view .LVU816
 2346 0166 1569     		ldr	r5, [r2, #16]
 763:Drivers/STM32L4xx_HAL_Driver/Src/stm32l4xx_ll_usb.c ****       USBx_OUTEP(epnum)->DOEPTSIZ |= USB_OTG_DOEPTSIZ_XFRSIZ & ep->xfer_size;
 2347              		.loc 1 763 62 view .LVU817
 2348 0168 0F4E     		ldr	r6, .L159
 2349 016a 06EAC444 		and	r4, r6, r4, lsl #19
 2350              	.LVL150:
 763:Drivers/STM32L4xx_HAL_Driver/Src/stm32l4xx_ll_usb.c ****       USBx_OUTEP(epnum)->DOEPTSIZ |= USB_OTG_DOEPTSIZ_XFRSIZ & ep->xfer_size;
 2351              		.loc 1 763 35 view .LVU818
 2352 016e 2C43     		orrs	r4, r4, r5
 2353 0170 1461     		str	r4, [r2, #16]
 2354              	.LVL151:
 764:Drivers/STM32L4xx_HAL_Driver/Src/stm32l4xx_ll_usb.c ****     }
 2355              		.loc 1 764 7 is_stmt 1 view .LVU819
 764:Drivers/STM32L4xx_HAL_Driver/Src/stm32l4xx_ll_usb.c ****     }
 2356              		.loc 1 764 24 is_stmt 0 view .LVU820
 2357 0172 1469     		ldr	r4, [r2, #16]
ARM GAS  /tmp/ccdWnOQF.s 			page 79


 764:Drivers/STM32L4xx_HAL_Driver/Src/stm32l4xx_ll_usb.c ****     }
 2358              		.loc 1 764 66 view .LVU821
 2359 0174 CD69     		ldr	r5, [r1, #28]
 764:Drivers/STM32L4xx_HAL_Driver/Src/stm32l4xx_ll_usb.c ****     }
 2360              		.loc 1 764 62 view .LVU822
 2361 0176 C5F31205 		ubfx	r5, r5, #0, #19
 764:Drivers/STM32L4xx_HAL_Driver/Src/stm32l4xx_ll_usb.c ****     }
 2362              		.loc 1 764 35 view .LVU823
 2363 017a 2C43     		orrs	r4, r4, r5
 2364 017c 1461     		str	r4, [r2, #16]
 2365 017e 60E7     		b	.L153
 2366              	.LVL152:
 2367              	.L158:
 769:Drivers/STM32L4xx_HAL_Driver/Src/stm32l4xx_ll_usb.c ****       {
 2368              		.loc 1 769 7 is_stmt 1 view .LVU824
 769:Drivers/STM32L4xx_HAL_Driver/Src/stm32l4xx_ll_usb.c ****       {
 2369              		.loc 1 769 23 is_stmt 0 view .LVU825
 2370 0180 D0F80828 		ldr	r2, [r0, #2056]
 769:Drivers/STM32L4xx_HAL_Driver/Src/stm32l4xx_ll_usb.c ****       {
 2371              		.loc 1 769 10 view .LVU826
 2372 0184 12F4807F 		tst	r2, #256
 2373 0188 06D1     		bne	.L155
 771:Drivers/STM32L4xx_HAL_Driver/Src/stm32l4xx_ll_usb.c ****       }
 2374              		.loc 1 771 9 is_stmt 1 view .LVU827
 771:Drivers/STM32L4xx_HAL_Driver/Src/stm32l4xx_ll_usb.c ****       }
 2375              		.loc 1 771 26 is_stmt 0 view .LVU828
 2376 018a D3F8002B 		ldr	r2, [r3, #2816]
 771:Drivers/STM32L4xx_HAL_Driver/Src/stm32l4xx_ll_usb.c ****       }
 2377              		.loc 1 771 36 view .LVU829
 2378 018e 42F00052 		orr	r2, r2, #536870912
 2379 0192 C3F8002B 		str	r2, [r3, #2816]
 2380 0196 58E7     		b	.L154
 2381              	.L155:
 775:Drivers/STM32L4xx_HAL_Driver/Src/stm32l4xx_ll_usb.c ****       }
 2382              		.loc 1 775 9 is_stmt 1 view .LVU830
 775:Drivers/STM32L4xx_HAL_Driver/Src/stm32l4xx_ll_usb.c ****       }
 2383              		.loc 1 775 26 is_stmt 0 view .LVU831
 2384 0198 D3F8002B 		ldr	r2, [r3, #2816]
 775:Drivers/STM32L4xx_HAL_Driver/Src/stm32l4xx_ll_usb.c ****       }
 2385              		.loc 1 775 36 view .LVU832
 2386 019c 42F08052 		orr	r2, r2, #268435456
 2387 01a0 C3F8002B 		str	r2, [r3, #2816]
 2388 01a4 51E7     		b	.L154
 2389              	.L160:
 2390 01a6 00BF     		.align	2
 2391              	.L159:
 2392 01a8 0000F81F 		.word	536346624
 2393              		.cfi_endproc
 2394              	.LFE146:
 2396              		.section	.text.USB_ReadPacket,"ax",%progbits
 2397              		.align	1
 2398              		.global	USB_ReadPacket
 2399              		.syntax unified
 2400              		.thumb
 2401              		.thumb_func
 2403              	USB_ReadPacket:
 2404              	.LVL153:
ARM GAS  /tmp/ccdWnOQF.s 			page 80


 2405              	.LFB150:
 956:Drivers/STM32L4xx_HAL_Driver/Src/stm32l4xx_ll_usb.c ****   uint32_t USBx_BASE = (uint32_t)USBx;
 2406              		.loc 1 956 1 is_stmt 1 view -0
 2407              		.cfi_startproc
 2408              		@ args = 0, pretend = 0, frame = 0
 2409              		@ frame_needed = 0, uses_anonymous_args = 0
 956:Drivers/STM32L4xx_HAL_Driver/Src/stm32l4xx_ll_usb.c ****   uint32_t USBx_BASE = (uint32_t)USBx;
 2410              		.loc 1 956 1 is_stmt 0 view .LVU834
 2411 0000 10B5     		push	{r4, lr}
 2412              		.cfi_def_cfa_offset 8
 2413              		.cfi_offset 4, -8
 2414              		.cfi_offset 14, -4
 2415 0002 8446     		mov	ip, r0
 2416 0004 0846     		mov	r0, r1
 2417              	.LVL154:
 957:Drivers/STM32L4xx_HAL_Driver/Src/stm32l4xx_ll_usb.c ****   uint8_t *pDest = dest;
 2418              		.loc 1 957 3 is_stmt 1 view .LVU835
 958:Drivers/STM32L4xx_HAL_Driver/Src/stm32l4xx_ll_usb.c ****   uint32_t pData;
 2419              		.loc 1 958 3 view .LVU836
 959:Drivers/STM32L4xx_HAL_Driver/Src/stm32l4xx_ll_usb.c ****   uint32_t i;
 2420              		.loc 1 959 3 view .LVU837
 960:Drivers/STM32L4xx_HAL_Driver/Src/stm32l4xx_ll_usb.c ****   uint32_t count32b = (uint32_t)len >> 2U;
 2421              		.loc 1 960 3 view .LVU838
 961:Drivers/STM32L4xx_HAL_Driver/Src/stm32l4xx_ll_usb.c ****   uint16_t remaining_bytes = len % 4U;
 2422              		.loc 1 961 3 view .LVU839
 961:Drivers/STM32L4xx_HAL_Driver/Src/stm32l4xx_ll_usb.c ****   uint16_t remaining_bytes = len % 4U;
 2423              		.loc 1 961 37 is_stmt 0 view .LVU840
 2424 0006 4FEA920E 		lsr	lr, r2, #2
 2425              	.LVL155:
 962:Drivers/STM32L4xx_HAL_Driver/Src/stm32l4xx_ll_usb.c **** 
 2426              		.loc 1 962 3 is_stmt 1 view .LVU841
 962:Drivers/STM32L4xx_HAL_Driver/Src/stm32l4xx_ll_usb.c **** 
 2427              		.loc 1 962 12 is_stmt 0 view .LVU842
 2428 000a 02F00302 		and	r2, r2, #3
 2429              	.LVL156:
 964:Drivers/STM32L4xx_HAL_Driver/Src/stm32l4xx_ll_usb.c ****   {
 2430              		.loc 1 964 3 is_stmt 1 view .LVU843
 964:Drivers/STM32L4xx_HAL_Driver/Src/stm32l4xx_ll_usb.c ****   {
 2431              		.loc 1 964 10 is_stmt 0 view .LVU844
 2432 000e 0023     		movs	r3, #0
 964:Drivers/STM32L4xx_HAL_Driver/Src/stm32l4xx_ll_usb.c ****   {
 2433              		.loc 1 964 3 view .LVU845
 2434 0010 05E0     		b	.L162
 2435              	.LVL157:
 2436              	.L163:
 966:Drivers/STM32L4xx_HAL_Driver/Src/stm32l4xx_ll_usb.c ****     pDest++;
 2437              		.loc 1 966 5 is_stmt 1 discriminator 3 view .LVU846
 2438 0012 0CF58051 		add	r1, ip, #4096
 2439 0016 0968     		ldr	r1, [r1]
 2440 0018 40F8041B 		str	r1, [r0], #4	@ unaligned
 2441              	.LVL158:
 967:Drivers/STM32L4xx_HAL_Driver/Src/stm32l4xx_ll_usb.c ****     pDest++;
 2442              		.loc 1 967 5 discriminator 3 view .LVU847
 968:Drivers/STM32L4xx_HAL_Driver/Src/stm32l4xx_ll_usb.c ****     pDest++;
 2443              		.loc 1 968 5 discriminator 3 view .LVU848
 969:Drivers/STM32L4xx_HAL_Driver/Src/stm32l4xx_ll_usb.c ****     pDest++;
 2444              		.loc 1 969 5 discriminator 3 view .LVU849
ARM GAS  /tmp/ccdWnOQF.s 			page 81


 970:Drivers/STM32L4xx_HAL_Driver/Src/stm32l4xx_ll_usb.c ****   }
 2445              		.loc 1 970 5 discriminator 3 view .LVU850
 964:Drivers/STM32L4xx_HAL_Driver/Src/stm32l4xx_ll_usb.c ****   {
 2446              		.loc 1 964 31 discriminator 3 view .LVU851
 2447 001c 0133     		adds	r3, r3, #1
 2448              	.LVL159:
 2449              	.L162:
 964:Drivers/STM32L4xx_HAL_Driver/Src/stm32l4xx_ll_usb.c ****   {
 2450              		.loc 1 964 18 discriminator 1 view .LVU852
 2451 001e 7345     		cmp	r3, lr
 2452 0020 F7D3     		bcc	.L163
 974:Drivers/STM32L4xx_HAL_Driver/Src/stm32l4xx_ll_usb.c ****   {
 2453              		.loc 1 974 3 view .LVU853
 974:Drivers/STM32L4xx_HAL_Driver/Src/stm32l4xx_ll_usb.c ****   {
 2454              		.loc 1 974 6 is_stmt 0 view .LVU854
 2455 0022 7AB1     		cbz	r2, .L164
 976:Drivers/STM32L4xx_HAL_Driver/Src/stm32l4xx_ll_usb.c ****     __UNALIGNED_UINT32_WRITE(&pData, USBx_DFIFO(0U));
 2456              		.loc 1 976 5 is_stmt 1 view .LVU855
 2457              	.LVL160:
 977:Drivers/STM32L4xx_HAL_Driver/Src/stm32l4xx_ll_usb.c **** 
 2458              		.loc 1 977 5 view .LVU856
 2459 0024 0CF5805C 		add	ip, ip, #4096
 2460              	.LVL161:
 977:Drivers/STM32L4xx_HAL_Driver/Src/stm32l4xx_ll_usb.c **** 
 2461              		.loc 1 977 5 is_stmt 0 view .LVU857
 2462 0028 DCF80040 		ldr	r4, [ip]
 976:Drivers/STM32L4xx_HAL_Driver/Src/stm32l4xx_ll_usb.c ****     __UNALIGNED_UINT32_WRITE(&pData, USBx_DFIFO(0U));
 2463              		.loc 1 976 7 view .LVU858
 2464 002c 0021     		movs	r1, #0
 2465              	.LVL162:
 2466              	.L165:
 979:Drivers/STM32L4xx_HAL_Driver/Src/stm32l4xx_ll_usb.c ****     {
 2467              		.loc 1 979 5 is_stmt 1 discriminator 1 view .LVU859
 981:Drivers/STM32L4xx_HAL_Driver/Src/stm32l4xx_ll_usb.c ****       i++;
 2468              		.loc 1 981 7 discriminator 1 view .LVU860
 981:Drivers/STM32L4xx_HAL_Driver/Src/stm32l4xx_ll_usb.c ****       i++;
 2469              		.loc 1 981 50 is_stmt 0 discriminator 1 view .LVU861
 2470 002e CBB2     		uxtb	r3, r1
 2471 0030 DB00     		lsls	r3, r3, #3
 981:Drivers/STM32L4xx_HAL_Driver/Src/stm32l4xx_ll_usb.c ****       i++;
 2472              		.loc 1 981 43 discriminator 1 view .LVU862
 2473 0032 24FA03F3 		lsr	r3, r4, r3
 981:Drivers/STM32L4xx_HAL_Driver/Src/stm32l4xx_ll_usb.c ****       i++;
 2474              		.loc 1 981 25 discriminator 1 view .LVU863
 2475 0036 00F8013B 		strb	r3, [r0], #1
 2476              	.LVL163:
 982:Drivers/STM32L4xx_HAL_Driver/Src/stm32l4xx_ll_usb.c ****       pDest++;
 2477              		.loc 1 982 7 is_stmt 1 discriminator 1 view .LVU864
 982:Drivers/STM32L4xx_HAL_Driver/Src/stm32l4xx_ll_usb.c ****       pDest++;
 2478              		.loc 1 982 8 is_stmt 0 discriminator 1 view .LVU865
 2479 003a 0131     		adds	r1, r1, #1
 2480              	.LVL164:
 983:Drivers/STM32L4xx_HAL_Driver/Src/stm32l4xx_ll_usb.c ****       remaining_bytes--;
 2481              		.loc 1 983 7 is_stmt 1 discriminator 1 view .LVU866
 984:Drivers/STM32L4xx_HAL_Driver/Src/stm32l4xx_ll_usb.c ****     } while (remaining_bytes != 0U);
 2482              		.loc 1 984 7 discriminator 1 view .LVU867
 984:Drivers/STM32L4xx_HAL_Driver/Src/stm32l4xx_ll_usb.c ****     } while (remaining_bytes != 0U);
ARM GAS  /tmp/ccdWnOQF.s 			page 82


 2483              		.loc 1 984 22 is_stmt 0 discriminator 1 view .LVU868
 2484 003c 013A     		subs	r2, r2, #1
 2485              	.LVL165:
 984:Drivers/STM32L4xx_HAL_Driver/Src/stm32l4xx_ll_usb.c ****     } while (remaining_bytes != 0U);
 2486              		.loc 1 984 22 discriminator 1 view .LVU869
 2487 003e 92B2     		uxth	r2, r2
 2488              	.LVL166:
 985:Drivers/STM32L4xx_HAL_Driver/Src/stm32l4xx_ll_usb.c ****   }
 2489              		.loc 1 985 30 is_stmt 1 discriminator 1 view .LVU870
 2490 0040 002A     		cmp	r2, #0
 2491 0042 F4D1     		bne	.L165
 2492              	.LVL167:
 2493              	.L164:
 988:Drivers/STM32L4xx_HAL_Driver/Src/stm32l4xx_ll_usb.c **** }
 2494              		.loc 1 988 3 view .LVU871
 989:Drivers/STM32L4xx_HAL_Driver/Src/stm32l4xx_ll_usb.c **** 
 2495              		.loc 1 989 1 is_stmt 0 view .LVU872
 2496 0044 10BD     		pop	{r4, pc}
 2497              		.cfi_endproc
 2498              	.LFE150:
 2500              		.section	.text.USB_EPSetStall,"ax",%progbits
 2501              		.align	1
 2502              		.global	USB_EPSetStall
 2503              		.syntax unified
 2504              		.thumb
 2505              		.thumb_func
 2507              	USB_EPSetStall:
 2508              	.LVL168:
 2509              	.LFB151:
 998:Drivers/STM32L4xx_HAL_Driver/Src/stm32l4xx_ll_usb.c ****   uint32_t USBx_BASE = (uint32_t)USBx;
 2510              		.loc 1 998 1 is_stmt 1 view -0
 2511              		.cfi_startproc
 2512              		@ args = 0, pretend = 0, frame = 0
 2513              		@ frame_needed = 0, uses_anonymous_args = 0
 2514              		@ link register save eliminated.
 999:Drivers/STM32L4xx_HAL_Driver/Src/stm32l4xx_ll_usb.c ****   uint32_t epnum = (uint32_t)ep->num;
 2515              		.loc 1 999 3 view .LVU874
1000:Drivers/STM32L4xx_HAL_Driver/Src/stm32l4xx_ll_usb.c **** 
 2516              		.loc 1 1000 3 view .LVU875
1000:Drivers/STM32L4xx_HAL_Driver/Src/stm32l4xx_ll_usb.c **** 
 2517              		.loc 1 1000 32 is_stmt 0 view .LVU876
 2518 0000 0B78     		ldrb	r3, [r1]	@ zero_extendqisi2
 2519              	.LVL169:
1002:Drivers/STM32L4xx_HAL_Driver/Src/stm32l4xx_ll_usb.c ****   {
 2520              		.loc 1 1002 3 is_stmt 1 view .LVU877
1002:Drivers/STM32L4xx_HAL_Driver/Src/stm32l4xx_ll_usb.c ****   {
 2521              		.loc 1 1002 9 is_stmt 0 view .LVU878
 2522 0002 4A78     		ldrb	r2, [r1, #1]	@ zero_extendqisi2
1002:Drivers/STM32L4xx_HAL_Driver/Src/stm32l4xx_ll_usb.c ****   {
 2523              		.loc 1 1002 6 view .LVU879
 2524 0004 012A     		cmp	r2, #1
 2525 0006 14D0     		beq	.L172
1012:Drivers/STM32L4xx_HAL_Driver/Src/stm32l4xx_ll_usb.c ****     {
 2526              		.loc 1 1012 5 is_stmt 1 view .LVU880
1012:Drivers/STM32L4xx_HAL_Driver/Src/stm32l4xx_ll_usb.c ****     {
 2527              		.loc 1 1012 11 is_stmt 0 view .LVU881
 2528 0008 00EB4310 		add	r0, r0, r3, lsl #5
ARM GAS  /tmp/ccdWnOQF.s 			page 83


 2529              	.LVL170:
1012:Drivers/STM32L4xx_HAL_Driver/Src/stm32l4xx_ll_usb.c ****     {
 2530              		.loc 1 1012 28 view .LVU882
 2531 000c D0F8002B 		ldr	r2, [r0, #2816]
1012:Drivers/STM32L4xx_HAL_Driver/Src/stm32l4xx_ll_usb.c ****     {
 2532              		.loc 1 1012 8 view .LVU883
 2533 0010 002A     		cmp	r2, #0
 2534 0012 06DB     		blt	.L171
1012:Drivers/STM32L4xx_HAL_Driver/Src/stm32l4xx_ll_usb.c ****     {
 2535              		.loc 1 1012 70 discriminator 1 view .LVU884
 2536 0014 2BB1     		cbz	r3, .L171
1014:Drivers/STM32L4xx_HAL_Driver/Src/stm32l4xx_ll_usb.c ****     }
 2537              		.loc 1 1014 7 is_stmt 1 view .LVU885
1014:Drivers/STM32L4xx_HAL_Driver/Src/stm32l4xx_ll_usb.c ****     }
 2538              		.loc 1 1014 24 is_stmt 0 view .LVU886
 2539 0016 D0F8003B 		ldr	r3, [r0, #2816]
 2540              	.LVL171:
1014:Drivers/STM32L4xx_HAL_Driver/Src/stm32l4xx_ll_usb.c ****     }
 2541              		.loc 1 1014 34 view .LVU887
 2542 001a 23F08043 		bic	r3, r3, #1073741824
 2543 001e C0F8003B 		str	r3, [r0, #2816]
 2544              	.LVL172:
 2545              	.L171:
1016:Drivers/STM32L4xx_HAL_Driver/Src/stm32l4xx_ll_usb.c ****   }
 2546              		.loc 1 1016 5 is_stmt 1 view .LVU888
1016:Drivers/STM32L4xx_HAL_Driver/Src/stm32l4xx_ll_usb.c ****   }
 2547              		.loc 1 1016 22 is_stmt 0 view .LVU889
 2548 0022 D0F8003B 		ldr	r3, [r0, #2816]
1016:Drivers/STM32L4xx_HAL_Driver/Src/stm32l4xx_ll_usb.c ****   }
 2549              		.loc 1 1016 32 view .LVU890
 2550 0026 43F40013 		orr	r3, r3, #2097152
 2551 002a C0F8003B 		str	r3, [r0, #2816]
 2552              	.L170:
1019:Drivers/STM32L4xx_HAL_Driver/Src/stm32l4xx_ll_usb.c **** }
 2553              		.loc 1 1019 3 is_stmt 1 view .LVU891
1020:Drivers/STM32L4xx_HAL_Driver/Src/stm32l4xx_ll_usb.c **** 
 2554              		.loc 1 1020 1 is_stmt 0 view .LVU892
 2555 002e 0020     		movs	r0, #0
 2556 0030 7047     		bx	lr
 2557              	.LVL173:
 2558              	.L172:
1004:Drivers/STM32L4xx_HAL_Driver/Src/stm32l4xx_ll_usb.c ****     {
 2559              		.loc 1 1004 5 is_stmt 1 view .LVU893
1004:Drivers/STM32L4xx_HAL_Driver/Src/stm32l4xx_ll_usb.c ****     {
 2560              		.loc 1 1004 11 is_stmt 0 view .LVU894
 2561 0032 00EB4310 		add	r0, r0, r3, lsl #5
 2562              	.LVL174:
1004:Drivers/STM32L4xx_HAL_Driver/Src/stm32l4xx_ll_usb.c ****     {
 2563              		.loc 1 1004 27 view .LVU895
 2564 0036 D0F80029 		ldr	r2, [r0, #2304]
1004:Drivers/STM32L4xx_HAL_Driver/Src/stm32l4xx_ll_usb.c ****     {
 2565              		.loc 1 1004 8 view .LVU896
 2566 003a 002A     		cmp	r2, #0
 2567 003c 06DB     		blt	.L169
1004:Drivers/STM32L4xx_HAL_Driver/Src/stm32l4xx_ll_usb.c ****     {
 2568              		.loc 1 1004 69 discriminator 1 view .LVU897
 2569 003e 2BB1     		cbz	r3, .L169
ARM GAS  /tmp/ccdWnOQF.s 			page 84


1006:Drivers/STM32L4xx_HAL_Driver/Src/stm32l4xx_ll_usb.c ****     }
 2570              		.loc 1 1006 7 is_stmt 1 view .LVU898
1006:Drivers/STM32L4xx_HAL_Driver/Src/stm32l4xx_ll_usb.c ****     }
 2571              		.loc 1 1006 23 is_stmt 0 view .LVU899
 2572 0040 D0F80039 		ldr	r3, [r0, #2304]
 2573              	.LVL175:
1006:Drivers/STM32L4xx_HAL_Driver/Src/stm32l4xx_ll_usb.c ****     }
 2574              		.loc 1 1006 33 view .LVU900
 2575 0044 23F08043 		bic	r3, r3, #1073741824
 2576 0048 C0F80039 		str	r3, [r0, #2304]
 2577              	.LVL176:
 2578              	.L169:
1008:Drivers/STM32L4xx_HAL_Driver/Src/stm32l4xx_ll_usb.c ****   }
 2579              		.loc 1 1008 5 is_stmt 1 view .LVU901
1008:Drivers/STM32L4xx_HAL_Driver/Src/stm32l4xx_ll_usb.c ****   }
 2580              		.loc 1 1008 21 is_stmt 0 view .LVU902
 2581 004c D0F80039 		ldr	r3, [r0, #2304]
1008:Drivers/STM32L4xx_HAL_Driver/Src/stm32l4xx_ll_usb.c ****   }
 2582              		.loc 1 1008 31 view .LVU903
 2583 0050 43F40013 		orr	r3, r3, #2097152
 2584 0054 C0F80039 		str	r3, [r0, #2304]
 2585 0058 E9E7     		b	.L170
 2586              		.cfi_endproc
 2587              	.LFE151:
 2589              		.section	.text.USB_EPClearStall,"ax",%progbits
 2590              		.align	1
 2591              		.global	USB_EPClearStall
 2592              		.syntax unified
 2593              		.thumb
 2594              		.thumb_func
 2596              	USB_EPClearStall:
 2597              	.LVL177:
 2598              	.LFB152:
1029:Drivers/STM32L4xx_HAL_Driver/Src/stm32l4xx_ll_usb.c ****   uint32_t USBx_BASE = (uint32_t)USBx;
 2599              		.loc 1 1029 1 is_stmt 1 view -0
 2600              		.cfi_startproc
 2601              		@ args = 0, pretend = 0, frame = 0
 2602              		@ frame_needed = 0, uses_anonymous_args = 0
 2603              		@ link register save eliminated.
1030:Drivers/STM32L4xx_HAL_Driver/Src/stm32l4xx_ll_usb.c ****   uint32_t epnum = (uint32_t)ep->num;
 2604              		.loc 1 1030 3 view .LVU905
1031:Drivers/STM32L4xx_HAL_Driver/Src/stm32l4xx_ll_usb.c **** 
 2605              		.loc 1 1031 3 view .LVU906
1031:Drivers/STM32L4xx_HAL_Driver/Src/stm32l4xx_ll_usb.c **** 
 2606              		.loc 1 1031 32 is_stmt 0 view .LVU907
 2607 0000 0B78     		ldrb	r3, [r1]	@ zero_extendqisi2
 2608              	.LVL178:
1033:Drivers/STM32L4xx_HAL_Driver/Src/stm32l4xx_ll_usb.c ****   {
 2609              		.loc 1 1033 3 is_stmt 1 view .LVU908
1033:Drivers/STM32L4xx_HAL_Driver/Src/stm32l4xx_ll_usb.c ****   {
 2610              		.loc 1 1033 9 is_stmt 0 view .LVU909
 2611 0002 4A78     		ldrb	r2, [r1, #1]	@ zero_extendqisi2
1033:Drivers/STM32L4xx_HAL_Driver/Src/stm32l4xx_ll_usb.c ****   {
 2612              		.loc 1 1033 6 view .LVU910
 2613 0004 012A     		cmp	r2, #1
 2614 0006 0ED0     		beq	.L176
1043:Drivers/STM32L4xx_HAL_Driver/Src/stm32l4xx_ll_usb.c ****     if ((ep->type == EP_TYPE_INTR) || (ep->type == EP_TYPE_BULK))
ARM GAS  /tmp/ccdWnOQF.s 			page 85


 2615              		.loc 1 1043 5 is_stmt 1 view .LVU911
1043:Drivers/STM32L4xx_HAL_Driver/Src/stm32l4xx_ll_usb.c ****     if ((ep->type == EP_TYPE_INTR) || (ep->type == EP_TYPE_BULK))
 2616              		.loc 1 1043 22 is_stmt 0 view .LVU912
 2617 0008 00EB4310 		add	r0, r0, r3, lsl #5
 2618              	.LVL179:
1043:Drivers/STM32L4xx_HAL_Driver/Src/stm32l4xx_ll_usb.c ****     if ((ep->type == EP_TYPE_INTR) || (ep->type == EP_TYPE_BULK))
 2619              		.loc 1 1043 22 view .LVU913
 2620 000c D0F8003B 		ldr	r3, [r0, #2816]
 2621              	.LVL180:
1043:Drivers/STM32L4xx_HAL_Driver/Src/stm32l4xx_ll_usb.c ****     if ((ep->type == EP_TYPE_INTR) || (ep->type == EP_TYPE_BULK))
 2622              		.loc 1 1043 32 view .LVU914
 2623 0010 23F40013 		bic	r3, r3, #2097152
 2624 0014 C0F8003B 		str	r3, [r0, #2816]
 2625              	.LVL181:
1044:Drivers/STM32L4xx_HAL_Driver/Src/stm32l4xx_ll_usb.c ****     {
 2626              		.loc 1 1044 5 is_stmt 1 view .LVU915
1044:Drivers/STM32L4xx_HAL_Driver/Src/stm32l4xx_ll_usb.c ****     {
 2627              		.loc 1 1044 12 is_stmt 0 view .LVU916
 2628 0018 0B79     		ldrb	r3, [r1, #4]	@ zero_extendqisi2
1044:Drivers/STM32L4xx_HAL_Driver/Src/stm32l4xx_ll_usb.c ****     {
 2629              		.loc 1 1044 36 view .LVU917
 2630 001a 023B     		subs	r3, r3, #2
 2631 001c DBB2     		uxtb	r3, r3
1044:Drivers/STM32L4xx_HAL_Driver/Src/stm32l4xx_ll_usb.c ****     {
 2632              		.loc 1 1044 8 view .LVU918
 2633 001e 012B     		cmp	r3, #1
 2634 0020 15D9     		bls	.L177
 2635              	.L175:
1049:Drivers/STM32L4xx_HAL_Driver/Src/stm32l4xx_ll_usb.c **** }
 2636              		.loc 1 1049 3 is_stmt 1 view .LVU919
1050:Drivers/STM32L4xx_HAL_Driver/Src/stm32l4xx_ll_usb.c **** 
 2637              		.loc 1 1050 1 is_stmt 0 view .LVU920
 2638 0022 0020     		movs	r0, #0
 2639 0024 7047     		bx	lr
 2640              	.LVL182:
 2641              	.L176:
1035:Drivers/STM32L4xx_HAL_Driver/Src/stm32l4xx_ll_usb.c ****     if ((ep->type == EP_TYPE_INTR) || (ep->type == EP_TYPE_BULK))
 2642              		.loc 1 1035 5 is_stmt 1 view .LVU921
1035:Drivers/STM32L4xx_HAL_Driver/Src/stm32l4xx_ll_usb.c ****     if ((ep->type == EP_TYPE_INTR) || (ep->type == EP_TYPE_BULK))
 2643              		.loc 1 1035 21 is_stmt 0 view .LVU922
 2644 0026 00EB4310 		add	r0, r0, r3, lsl #5
 2645              	.LVL183:
1035:Drivers/STM32L4xx_HAL_Driver/Src/stm32l4xx_ll_usb.c ****     if ((ep->type == EP_TYPE_INTR) || (ep->type == EP_TYPE_BULK))
 2646              		.loc 1 1035 21 view .LVU923
 2647 002a D0F80039 		ldr	r3, [r0, #2304]
 2648              	.LVL184:
1035:Drivers/STM32L4xx_HAL_Driver/Src/stm32l4xx_ll_usb.c ****     if ((ep->type == EP_TYPE_INTR) || (ep->type == EP_TYPE_BULK))
 2649              		.loc 1 1035 31 view .LVU924
 2650 002e 23F40013 		bic	r3, r3, #2097152
 2651 0032 C0F80039 		str	r3, [r0, #2304]
 2652              	.LVL185:
1036:Drivers/STM32L4xx_HAL_Driver/Src/stm32l4xx_ll_usb.c ****     {
 2653              		.loc 1 1036 5 is_stmt 1 view .LVU925
1036:Drivers/STM32L4xx_HAL_Driver/Src/stm32l4xx_ll_usb.c ****     {
 2654              		.loc 1 1036 12 is_stmt 0 view .LVU926
 2655 0036 0B79     		ldrb	r3, [r1, #4]	@ zero_extendqisi2
1036:Drivers/STM32L4xx_HAL_Driver/Src/stm32l4xx_ll_usb.c ****     {
ARM GAS  /tmp/ccdWnOQF.s 			page 86


 2656              		.loc 1 1036 36 view .LVU927
 2657 0038 023B     		subs	r3, r3, #2
 2658 003a DBB2     		uxtb	r3, r3
1036:Drivers/STM32L4xx_HAL_Driver/Src/stm32l4xx_ll_usb.c ****     {
 2659              		.loc 1 1036 8 view .LVU928
 2660 003c 012B     		cmp	r3, #1
 2661 003e F0D8     		bhi	.L175
1038:Drivers/STM32L4xx_HAL_Driver/Src/stm32l4xx_ll_usb.c ****     }
 2662              		.loc 1 1038 7 is_stmt 1 view .LVU929
1038:Drivers/STM32L4xx_HAL_Driver/Src/stm32l4xx_ll_usb.c ****     }
 2663              		.loc 1 1038 23 is_stmt 0 view .LVU930
 2664 0040 D0F80039 		ldr	r3, [r0, #2304]
1038:Drivers/STM32L4xx_HAL_Driver/Src/stm32l4xx_ll_usb.c ****     }
 2665              		.loc 1 1038 33 view .LVU931
 2666 0044 43F08053 		orr	r3, r3, #268435456
 2667 0048 C0F80039 		str	r3, [r0, #2304]
 2668 004c E9E7     		b	.L175
 2669              	.L177:
1046:Drivers/STM32L4xx_HAL_Driver/Src/stm32l4xx_ll_usb.c ****     }
 2670              		.loc 1 1046 7 is_stmt 1 view .LVU932
1046:Drivers/STM32L4xx_HAL_Driver/Src/stm32l4xx_ll_usb.c ****     }
 2671              		.loc 1 1046 24 is_stmt 0 view .LVU933
 2672 004e D0F8003B 		ldr	r3, [r0, #2816]
1046:Drivers/STM32L4xx_HAL_Driver/Src/stm32l4xx_ll_usb.c ****     }
 2673              		.loc 1 1046 34 view .LVU934
 2674 0052 43F08053 		orr	r3, r3, #268435456
 2675 0056 C0F8003B 		str	r3, [r0, #2816]
 2676 005a E2E7     		b	.L175
 2677              		.cfi_endproc
 2678              	.LFE152:
 2680              		.section	.text.USB_StopDevice,"ax",%progbits
 2681              		.align	1
 2682              		.global	USB_StopDevice
 2683              		.syntax unified
 2684              		.thumb
 2685              		.thumb_func
 2687              	USB_StopDevice:
 2688              	.LVL186:
 2689              	.LFB153:
1058:Drivers/STM32L4xx_HAL_Driver/Src/stm32l4xx_ll_usb.c ****   HAL_StatusTypeDef ret;
 2690              		.loc 1 1058 1 is_stmt 1 view -0
 2691              		.cfi_startproc
 2692              		@ args = 0, pretend = 0, frame = 0
 2693              		@ frame_needed = 0, uses_anonymous_args = 0
1058:Drivers/STM32L4xx_HAL_Driver/Src/stm32l4xx_ll_usb.c ****   HAL_StatusTypeDef ret;
 2694              		.loc 1 1058 1 is_stmt 0 view .LVU936
 2695 0000 10B5     		push	{r4, lr}
 2696              		.cfi_def_cfa_offset 8
 2697              		.cfi_offset 4, -8
 2698              		.cfi_offset 14, -4
 2699 0002 0446     		mov	r4, r0
1059:Drivers/STM32L4xx_HAL_Driver/Src/stm32l4xx_ll_usb.c ****   uint32_t USBx_BASE = (uint32_t)USBx;
 2700              		.loc 1 1059 3 is_stmt 1 view .LVU937
1060:Drivers/STM32L4xx_HAL_Driver/Src/stm32l4xx_ll_usb.c ****   uint32_t i;
 2701              		.loc 1 1060 3 view .LVU938
 2702              	.LVL187:
1061:Drivers/STM32L4xx_HAL_Driver/Src/stm32l4xx_ll_usb.c **** 
ARM GAS  /tmp/ccdWnOQF.s 			page 87


 2703              		.loc 1 1061 3 view .LVU939
1064:Drivers/STM32L4xx_HAL_Driver/Src/stm32l4xx_ll_usb.c ****   {
 2704              		.loc 1 1064 3 view .LVU940
1064:Drivers/STM32L4xx_HAL_Driver/Src/stm32l4xx_ll_usb.c ****   {
 2705              		.loc 1 1064 10 is_stmt 0 view .LVU941
 2706 0004 0022     		movs	r2, #0
1064:Drivers/STM32L4xx_HAL_Driver/Src/stm32l4xx_ll_usb.c ****   {
 2707              		.loc 1 1064 3 view .LVU942
 2708 0006 08E0     		b	.L179
 2709              	.LVL188:
 2710              	.L180:
1066:Drivers/STM32L4xx_HAL_Driver/Src/stm32l4xx_ll_usb.c ****     USBx_OUTEP(i)->DOEPINT = 0xFB7FU;
 2711              		.loc 1 1066 5 is_stmt 1 discriminator 3 view .LVU943
 2712 0008 04EB4213 		add	r3, r4, r2, lsl #5
1066:Drivers/STM32L4xx_HAL_Driver/Src/stm32l4xx_ll_usb.c ****     USBx_OUTEP(i)->DOEPINT = 0xFB7FU;
 2713              		.loc 1 1066 27 is_stmt 0 discriminator 3 view .LVU944
 2714 000c 4FF67F31 		movw	r1, #64383
 2715 0010 C3F80819 		str	r1, [r3, #2312]
1067:Drivers/STM32L4xx_HAL_Driver/Src/stm32l4xx_ll_usb.c ****   }
 2716              		.loc 1 1067 5 is_stmt 1 discriminator 3 view .LVU945
1067:Drivers/STM32L4xx_HAL_Driver/Src/stm32l4xx_ll_usb.c ****   }
 2717              		.loc 1 1067 28 is_stmt 0 discriminator 3 view .LVU946
 2718 0014 C3F8081B 		str	r1, [r3, #2824]
1064:Drivers/STM32L4xx_HAL_Driver/Src/stm32l4xx_ll_usb.c ****   {
 2719              		.loc 1 1064 26 is_stmt 1 discriminator 3 view .LVU947
 2720 0018 0132     		adds	r2, r2, #1
 2721              	.LVL189:
 2722              	.L179:
1064:Drivers/STM32L4xx_HAL_Driver/Src/stm32l4xx_ll_usb.c ****   {
 2723              		.loc 1 1064 18 discriminator 1 view .LVU948
 2724 001a 0E2A     		cmp	r2, #14
 2725 001c F4D9     		bls	.L180
1071:Drivers/STM32L4xx_HAL_Driver/Src/stm32l4xx_ll_usb.c ****   USBx_DEVICE->DOEPMSK  = 0U;
 2726              		.loc 1 1071 3 view .LVU949
1071:Drivers/STM32L4xx_HAL_Driver/Src/stm32l4xx_ll_usb.c ****   USBx_DEVICE->DOEPMSK  = 0U;
 2727              		.loc 1 1071 25 is_stmt 0 view .LVU950
 2728 001e 0022     		movs	r2, #0
 2729              	.LVL190:
1071:Drivers/STM32L4xx_HAL_Driver/Src/stm32l4xx_ll_usb.c ****   USBx_DEVICE->DOEPMSK  = 0U;
 2730              		.loc 1 1071 25 view .LVU951
 2731 0020 C4F81028 		str	r2, [r4, #2064]
1072:Drivers/STM32L4xx_HAL_Driver/Src/stm32l4xx_ll_usb.c ****   USBx_DEVICE->DAINTMSK = 0U;
 2732              		.loc 1 1072 3 is_stmt 1 view .LVU952
1072:Drivers/STM32L4xx_HAL_Driver/Src/stm32l4xx_ll_usb.c ****   USBx_DEVICE->DAINTMSK = 0U;
 2733              		.loc 1 1072 25 is_stmt 0 view .LVU953
 2734 0024 C4F81428 		str	r2, [r4, #2068]
1073:Drivers/STM32L4xx_HAL_Driver/Src/stm32l4xx_ll_usb.c **** 
 2735              		.loc 1 1073 3 is_stmt 1 view .LVU954
1073:Drivers/STM32L4xx_HAL_Driver/Src/stm32l4xx_ll_usb.c **** 
 2736              		.loc 1 1073 25 is_stmt 0 view .LVU955
 2737 0028 C4F81C28 		str	r2, [r4, #2076]
1076:Drivers/STM32L4xx_HAL_Driver/Src/stm32l4xx_ll_usb.c ****   if (ret != HAL_OK)
 2738              		.loc 1 1076 3 is_stmt 1 view .LVU956
1076:Drivers/STM32L4xx_HAL_Driver/Src/stm32l4xx_ll_usb.c ****   if (ret != HAL_OK)
 2739              		.loc 1 1076 9 is_stmt 0 view .LVU957
 2740 002c 2046     		mov	r0, r4
 2741              	.LVL191:
ARM GAS  /tmp/ccdWnOQF.s 			page 88


1076:Drivers/STM32L4xx_HAL_Driver/Src/stm32l4xx_ll_usb.c ****   if (ret != HAL_OK)
 2742              		.loc 1 1076 9 view .LVU958
 2743 002e FFF7FEFF 		bl	USB_FlushRxFifo
 2744              	.LVL192:
1077:Drivers/STM32L4xx_HAL_Driver/Src/stm32l4xx_ll_usb.c ****   {
 2745              		.loc 1 1077 3 is_stmt 1 view .LVU959
1077:Drivers/STM32L4xx_HAL_Driver/Src/stm32l4xx_ll_usb.c ****   {
 2746              		.loc 1 1077 6 is_stmt 0 view .LVU960
 2747 0032 00B1     		cbz	r0, .L183
 2748              	.L181:
1089:Drivers/STM32L4xx_HAL_Driver/Src/stm32l4xx_ll_usb.c **** 
 2749              		.loc 1 1089 1 view .LVU961
 2750 0034 10BD     		pop	{r4, pc}
 2751              	.LVL193:
 2752              	.L183:
1082:Drivers/STM32L4xx_HAL_Driver/Src/stm32l4xx_ll_usb.c ****   if (ret != HAL_OK)
 2753              		.loc 1 1082 3 is_stmt 1 view .LVU962
1082:Drivers/STM32L4xx_HAL_Driver/Src/stm32l4xx_ll_usb.c ****   if (ret != HAL_OK)
 2754              		.loc 1 1082 9 is_stmt 0 view .LVU963
 2755 0036 1021     		movs	r1, #16
 2756 0038 2046     		mov	r0, r4
 2757              	.LVL194:
1082:Drivers/STM32L4xx_HAL_Driver/Src/stm32l4xx_ll_usb.c ****   if (ret != HAL_OK)
 2758              		.loc 1 1082 9 view .LVU964
 2759 003a FFF7FEFF 		bl	USB_FlushTxFifo
 2760              	.LVL195:
1083:Drivers/STM32L4xx_HAL_Driver/Src/stm32l4xx_ll_usb.c ****   {
 2761              		.loc 1 1083 3 is_stmt 1 view .LVU965
 2762 003e F9E7     		b	.L181
 2763              		.cfi_endproc
 2764              	.LFE153:
 2766              		.section	.text.USB_SetDevAddress,"ax",%progbits
 2767              		.align	1
 2768              		.global	USB_SetDevAddress
 2769              		.syntax unified
 2770              		.thumb
 2771              		.thumb_func
 2773              	USB_SetDevAddress:
 2774              	.LVL196:
 2775              	.LFB154:
1099:Drivers/STM32L4xx_HAL_Driver/Src/stm32l4xx_ll_usb.c ****   uint32_t USBx_BASE = (uint32_t)USBx;
 2776              		.loc 1 1099 1 view -0
 2777              		.cfi_startproc
 2778              		@ args = 0, pretend = 0, frame = 0
 2779              		@ frame_needed = 0, uses_anonymous_args = 0
 2780              		@ link register save eliminated.
1100:Drivers/STM32L4xx_HAL_Driver/Src/stm32l4xx_ll_usb.c **** 
 2781              		.loc 1 1100 3 view .LVU967
1102:Drivers/STM32L4xx_HAL_Driver/Src/stm32l4xx_ll_usb.c ****   USBx_DEVICE->DCFG |= ((uint32_t)address << 4) & USB_OTG_DCFG_DAD;
 2782              		.loc 1 1102 3 view .LVU968
1102:Drivers/STM32L4xx_HAL_Driver/Src/stm32l4xx_ll_usb.c ****   USBx_DEVICE->DCFG |= ((uint32_t)address << 4) & USB_OTG_DCFG_DAD;
 2783              		.loc 1 1102 14 is_stmt 0 view .LVU969
 2784 0000 D0F80038 		ldr	r3, [r0, #2048]
1102:Drivers/STM32L4xx_HAL_Driver/Src/stm32l4xx_ll_usb.c ****   USBx_DEVICE->DCFG |= ((uint32_t)address << 4) & USB_OTG_DCFG_DAD;
 2785              		.loc 1 1102 21 view .LVU970
 2786 0004 23F4FE63 		bic	r3, r3, #2032
 2787 0008 C0F80038 		str	r3, [r0, #2048]
ARM GAS  /tmp/ccdWnOQF.s 			page 89


1103:Drivers/STM32L4xx_HAL_Driver/Src/stm32l4xx_ll_usb.c **** 
 2788              		.loc 1 1103 3 is_stmt 1 view .LVU971
1103:Drivers/STM32L4xx_HAL_Driver/Src/stm32l4xx_ll_usb.c **** 
 2789              		.loc 1 1103 14 is_stmt 0 view .LVU972
 2790 000c D0F80038 		ldr	r3, [r0, #2048]
1103:Drivers/STM32L4xx_HAL_Driver/Src/stm32l4xx_ll_usb.c **** 
 2791              		.loc 1 1103 43 view .LVU973
 2792 0010 0901     		lsls	r1, r1, #4
 2793              	.LVL197:
1103:Drivers/STM32L4xx_HAL_Driver/Src/stm32l4xx_ll_usb.c **** 
 2794              		.loc 1 1103 49 view .LVU974
 2795 0012 01F4FE61 		and	r1, r1, #2032
1103:Drivers/STM32L4xx_HAL_Driver/Src/stm32l4xx_ll_usb.c **** 
 2796              		.loc 1 1103 21 view .LVU975
 2797 0016 0B43     		orrs	r3, r3, r1
 2798 0018 C0F80038 		str	r3, [r0, #2048]
1105:Drivers/STM32L4xx_HAL_Driver/Src/stm32l4xx_ll_usb.c **** }
 2799              		.loc 1 1105 3 is_stmt 1 view .LVU976
1106:Drivers/STM32L4xx_HAL_Driver/Src/stm32l4xx_ll_usb.c **** 
 2800              		.loc 1 1106 1 is_stmt 0 view .LVU977
 2801 001c 0020     		movs	r0, #0
 2802              	.LVL198:
1106:Drivers/STM32L4xx_HAL_Driver/Src/stm32l4xx_ll_usb.c **** 
 2803              		.loc 1 1106 1 view .LVU978
 2804 001e 7047     		bx	lr
 2805              		.cfi_endproc
 2806              	.LFE154:
 2808              		.section	.text.USB_DevConnect,"ax",%progbits
 2809              		.align	1
 2810              		.global	USB_DevConnect
 2811              		.syntax unified
 2812              		.thumb
 2813              		.thumb_func
 2815              	USB_DevConnect:
 2816              	.LVL199:
 2817              	.LFB155:
1114:Drivers/STM32L4xx_HAL_Driver/Src/stm32l4xx_ll_usb.c ****   uint32_t USBx_BASE = (uint32_t)USBx;
 2818              		.loc 1 1114 1 is_stmt 1 view -0
 2819              		.cfi_startproc
 2820              		@ args = 0, pretend = 0, frame = 0
 2821              		@ frame_needed = 0, uses_anonymous_args = 0
 2822              		@ link register save eliminated.
1115:Drivers/STM32L4xx_HAL_Driver/Src/stm32l4xx_ll_usb.c **** 
 2823              		.loc 1 1115 3 view .LVU980
1118:Drivers/STM32L4xx_HAL_Driver/Src/stm32l4xx_ll_usb.c **** 
 2824              		.loc 1 1118 3 view .LVU981
 2825 0000 D0F8003E 		ldr	r3, [r0, #3584]
1118:Drivers/STM32L4xx_HAL_Driver/Src/stm32l4xx_ll_usb.c **** 
 2826              		.loc 1 1118 16 is_stmt 0 view .LVU982
 2827 0004 23F00303 		bic	r3, r3, #3
 2828 0008 C0F8003E 		str	r3, [r0, #3584]
1120:Drivers/STM32L4xx_HAL_Driver/Src/stm32l4xx_ll_usb.c **** 
 2829              		.loc 1 1120 3 is_stmt 1 view .LVU983
1120:Drivers/STM32L4xx_HAL_Driver/Src/stm32l4xx_ll_usb.c **** 
 2830              		.loc 1 1120 14 is_stmt 0 view .LVU984
 2831 000c D0F80438 		ldr	r3, [r0, #2052]
1120:Drivers/STM32L4xx_HAL_Driver/Src/stm32l4xx_ll_usb.c **** 
ARM GAS  /tmp/ccdWnOQF.s 			page 90


 2832              		.loc 1 1120 21 view .LVU985
 2833 0010 23F00203 		bic	r3, r3, #2
 2834 0014 C0F80438 		str	r3, [r0, #2052]
1122:Drivers/STM32L4xx_HAL_Driver/Src/stm32l4xx_ll_usb.c **** }
 2835              		.loc 1 1122 3 is_stmt 1 view .LVU986
1123:Drivers/STM32L4xx_HAL_Driver/Src/stm32l4xx_ll_usb.c **** 
 2836              		.loc 1 1123 1 is_stmt 0 view .LVU987
 2837 0018 0020     		movs	r0, #0
 2838              	.LVL200:
1123:Drivers/STM32L4xx_HAL_Driver/Src/stm32l4xx_ll_usb.c **** 
 2839              		.loc 1 1123 1 view .LVU988
 2840 001a 7047     		bx	lr
 2841              		.cfi_endproc
 2842              	.LFE155:
 2844              		.section	.text.USB_DevDisconnect,"ax",%progbits
 2845              		.align	1
 2846              		.global	USB_DevDisconnect
 2847              		.syntax unified
 2848              		.thumb
 2849              		.thumb_func
 2851              	USB_DevDisconnect:
 2852              	.LVL201:
 2853              	.LFB156:
1131:Drivers/STM32L4xx_HAL_Driver/Src/stm32l4xx_ll_usb.c ****   uint32_t USBx_BASE = (uint32_t)USBx;
 2854              		.loc 1 1131 1 is_stmt 1 view -0
 2855              		.cfi_startproc
 2856              		@ args = 0, pretend = 0, frame = 0
 2857              		@ frame_needed = 0, uses_anonymous_args = 0
 2858              		@ link register save eliminated.
1132:Drivers/STM32L4xx_HAL_Driver/Src/stm32l4xx_ll_usb.c **** 
 2859              		.loc 1 1132 3 view .LVU990
1135:Drivers/STM32L4xx_HAL_Driver/Src/stm32l4xx_ll_usb.c **** 
 2860              		.loc 1 1135 3 view .LVU991
 2861 0000 D0F8003E 		ldr	r3, [r0, #3584]
1135:Drivers/STM32L4xx_HAL_Driver/Src/stm32l4xx_ll_usb.c **** 
 2862              		.loc 1 1135 16 is_stmt 0 view .LVU992
 2863 0004 23F00303 		bic	r3, r3, #3
 2864 0008 C0F8003E 		str	r3, [r0, #3584]
1137:Drivers/STM32L4xx_HAL_Driver/Src/stm32l4xx_ll_usb.c **** 
 2865              		.loc 1 1137 3 is_stmt 1 view .LVU993
1137:Drivers/STM32L4xx_HAL_Driver/Src/stm32l4xx_ll_usb.c **** 
 2866              		.loc 1 1137 14 is_stmt 0 view .LVU994
 2867 000c D0F80438 		ldr	r3, [r0, #2052]
1137:Drivers/STM32L4xx_HAL_Driver/Src/stm32l4xx_ll_usb.c **** 
 2868              		.loc 1 1137 21 view .LVU995
 2869 0010 43F00203 		orr	r3, r3, #2
 2870 0014 C0F80438 		str	r3, [r0, #2052]
1139:Drivers/STM32L4xx_HAL_Driver/Src/stm32l4xx_ll_usb.c **** }
 2871              		.loc 1 1139 3 is_stmt 1 view .LVU996
1140:Drivers/STM32L4xx_HAL_Driver/Src/stm32l4xx_ll_usb.c **** 
 2872              		.loc 1 1140 1 is_stmt 0 view .LVU997
 2873 0018 0020     		movs	r0, #0
 2874              	.LVL202:
1140:Drivers/STM32L4xx_HAL_Driver/Src/stm32l4xx_ll_usb.c **** 
 2875              		.loc 1 1140 1 view .LVU998
 2876 001a 7047     		bx	lr
 2877              		.cfi_endproc
ARM GAS  /tmp/ccdWnOQF.s 			page 91


 2878              	.LFE156:
 2880              		.section	.text.USB_ReadInterrupts,"ax",%progbits
 2881              		.align	1
 2882              		.global	USB_ReadInterrupts
 2883              		.syntax unified
 2884              		.thumb
 2885              		.thumb_func
 2887              	USB_ReadInterrupts:
 2888              	.LVL203:
 2889              	.LFB157:
1148:Drivers/STM32L4xx_HAL_Driver/Src/stm32l4xx_ll_usb.c ****   uint32_t tmpreg;
 2890              		.loc 1 1148 1 is_stmt 1 view -0
 2891              		.cfi_startproc
 2892              		@ args = 0, pretend = 0, frame = 0
 2893              		@ frame_needed = 0, uses_anonymous_args = 0
 2894              		@ link register save eliminated.
1149:Drivers/STM32L4xx_HAL_Driver/Src/stm32l4xx_ll_usb.c **** 
 2895              		.loc 1 1149 3 view .LVU1000
1151:Drivers/STM32L4xx_HAL_Driver/Src/stm32l4xx_ll_usb.c ****   tmpreg &= USBx->GINTMSK;
 2896              		.loc 1 1151 3 view .LVU1001
1151:Drivers/STM32L4xx_HAL_Driver/Src/stm32l4xx_ll_usb.c ****   tmpreg &= USBx->GINTMSK;
 2897              		.loc 1 1151 10 is_stmt 0 view .LVU1002
 2898 0000 4269     		ldr	r2, [r0, #20]
 2899              	.LVL204:
1152:Drivers/STM32L4xx_HAL_Driver/Src/stm32l4xx_ll_usb.c **** 
 2900              		.loc 1 1152 3 is_stmt 1 view .LVU1003
1152:Drivers/STM32L4xx_HAL_Driver/Src/stm32l4xx_ll_usb.c **** 
 2901              		.loc 1 1152 17 is_stmt 0 view .LVU1004
 2902 0002 8069     		ldr	r0, [r0, #24]
 2903              	.LVL205:
1154:Drivers/STM32L4xx_HAL_Driver/Src/stm32l4xx_ll_usb.c **** }
 2904              		.loc 1 1154 3 is_stmt 1 view .LVU1005
1155:Drivers/STM32L4xx_HAL_Driver/Src/stm32l4xx_ll_usb.c **** 
 2905              		.loc 1 1155 1 is_stmt 0 view .LVU1006
 2906 0004 1040     		ands	r0, r0, r2
 2907              	.LVL206:
1155:Drivers/STM32L4xx_HAL_Driver/Src/stm32l4xx_ll_usb.c **** 
 2908              		.loc 1 1155 1 view .LVU1007
 2909 0006 7047     		bx	lr
 2910              		.cfi_endproc
 2911              	.LFE157:
 2913              		.section	.text.USB_ReadDevAllOutEpInterrupt,"ax",%progbits
 2914              		.align	1
 2915              		.global	USB_ReadDevAllOutEpInterrupt
 2916              		.syntax unified
 2917              		.thumb
 2918              		.thumb_func
 2920              	USB_ReadDevAllOutEpInterrupt:
 2921              	.LVL207:
 2922              	.LFB158:
1163:Drivers/STM32L4xx_HAL_Driver/Src/stm32l4xx_ll_usb.c ****   uint32_t USBx_BASE = (uint32_t)USBx;
 2923              		.loc 1 1163 1 is_stmt 1 view -0
 2924              		.cfi_startproc
 2925              		@ args = 0, pretend = 0, frame = 0
 2926              		@ frame_needed = 0, uses_anonymous_args = 0
 2927              		@ link register save eliminated.
1164:Drivers/STM32L4xx_HAL_Driver/Src/stm32l4xx_ll_usb.c ****   uint32_t tmpreg;
ARM GAS  /tmp/ccdWnOQF.s 			page 92


 2928              		.loc 1 1164 3 view .LVU1009
1165:Drivers/STM32L4xx_HAL_Driver/Src/stm32l4xx_ll_usb.c **** 
 2929              		.loc 1 1165 3 view .LVU1010
1167:Drivers/STM32L4xx_HAL_Driver/Src/stm32l4xx_ll_usb.c ****   tmpreg &= USBx_DEVICE->DAINTMSK;
 2930              		.loc 1 1167 3 view .LVU1011
1167:Drivers/STM32L4xx_HAL_Driver/Src/stm32l4xx_ll_usb.c ****   tmpreg &= USBx_DEVICE->DAINTMSK;
 2931              		.loc 1 1167 11 is_stmt 0 view .LVU1012
 2932 0000 D0F81838 		ldr	r3, [r0, #2072]
1167:Drivers/STM32L4xx_HAL_Driver/Src/stm32l4xx_ll_usb.c ****   tmpreg &= USBx_DEVICE->DAINTMSK;
 2933              		.loc 1 1167 13 view .LVU1013
 2934 0004 00F50060 		add	r0, r0, #2048
 2935              	.LVL208:
1168:Drivers/STM32L4xx_HAL_Driver/Src/stm32l4xx_ll_usb.c **** 
 2936              		.loc 1 1168 3 is_stmt 1 view .LVU1014
1168:Drivers/STM32L4xx_HAL_Driver/Src/stm32l4xx_ll_usb.c **** 
 2937              		.loc 1 1168 24 is_stmt 0 view .LVU1015
 2938 0008 C069     		ldr	r0, [r0, #28]
 2939              	.LVL209:
1168:Drivers/STM32L4xx_HAL_Driver/Src/stm32l4xx_ll_usb.c **** 
 2940              		.loc 1 1168 10 view .LVU1016
 2941 000a 1840     		ands	r0, r0, r3
 2942              	.LVL210:
1170:Drivers/STM32L4xx_HAL_Driver/Src/stm32l4xx_ll_usb.c **** }
 2943              		.loc 1 1170 3 is_stmt 1 view .LVU1017
1171:Drivers/STM32L4xx_HAL_Driver/Src/stm32l4xx_ll_usb.c **** 
 2944              		.loc 1 1171 1 is_stmt 0 view .LVU1018
 2945 000c 000C     		lsrs	r0, r0, #16
 2946              	.LVL211:
1171:Drivers/STM32L4xx_HAL_Driver/Src/stm32l4xx_ll_usb.c **** 
 2947              		.loc 1 1171 1 view .LVU1019
 2948 000e 7047     		bx	lr
 2949              		.cfi_endproc
 2950              	.LFE158:
 2952              		.section	.text.USB_ReadDevAllInEpInterrupt,"ax",%progbits
 2953              		.align	1
 2954              		.global	USB_ReadDevAllInEpInterrupt
 2955              		.syntax unified
 2956              		.thumb
 2957              		.thumb_func
 2959              	USB_ReadDevAllInEpInterrupt:
 2960              	.LVL212:
 2961              	.LFB159:
1179:Drivers/STM32L4xx_HAL_Driver/Src/stm32l4xx_ll_usb.c ****   uint32_t USBx_BASE = (uint32_t)USBx;
 2962              		.loc 1 1179 1 is_stmt 1 view -0
 2963              		.cfi_startproc
 2964              		@ args = 0, pretend = 0, frame = 0
 2965              		@ frame_needed = 0, uses_anonymous_args = 0
 2966              		@ link register save eliminated.
1180:Drivers/STM32L4xx_HAL_Driver/Src/stm32l4xx_ll_usb.c ****   uint32_t tmpreg;
 2967              		.loc 1 1180 3 view .LVU1021
1181:Drivers/STM32L4xx_HAL_Driver/Src/stm32l4xx_ll_usb.c **** 
 2968              		.loc 1 1181 3 view .LVU1022
1183:Drivers/STM32L4xx_HAL_Driver/Src/stm32l4xx_ll_usb.c ****   tmpreg &= USBx_DEVICE->DAINTMSK;
 2969              		.loc 1 1183 3 view .LVU1023
1183:Drivers/STM32L4xx_HAL_Driver/Src/stm32l4xx_ll_usb.c ****   tmpreg &= USBx_DEVICE->DAINTMSK;
 2970              		.loc 1 1183 11 is_stmt 0 view .LVU1024
 2971 0000 D0F81838 		ldr	r3, [r0, #2072]
ARM GAS  /tmp/ccdWnOQF.s 			page 93


1183:Drivers/STM32L4xx_HAL_Driver/Src/stm32l4xx_ll_usb.c ****   tmpreg &= USBx_DEVICE->DAINTMSK;
 2972              		.loc 1 1183 13 view .LVU1025
 2973 0004 00F50060 		add	r0, r0, #2048
 2974              	.LVL213:
1184:Drivers/STM32L4xx_HAL_Driver/Src/stm32l4xx_ll_usb.c **** 
 2975              		.loc 1 1184 3 is_stmt 1 view .LVU1026
1184:Drivers/STM32L4xx_HAL_Driver/Src/stm32l4xx_ll_usb.c **** 
 2976              		.loc 1 1184 24 is_stmt 0 view .LVU1027
 2977 0008 C069     		ldr	r0, [r0, #28]
 2978              	.LVL214:
1184:Drivers/STM32L4xx_HAL_Driver/Src/stm32l4xx_ll_usb.c **** 
 2979              		.loc 1 1184 10 view .LVU1028
 2980 000a 1840     		ands	r0, r0, r3
 2981              	.LVL215:
1186:Drivers/STM32L4xx_HAL_Driver/Src/stm32l4xx_ll_usb.c **** }
 2982              		.loc 1 1186 3 is_stmt 1 view .LVU1029
1187:Drivers/STM32L4xx_HAL_Driver/Src/stm32l4xx_ll_usb.c **** 
 2983              		.loc 1 1187 1 is_stmt 0 view .LVU1030
 2984 000c 80B2     		uxth	r0, r0
 2985              	.LVL216:
1187:Drivers/STM32L4xx_HAL_Driver/Src/stm32l4xx_ll_usb.c **** 
 2986              		.loc 1 1187 1 view .LVU1031
 2987 000e 7047     		bx	lr
 2988              		.cfi_endproc
 2989              	.LFE159:
 2991              		.section	.text.USB_ReadDevOutEPInterrupt,"ax",%progbits
 2992              		.align	1
 2993              		.global	USB_ReadDevOutEPInterrupt
 2994              		.syntax unified
 2995              		.thumb
 2996              		.thumb_func
 2998              	USB_ReadDevOutEPInterrupt:
 2999              	.LVL217:
 3000              	.LFB160:
1197:Drivers/STM32L4xx_HAL_Driver/Src/stm32l4xx_ll_usb.c ****   uint32_t USBx_BASE = (uint32_t)USBx;
 3001              		.loc 1 1197 1 is_stmt 1 view -0
 3002              		.cfi_startproc
 3003              		@ args = 0, pretend = 0, frame = 0
 3004              		@ frame_needed = 0, uses_anonymous_args = 0
 3005              		@ link register save eliminated.
1198:Drivers/STM32L4xx_HAL_Driver/Src/stm32l4xx_ll_usb.c ****   uint32_t tmpreg;
 3006              		.loc 1 1198 3 view .LVU1033
1199:Drivers/STM32L4xx_HAL_Driver/Src/stm32l4xx_ll_usb.c **** 
 3007              		.loc 1 1199 3 view .LVU1034
1201:Drivers/STM32L4xx_HAL_Driver/Src/stm32l4xx_ll_usb.c ****   tmpreg &= USBx_DEVICE->DOEPMSK;
 3008              		.loc 1 1201 3 view .LVU1035
1201:Drivers/STM32L4xx_HAL_Driver/Src/stm32l4xx_ll_usb.c ****   tmpreg &= USBx_DEVICE->DOEPMSK;
 3009              		.loc 1 1201 13 is_stmt 0 view .LVU1036
 3010 0000 00EB4111 		add	r1, r0, r1, lsl #5
 3011              	.LVL218:
1201:Drivers/STM32L4xx_HAL_Driver/Src/stm32l4xx_ll_usb.c ****   tmpreg &= USBx_DEVICE->DOEPMSK;
 3012              		.loc 1 1201 11 view .LVU1037
 3013 0004 D1F8082B 		ldr	r2, [r1, #2824]
 3014              	.LVL219:
1202:Drivers/STM32L4xx_HAL_Driver/Src/stm32l4xx_ll_usb.c **** 
 3015              		.loc 1 1202 3 is_stmt 1 view .LVU1038
1202:Drivers/STM32L4xx_HAL_Driver/Src/stm32l4xx_ll_usb.c **** 
ARM GAS  /tmp/ccdWnOQF.s 			page 94


 3016              		.loc 1 1202 13 is_stmt 0 view .LVU1039
 3017 0008 00F50060 		add	r0, r0, #2048
 3018              	.LVL220:
1202:Drivers/STM32L4xx_HAL_Driver/Src/stm32l4xx_ll_usb.c **** 
 3019              		.loc 1 1202 24 view .LVU1040
 3020 000c 4069     		ldr	r0, [r0, #20]
 3021              	.LVL221:
1204:Drivers/STM32L4xx_HAL_Driver/Src/stm32l4xx_ll_usb.c **** }
 3022              		.loc 1 1204 3 is_stmt 1 view .LVU1041
1205:Drivers/STM32L4xx_HAL_Driver/Src/stm32l4xx_ll_usb.c **** 
 3023              		.loc 1 1205 1 is_stmt 0 view .LVU1042
 3024 000e 1040     		ands	r0, r0, r2
 3025              	.LVL222:
1205:Drivers/STM32L4xx_HAL_Driver/Src/stm32l4xx_ll_usb.c **** 
 3026              		.loc 1 1205 1 view .LVU1043
 3027 0010 7047     		bx	lr
 3028              		.cfi_endproc
 3029              	.LFE160:
 3031              		.section	.text.USB_ReadDevInEPInterrupt,"ax",%progbits
 3032              		.align	1
 3033              		.global	USB_ReadDevInEPInterrupt
 3034              		.syntax unified
 3035              		.thumb
 3036              		.thumb_func
 3038              	USB_ReadDevInEPInterrupt:
 3039              	.LVL223:
 3040              	.LFB161:
1215:Drivers/STM32L4xx_HAL_Driver/Src/stm32l4xx_ll_usb.c ****   uint32_t USBx_BASE = (uint32_t)USBx;
 3041              		.loc 1 1215 1 is_stmt 1 view -0
 3042              		.cfi_startproc
 3043              		@ args = 0, pretend = 0, frame = 0
 3044              		@ frame_needed = 0, uses_anonymous_args = 0
 3045              		@ link register save eliminated.
1216:Drivers/STM32L4xx_HAL_Driver/Src/stm32l4xx_ll_usb.c ****   uint32_t tmpreg;
 3046              		.loc 1 1216 3 view .LVU1045
1217:Drivers/STM32L4xx_HAL_Driver/Src/stm32l4xx_ll_usb.c ****   uint32_t msk;
 3047              		.loc 1 1217 3 view .LVU1046
1218:Drivers/STM32L4xx_HAL_Driver/Src/stm32l4xx_ll_usb.c ****   uint32_t emp;
 3048              		.loc 1 1218 3 view .LVU1047
1219:Drivers/STM32L4xx_HAL_Driver/Src/stm32l4xx_ll_usb.c **** 
 3049              		.loc 1 1219 3 view .LVU1048
1221:Drivers/STM32L4xx_HAL_Driver/Src/stm32l4xx_ll_usb.c ****   emp = USBx_DEVICE->DIEPEMPMSK;
 3050              		.loc 1 1221 3 view .LVU1049
1221:Drivers/STM32L4xx_HAL_Driver/Src/stm32l4xx_ll_usb.c ****   emp = USBx_DEVICE->DIEPEMPMSK;
 3051              		.loc 1 1221 7 is_stmt 0 view .LVU1050
 3052 0000 D0F81028 		ldr	r2, [r0, #2064]
 3053              	.LVL224:
1222:Drivers/STM32L4xx_HAL_Driver/Src/stm32l4xx_ll_usb.c ****   msk |= ((emp >> (epnum & EP_ADDR_MSK)) & 0x1U) << 7;
 3054              		.loc 1 1222 3 is_stmt 1 view .LVU1051
1222:Drivers/STM32L4xx_HAL_Driver/Src/stm32l4xx_ll_usb.c ****   msk |= ((emp >> (epnum & EP_ADDR_MSK)) & 0x1U) << 7;
 3055              		.loc 1 1222 7 is_stmt 0 view .LVU1052
 3056 0004 D0F83438 		ldr	r3, [r0, #2100]
 3057              	.LVL225:
1223:Drivers/STM32L4xx_HAL_Driver/Src/stm32l4xx_ll_usb.c ****   tmpreg = USBx_INEP((uint32_t)epnum)->DIEPINT & msk;
 3058              		.loc 1 1223 3 is_stmt 1 view .LVU1053
1223:Drivers/STM32L4xx_HAL_Driver/Src/stm32l4xx_ll_usb.c ****   tmpreg = USBx_INEP((uint32_t)epnum)->DIEPINT & msk;
 3059              		.loc 1 1223 26 is_stmt 0 view .LVU1054
ARM GAS  /tmp/ccdWnOQF.s 			page 95


 3060 0008 01F00F0C 		and	ip, r1, #15
1223:Drivers/STM32L4xx_HAL_Driver/Src/stm32l4xx_ll_usb.c ****   tmpreg = USBx_INEP((uint32_t)epnum)->DIEPINT & msk;
 3061              		.loc 1 1223 16 view .LVU1055
 3062 000c 23FA0CF3 		lsr	r3, r3, ip
 3063              	.LVL226:
1223:Drivers/STM32L4xx_HAL_Driver/Src/stm32l4xx_ll_usb.c ****   tmpreg = USBx_INEP((uint32_t)epnum)->DIEPINT & msk;
 3064              		.loc 1 1223 50 view .LVU1056
 3065 0010 DB01     		lsls	r3, r3, #7
 3066 0012 DBB2     		uxtb	r3, r3
1223:Drivers/STM32L4xx_HAL_Driver/Src/stm32l4xx_ll_usb.c ****   tmpreg = USBx_INEP((uint32_t)epnum)->DIEPINT & msk;
 3067              		.loc 1 1223 7 view .LVU1057
 3068 0014 1343     		orrs	r3, r3, r2
 3069              	.LVL227:
1224:Drivers/STM32L4xx_HAL_Driver/Src/stm32l4xx_ll_usb.c **** 
 3070              		.loc 1 1224 3 is_stmt 1 view .LVU1058
1224:Drivers/STM32L4xx_HAL_Driver/Src/stm32l4xx_ll_usb.c **** 
 3071              		.loc 1 1224 12 is_stmt 0 view .LVU1059
 3072 0016 00EB4110 		add	r0, r0, r1, lsl #5
 3073              	.LVL228:
1224:Drivers/STM32L4xx_HAL_Driver/Src/stm32l4xx_ll_usb.c **** 
 3074              		.loc 1 1224 12 view .LVU1060
 3075 001a 00F51060 		add	r0, r0, #2304
1224:Drivers/STM32L4xx_HAL_Driver/Src/stm32l4xx_ll_usb.c **** 
 3076              		.loc 1 1224 38 view .LVU1061
 3077 001e 8068     		ldr	r0, [r0, #8]
 3078              	.LVL229:
1226:Drivers/STM32L4xx_HAL_Driver/Src/stm32l4xx_ll_usb.c **** }
 3079              		.loc 1 1226 3 is_stmt 1 view .LVU1062
1227:Drivers/STM32L4xx_HAL_Driver/Src/stm32l4xx_ll_usb.c **** 
 3080              		.loc 1 1227 1 is_stmt 0 view .LVU1063
 3081 0020 1840     		ands	r0, r0, r3
 3082              	.LVL230:
1227:Drivers/STM32L4xx_HAL_Driver/Src/stm32l4xx_ll_usb.c **** 
 3083              		.loc 1 1227 1 view .LVU1064
 3084 0022 7047     		bx	lr
 3085              		.cfi_endproc
 3086              	.LFE161:
 3088              		.section	.text.USB_ClearInterrupts,"ax",%progbits
 3089              		.align	1
 3090              		.global	USB_ClearInterrupts
 3091              		.syntax unified
 3092              		.thumb
 3093              		.thumb_func
 3095              	USB_ClearInterrupts:
 3096              	.LVL231:
 3097              	.LFB162:
1236:Drivers/STM32L4xx_HAL_Driver/Src/stm32l4xx_ll_usb.c ****   USBx->GINTSTS |= interrupt;
 3098              		.loc 1 1236 1 is_stmt 1 view -0
 3099              		.cfi_startproc
 3100              		@ args = 0, pretend = 0, frame = 0
 3101              		@ frame_needed = 0, uses_anonymous_args = 0
 3102              		@ link register save eliminated.
1237:Drivers/STM32L4xx_HAL_Driver/Src/stm32l4xx_ll_usb.c **** }
 3103              		.loc 1 1237 3 view .LVU1066
1237:Drivers/STM32L4xx_HAL_Driver/Src/stm32l4xx_ll_usb.c **** }
 3104              		.loc 1 1237 7 is_stmt 0 view .LVU1067
 3105 0000 4369     		ldr	r3, [r0, #20]
ARM GAS  /tmp/ccdWnOQF.s 			page 96


1237:Drivers/STM32L4xx_HAL_Driver/Src/stm32l4xx_ll_usb.c **** }
 3106              		.loc 1 1237 17 view .LVU1068
 3107 0002 0B43     		orrs	r3, r3, r1
 3108 0004 4361     		str	r3, [r0, #20]
1238:Drivers/STM32L4xx_HAL_Driver/Src/stm32l4xx_ll_usb.c **** 
 3109              		.loc 1 1238 1 view .LVU1069
 3110 0006 7047     		bx	lr
 3111              		.cfi_endproc
 3112              	.LFE162:
 3114              		.section	.text.USB_GetMode,"ax",%progbits
 3115              		.align	1
 3116              		.global	USB_GetMode
 3117              		.syntax unified
 3118              		.thumb
 3119              		.thumb_func
 3121              	USB_GetMode:
 3122              	.LVL232:
 3123              	.LFB163:
1249:Drivers/STM32L4xx_HAL_Driver/Src/stm32l4xx_ll_usb.c ****   return ((USBx->GINTSTS) & 0x1U);
 3124              		.loc 1 1249 1 is_stmt 1 view -0
 3125              		.cfi_startproc
 3126              		@ args = 0, pretend = 0, frame = 0
 3127              		@ frame_needed = 0, uses_anonymous_args = 0
 3128              		@ link register save eliminated.
1250:Drivers/STM32L4xx_HAL_Driver/Src/stm32l4xx_ll_usb.c **** }
 3129              		.loc 1 1250 3 view .LVU1071
1250:Drivers/STM32L4xx_HAL_Driver/Src/stm32l4xx_ll_usb.c **** }
 3130              		.loc 1 1250 16 is_stmt 0 view .LVU1072
 3131 0000 4069     		ldr	r0, [r0, #20]
 3132              	.LVL233:
1251:Drivers/STM32L4xx_HAL_Driver/Src/stm32l4xx_ll_usb.c **** 
 3133              		.loc 1 1251 1 view .LVU1073
 3134 0002 00F00100 		and	r0, r0, #1
 3135 0006 7047     		bx	lr
 3136              		.cfi_endproc
 3137              	.LFE163:
 3139              		.section	.text.USB_SetCurrentMode,"ax",%progbits
 3140              		.align	1
 3141              		.global	USB_SetCurrentMode
 3142              		.syntax unified
 3143              		.thumb
 3144              		.thumb_func
 3146              	USB_SetCurrentMode:
 3147              	.LVL234:
 3148              	.LFB136:
 221:Drivers/STM32L4xx_HAL_Driver/Src/stm32l4xx_ll_usb.c ****   uint32_t ms = 0U;
 3149              		.loc 1 221 1 is_stmt 1 view -0
 3150              		.cfi_startproc
 3151              		@ args = 0, pretend = 0, frame = 0
 3152              		@ frame_needed = 0, uses_anonymous_args = 0
 221:Drivers/STM32L4xx_HAL_Driver/Src/stm32l4xx_ll_usb.c ****   uint32_t ms = 0U;
 3153              		.loc 1 221 1 is_stmt 0 view .LVU1075
 3154 0000 38B5     		push	{r3, r4, r5, lr}
 3155              		.cfi_def_cfa_offset 16
 3156              		.cfi_offset 3, -16
 3157              		.cfi_offset 4, -12
 3158              		.cfi_offset 5, -8
ARM GAS  /tmp/ccdWnOQF.s 			page 97


 3159              		.cfi_offset 14, -4
 3160 0002 0546     		mov	r5, r0
 222:Drivers/STM32L4xx_HAL_Driver/Src/stm32l4xx_ll_usb.c **** 
 3161              		.loc 1 222 3 is_stmt 1 view .LVU1076
 3162              	.LVL235:
 224:Drivers/STM32L4xx_HAL_Driver/Src/stm32l4xx_ll_usb.c **** 
 3163              		.loc 1 224 3 view .LVU1077
 224:Drivers/STM32L4xx_HAL_Driver/Src/stm32l4xx_ll_usb.c **** 
 3164              		.loc 1 224 7 is_stmt 0 view .LVU1078
 3165 0004 C368     		ldr	r3, [r0, #12]
 224:Drivers/STM32L4xx_HAL_Driver/Src/stm32l4xx_ll_usb.c **** 
 3166              		.loc 1 224 17 view .LVU1079
 3167 0006 23F0C043 		bic	r3, r3, #1610612736
 3168 000a C360     		str	r3, [r0, #12]
 226:Drivers/STM32L4xx_HAL_Driver/Src/stm32l4xx_ll_usb.c ****   {
 3169              		.loc 1 226 3 is_stmt 1 view .LVU1080
 226:Drivers/STM32L4xx_HAL_Driver/Src/stm32l4xx_ll_usb.c ****   {
 3170              		.loc 1 226 6 is_stmt 0 view .LVU1081
 3171 000c 0129     		cmp	r1, #1
 3172 000e 13D0     		beq	.L203
 236:Drivers/STM32L4xx_HAL_Driver/Src/stm32l4xx_ll_usb.c ****   {
 3173              		.loc 1 236 8 is_stmt 1 view .LVU1082
 236:Drivers/STM32L4xx_HAL_Driver/Src/stm32l4xx_ll_usb.c ****   {
 3174              		.loc 1 236 11 is_stmt 0 view .LVU1083
 3175 0010 19BB     		cbnz	r1, .L200
 238:Drivers/STM32L4xx_HAL_Driver/Src/stm32l4xx_ll_usb.c **** 
 3176              		.loc 1 238 5 is_stmt 1 view .LVU1084
 238:Drivers/STM32L4xx_HAL_Driver/Src/stm32l4xx_ll_usb.c **** 
 3177              		.loc 1 238 9 is_stmt 0 view .LVU1085
 3178 0012 C368     		ldr	r3, [r0, #12]
 238:Drivers/STM32L4xx_HAL_Driver/Src/stm32l4xx_ll_usb.c **** 
 3179              		.loc 1 238 19 view .LVU1086
 3180 0014 43F08043 		orr	r3, r3, #1073741824
 3181 0018 C360     		str	r3, [r0, #12]
 222:Drivers/STM32L4xx_HAL_Driver/Src/stm32l4xx_ll_usb.c **** 
 3182              		.loc 1 222 12 view .LVU1087
 3183 001a 0024     		movs	r4, #0
 3184              	.LVL236:
 3185              	.L199:
 240:Drivers/STM32L4xx_HAL_Driver/Src/stm32l4xx_ll_usb.c ****     {
 3186              		.loc 1 240 5 is_stmt 1 discriminator 2 view .LVU1088
 242:Drivers/STM32L4xx_HAL_Driver/Src/stm32l4xx_ll_usb.c ****       ms++;
 3187              		.loc 1 242 7 discriminator 2 view .LVU1089
 3188 001c 0120     		movs	r0, #1
 3189 001e FFF7FEFF 		bl	HAL_Delay
 3190              	.LVL237:
 243:Drivers/STM32L4xx_HAL_Driver/Src/stm32l4xx_ll_usb.c ****     } while ((USB_GetMode(USBx) != (uint32_t)USB_DEVICE_MODE) && (ms < 50U));
 3191              		.loc 1 243 7 discriminator 2 view .LVU1090
 243:Drivers/STM32L4xx_HAL_Driver/Src/stm32l4xx_ll_usb.c ****     } while ((USB_GetMode(USBx) != (uint32_t)USB_DEVICE_MODE) && (ms < 50U));
 3192              		.loc 1 243 9 is_stmt 0 discriminator 2 view .LVU1091
 3193 0022 0134     		adds	r4, r4, #1
 3194              	.LVL238:
 244:Drivers/STM32L4xx_HAL_Driver/Src/stm32l4xx_ll_usb.c ****   }
 3195              		.loc 1 244 63 is_stmt 1 discriminator 2 view .LVU1092
 244:Drivers/STM32L4xx_HAL_Driver/Src/stm32l4xx_ll_usb.c ****   }
 3196              		.loc 1 244 15 is_stmt 0 discriminator 2 view .LVU1093
 3197 0024 2846     		mov	r0, r5
ARM GAS  /tmp/ccdWnOQF.s 			page 98


 3198 0026 FFF7FEFF 		bl	USB_GetMode
 3199              	.LVL239:
 244:Drivers/STM32L4xx_HAL_Driver/Src/stm32l4xx_ll_usb.c ****   }
 3200              		.loc 1 244 63 discriminator 2 view .LVU1094
 3201 002a 08B1     		cbz	r0, .L196
 244:Drivers/STM32L4xx_HAL_Driver/Src/stm32l4xx_ll_usb.c ****   }
 3202              		.loc 1 244 63 discriminator 1 view .LVU1095
 3203 002c 312C     		cmp	r4, #49
 3204 002e F5D9     		bls	.L199
 3205              	.L196:
 251:Drivers/STM32L4xx_HAL_Driver/Src/stm32l4xx_ll_usb.c ****   {
 3206              		.loc 1 251 3 is_stmt 1 view .LVU1096
 251:Drivers/STM32L4xx_HAL_Driver/Src/stm32l4xx_ll_usb.c ****   {
 3207              		.loc 1 251 6 is_stmt 0 view .LVU1097
 3208 0030 322C     		cmp	r4, #50
 3209 0032 14D0     		beq	.L201
 256:Drivers/STM32L4xx_HAL_Driver/Src/stm32l4xx_ll_usb.c **** }
 3210              		.loc 1 256 10 view .LVU1098
 3211 0034 0020     		movs	r0, #0
 3212              	.LVL240:
 3213              	.L198:
 257:Drivers/STM32L4xx_HAL_Driver/Src/stm32l4xx_ll_usb.c **** 
 3214              		.loc 1 257 1 view .LVU1099
 3215 0036 38BD     		pop	{r3, r4, r5, pc}
 3216              	.LVL241:
 3217              	.L203:
 228:Drivers/STM32L4xx_HAL_Driver/Src/stm32l4xx_ll_usb.c **** 
 3218              		.loc 1 228 5 is_stmt 1 view .LVU1100
 228:Drivers/STM32L4xx_HAL_Driver/Src/stm32l4xx_ll_usb.c **** 
 3219              		.loc 1 228 9 is_stmt 0 view .LVU1101
 3220 0038 C368     		ldr	r3, [r0, #12]
 228:Drivers/STM32L4xx_HAL_Driver/Src/stm32l4xx_ll_usb.c **** 
 3221              		.loc 1 228 19 view .LVU1102
 3222 003a 43F00053 		orr	r3, r3, #536870912
 3223 003e C360     		str	r3, [r0, #12]
 222:Drivers/STM32L4xx_HAL_Driver/Src/stm32l4xx_ll_usb.c **** 
 3224              		.loc 1 222 12 view .LVU1103
 3225 0040 0024     		movs	r4, #0
 3226              	.LVL242:
 3227              	.L197:
 230:Drivers/STM32L4xx_HAL_Driver/Src/stm32l4xx_ll_usb.c ****     {
 3228              		.loc 1 230 5 is_stmt 1 discriminator 2 view .LVU1104
 232:Drivers/STM32L4xx_HAL_Driver/Src/stm32l4xx_ll_usb.c ****       ms++;
 3229              		.loc 1 232 7 discriminator 2 view .LVU1105
 3230 0042 0120     		movs	r0, #1
 3231 0044 FFF7FEFF 		bl	HAL_Delay
 3232              	.LVL243:
 233:Drivers/STM32L4xx_HAL_Driver/Src/stm32l4xx_ll_usb.c ****     } while ((USB_GetMode(USBx) != (uint32_t)USB_HOST_MODE) && (ms < 50U));
 3233              		.loc 1 233 7 discriminator 2 view .LVU1106
 233:Drivers/STM32L4xx_HAL_Driver/Src/stm32l4xx_ll_usb.c ****     } while ((USB_GetMode(USBx) != (uint32_t)USB_HOST_MODE) && (ms < 50U));
 3234              		.loc 1 233 9 is_stmt 0 discriminator 2 view .LVU1107
 3235 0048 0134     		adds	r4, r4, #1
 3236              	.LVL244:
 234:Drivers/STM32L4xx_HAL_Driver/Src/stm32l4xx_ll_usb.c ****   }
 3237              		.loc 1 234 61 is_stmt 1 discriminator 2 view .LVU1108
 234:Drivers/STM32L4xx_HAL_Driver/Src/stm32l4xx_ll_usb.c ****   }
 3238              		.loc 1 234 15 is_stmt 0 discriminator 2 view .LVU1109
ARM GAS  /tmp/ccdWnOQF.s 			page 99


 3239 004a 2846     		mov	r0, r5
 3240 004c FFF7FEFF 		bl	USB_GetMode
 3241              	.LVL245:
 234:Drivers/STM32L4xx_HAL_Driver/Src/stm32l4xx_ll_usb.c ****   }
 3242              		.loc 1 234 61 discriminator 2 view .LVU1110
 3243 0050 0128     		cmp	r0, #1
 3244 0052 EDD0     		beq	.L196
 234:Drivers/STM32L4xx_HAL_Driver/Src/stm32l4xx_ll_usb.c ****   }
 3245              		.loc 1 234 61 discriminator 1 view .LVU1111
 3246 0054 312C     		cmp	r4, #49
 3247 0056 F4D9     		bls	.L197
 3248 0058 EAE7     		b	.L196
 3249              	.LVL246:
 3250              	.L200:
 248:Drivers/STM32L4xx_HAL_Driver/Src/stm32l4xx_ll_usb.c ****   }
 3251              		.loc 1 248 12 view .LVU1112
 3252 005a 0120     		movs	r0, #1
 3253              	.LVL247:
 248:Drivers/STM32L4xx_HAL_Driver/Src/stm32l4xx_ll_usb.c ****   }
 3254              		.loc 1 248 12 view .LVU1113
 3255 005c EBE7     		b	.L198
 3256              	.LVL248:
 3257              	.L201:
 253:Drivers/STM32L4xx_HAL_Driver/Src/stm32l4xx_ll_usb.c ****   }
 3258              		.loc 1 253 12 view .LVU1114
 3259 005e 0120     		movs	r0, #1
 3260 0060 E9E7     		b	.L198
 3261              		.cfi_endproc
 3262              	.LFE136:
 3264              		.section	.text.USB_ActivateSetup,"ax",%progbits
 3265              		.align	1
 3266              		.global	USB_ActivateSetup
 3267              		.syntax unified
 3268              		.thumb
 3269              		.thumb_func
 3271              	USB_ActivateSetup:
 3272              	.LVL249:
 3273              	.LFB164:
1259:Drivers/STM32L4xx_HAL_Driver/Src/stm32l4xx_ll_usb.c ****   uint32_t USBx_BASE = (uint32_t)USBx;
 3274              		.loc 1 1259 1 is_stmt 1 view -0
 3275              		.cfi_startproc
 3276              		@ args = 0, pretend = 0, frame = 0
 3277              		@ frame_needed = 0, uses_anonymous_args = 0
 3278              		@ link register save eliminated.
1260:Drivers/STM32L4xx_HAL_Driver/Src/stm32l4xx_ll_usb.c **** 
 3279              		.loc 1 1260 3 view .LVU1116
1263:Drivers/STM32L4xx_HAL_Driver/Src/stm32l4xx_ll_usb.c **** 
 3280              		.loc 1 1263 3 view .LVU1117
1263:Drivers/STM32L4xx_HAL_Driver/Src/stm32l4xx_ll_usb.c **** 
 3281              		.loc 1 1263 16 is_stmt 0 view .LVU1118
 3282 0000 D0F80039 		ldr	r3, [r0, #2304]
1263:Drivers/STM32L4xx_HAL_Driver/Src/stm32l4xx_ll_usb.c **** 
 3283              		.loc 1 1263 26 view .LVU1119
 3284 0004 23F4FF63 		bic	r3, r3, #2040
 3285 0008 23F00703 		bic	r3, r3, #7
 3286 000c C0F80039 		str	r3, [r0, #2304]
1265:Drivers/STM32L4xx_HAL_Driver/Src/stm32l4xx_ll_usb.c **** 
ARM GAS  /tmp/ccdWnOQF.s 			page 100


 3287              		.loc 1 1265 3 is_stmt 1 view .LVU1120
1265:Drivers/STM32L4xx_HAL_Driver/Src/stm32l4xx_ll_usb.c **** 
 3288              		.loc 1 1265 14 is_stmt 0 view .LVU1121
 3289 0010 D0F80438 		ldr	r3, [r0, #2052]
1265:Drivers/STM32L4xx_HAL_Driver/Src/stm32l4xx_ll_usb.c **** 
 3290              		.loc 1 1265 21 view .LVU1122
 3291 0014 43F48073 		orr	r3, r3, #256
 3292 0018 C0F80438 		str	r3, [r0, #2052]
1267:Drivers/STM32L4xx_HAL_Driver/Src/stm32l4xx_ll_usb.c **** }
 3293              		.loc 1 1267 3 is_stmt 1 view .LVU1123
1268:Drivers/STM32L4xx_HAL_Driver/Src/stm32l4xx_ll_usb.c **** 
 3294              		.loc 1 1268 1 is_stmt 0 view .LVU1124
 3295 001c 0020     		movs	r0, #0
 3296              	.LVL250:
1268:Drivers/STM32L4xx_HAL_Driver/Src/stm32l4xx_ll_usb.c **** 
 3297              		.loc 1 1268 1 view .LVU1125
 3298 001e 7047     		bx	lr
 3299              		.cfi_endproc
 3300              	.LFE164:
 3302              		.section	.text.USB_EP0_OutStart,"ax",%progbits
 3303              		.align	1
 3304              		.global	USB_EP0_OutStart
 3305              		.syntax unified
 3306              		.thumb
 3307              		.thumb_func
 3309              	USB_EP0_OutStart:
 3310              	.LVL251:
 3311              	.LFB165:
1277:Drivers/STM32L4xx_HAL_Driver/Src/stm32l4xx_ll_usb.c ****   uint32_t USBx_BASE = (uint32_t)USBx;
 3312              		.loc 1 1277 1 is_stmt 1 view -0
 3313              		.cfi_startproc
 3314              		@ args = 0, pretend = 0, frame = 0
 3315              		@ frame_needed = 0, uses_anonymous_args = 0
 3316              		@ link register save eliminated.
1278:Drivers/STM32L4xx_HAL_Driver/Src/stm32l4xx_ll_usb.c ****   uint32_t gSNPSiD = *(__IO uint32_t *)(&USBx->CID + 0x1U);
 3317              		.loc 1 1278 3 view .LVU1127
1279:Drivers/STM32L4xx_HAL_Driver/Src/stm32l4xx_ll_usb.c ****   UNUSED(psetup);
 3318              		.loc 1 1279 3 view .LVU1128
1279:Drivers/STM32L4xx_HAL_Driver/Src/stm32l4xx_ll_usb.c ****   UNUSED(psetup);
 3319              		.loc 1 1279 12 is_stmt 0 view .LVU1129
 3320 0000 026C     		ldr	r2, [r0, #64]
 3321              	.LVL252:
1280:Drivers/STM32L4xx_HAL_Driver/Src/stm32l4xx_ll_usb.c **** 
 3322              		.loc 1 1280 3 is_stmt 1 view .LVU1130
1282:Drivers/STM32L4xx_HAL_Driver/Src/stm32l4xx_ll_usb.c ****   {
 3323              		.loc 1 1282 3 view .LVU1131
1282:Drivers/STM32L4xx_HAL_Driver/Src/stm32l4xx_ll_usb.c ****   {
 3324              		.loc 1 1282 6 is_stmt 0 view .LVU1132
 3325 0002 0F4B     		ldr	r3, .L208
 3326 0004 9A42     		cmp	r2, r3
 3327 0006 03D9     		bls	.L206
1284:Drivers/STM32L4xx_HAL_Driver/Src/stm32l4xx_ll_usb.c ****     {
 3328              		.loc 1 1284 5 is_stmt 1 view .LVU1133
1284:Drivers/STM32L4xx_HAL_Driver/Src/stm32l4xx_ll_usb.c ****     {
 3329              		.loc 1 1284 24 is_stmt 0 view .LVU1134
 3330 0008 D0F8003B 		ldr	r3, [r0, #2816]
1284:Drivers/STM32L4xx_HAL_Driver/Src/stm32l4xx_ll_usb.c ****     {
ARM GAS  /tmp/ccdWnOQF.s 			page 101


 3331              		.loc 1 1284 8 view .LVU1135
 3332 000c 002B     		cmp	r3, #0
 3333 000e 14DB     		blt	.L207
 3334              	.L206:
1290:Drivers/STM32L4xx_HAL_Driver/Src/stm32l4xx_ll_usb.c ****   USBx_OUTEP(0U)->DOEPTSIZ |= (USB_OTG_DOEPTSIZ_PKTCNT & (1U << 19));
 3335              		.loc 1 1290 3 is_stmt 1 view .LVU1136
1290:Drivers/STM32L4xx_HAL_Driver/Src/stm32l4xx_ll_usb.c ****   USBx_OUTEP(0U)->DOEPTSIZ |= (USB_OTG_DOEPTSIZ_PKTCNT & (1U << 19));
 3336              		.loc 1 1290 28 is_stmt 0 view .LVU1137
 3337 0010 0023     		movs	r3, #0
 3338 0012 C0F8103B 		str	r3, [r0, #2832]
1291:Drivers/STM32L4xx_HAL_Driver/Src/stm32l4xx_ll_usb.c ****   USBx_OUTEP(0U)->DOEPTSIZ |= (3U * 8U);
 3339              		.loc 1 1291 3 is_stmt 1 view .LVU1138
1291:Drivers/STM32L4xx_HAL_Driver/Src/stm32l4xx_ll_usb.c ****   USBx_OUTEP(0U)->DOEPTSIZ |= (3U * 8U);
 3340              		.loc 1 1291 17 is_stmt 0 view .LVU1139
 3341 0016 D0F8103B 		ldr	r3, [r0, #2832]
1291:Drivers/STM32L4xx_HAL_Driver/Src/stm32l4xx_ll_usb.c ****   USBx_OUTEP(0U)->DOEPTSIZ |= (3U * 8U);
 3342              		.loc 1 1291 28 view .LVU1140
 3343 001a 43F40023 		orr	r3, r3, #524288
 3344 001e C0F8103B 		str	r3, [r0, #2832]
1292:Drivers/STM32L4xx_HAL_Driver/Src/stm32l4xx_ll_usb.c ****   USBx_OUTEP(0U)->DOEPTSIZ |=  USB_OTG_DOEPTSIZ_STUPCNT;
 3345              		.loc 1 1292 3 is_stmt 1 view .LVU1141
1292:Drivers/STM32L4xx_HAL_Driver/Src/stm32l4xx_ll_usb.c ****   USBx_OUTEP(0U)->DOEPTSIZ |=  USB_OTG_DOEPTSIZ_STUPCNT;
 3346              		.loc 1 1292 17 is_stmt 0 view .LVU1142
 3347 0022 D0F8103B 		ldr	r3, [r0, #2832]
1292:Drivers/STM32L4xx_HAL_Driver/Src/stm32l4xx_ll_usb.c ****   USBx_OUTEP(0U)->DOEPTSIZ |=  USB_OTG_DOEPTSIZ_STUPCNT;
 3348              		.loc 1 1292 28 view .LVU1143
 3349 0026 43F01803 		orr	r3, r3, #24
 3350 002a C0F8103B 		str	r3, [r0, #2832]
1293:Drivers/STM32L4xx_HAL_Driver/Src/stm32l4xx_ll_usb.c **** 
 3351              		.loc 1 1293 3 is_stmt 1 view .LVU1144
1293:Drivers/STM32L4xx_HAL_Driver/Src/stm32l4xx_ll_usb.c **** 
 3352              		.loc 1 1293 17 is_stmt 0 view .LVU1145
 3353 002e D0F8103B 		ldr	r3, [r0, #2832]
1293:Drivers/STM32L4xx_HAL_Driver/Src/stm32l4xx_ll_usb.c **** 
 3354              		.loc 1 1293 28 view .LVU1146
 3355 0032 43F0C043 		orr	r3, r3, #1610612736
 3356 0036 C0F8103B 		str	r3, [r0, #2832]
1295:Drivers/STM32L4xx_HAL_Driver/Src/stm32l4xx_ll_usb.c **** }
 3357              		.loc 1 1295 3 is_stmt 1 view .LVU1147
 3358              	.L207:
1296:Drivers/STM32L4xx_HAL_Driver/Src/stm32l4xx_ll_usb.c **** 
 3359              		.loc 1 1296 1 is_stmt 0 view .LVU1148
 3360 003a 0020     		movs	r0, #0
 3361              	.LVL253:
1296:Drivers/STM32L4xx_HAL_Driver/Src/stm32l4xx_ll_usb.c **** 
 3362              		.loc 1 1296 1 view .LVU1149
 3363 003c 7047     		bx	lr
 3364              	.L209:
 3365 003e 00BF     		.align	2
 3366              	.L208:
 3367 0040 0A30544F 		.word	1330917386
 3368              		.cfi_endproc
 3369              	.LFE165:
 3371              		.section	.text.USB_HostInit,"ax",%progbits
 3372              		.align	1
 3373              		.global	USB_HostInit
 3374              		.syntax unified
ARM GAS  /tmp/ccdWnOQF.s 			page 102


 3375              		.thumb
 3376              		.thumb_func
 3378              	USB_HostInit:
 3379              	.LVL254:
 3380              	.LFB167:
1334:Drivers/STM32L4xx_HAL_Driver/Src/stm32l4xx_ll_usb.c **** 
1335:Drivers/STM32L4xx_HAL_Driver/Src/stm32l4xx_ll_usb.c **** /**
1336:Drivers/STM32L4xx_HAL_Driver/Src/stm32l4xx_ll_usb.c ****   * @brief  USB_HostInit : Initializes the USB OTG controller registers
1337:Drivers/STM32L4xx_HAL_Driver/Src/stm32l4xx_ll_usb.c ****   *         for Host mode
1338:Drivers/STM32L4xx_HAL_Driver/Src/stm32l4xx_ll_usb.c ****   * @param  USBx  Selected device
1339:Drivers/STM32L4xx_HAL_Driver/Src/stm32l4xx_ll_usb.c ****   * @param  cfg   pointer to a USB_OTG_CfgTypeDef structure that contains
1340:Drivers/STM32L4xx_HAL_Driver/Src/stm32l4xx_ll_usb.c ****   *         the configuration information for the specified USBx peripheral.
1341:Drivers/STM32L4xx_HAL_Driver/Src/stm32l4xx_ll_usb.c ****   * @retval HAL status
1342:Drivers/STM32L4xx_HAL_Driver/Src/stm32l4xx_ll_usb.c ****   */
1343:Drivers/STM32L4xx_HAL_Driver/Src/stm32l4xx_ll_usb.c **** HAL_StatusTypeDef USB_HostInit(USB_OTG_GlobalTypeDef *USBx, USB_OTG_CfgTypeDef cfg)
1344:Drivers/STM32L4xx_HAL_Driver/Src/stm32l4xx_ll_usb.c **** {
 3381              		.loc 1 1344 1 is_stmt 1 view -0
 3382              		.cfi_startproc
 3383              		@ args = 56, pretend = 16, frame = 0
 3384              		@ frame_needed = 0, uses_anonymous_args = 0
 3385              		.loc 1 1344 1 is_stmt 0 view .LVU1151
 3386 0000 84B0     		sub	sp, sp, #16
 3387              		.cfi_def_cfa_offset 16
 3388 0002 38B5     		push	{r3, r4, r5, lr}
 3389              		.cfi_def_cfa_offset 32
 3390              		.cfi_offset 3, -32
 3391              		.cfi_offset 4, -28
 3392              		.cfi_offset 5, -24
 3393              		.cfi_offset 14, -20
 3394 0004 0446     		mov	r4, r0
 3395 0006 05AD     		add	r5, sp, #20
 3396 0008 85E80E00 		stm	r5, {r1, r2, r3}
1345:Drivers/STM32L4xx_HAL_Driver/Src/stm32l4xx_ll_usb.c ****   HAL_StatusTypeDef ret = HAL_OK;
 3397              		.loc 1 1345 3 is_stmt 1 view .LVU1152
 3398              	.LVL255:
1346:Drivers/STM32L4xx_HAL_Driver/Src/stm32l4xx_ll_usb.c ****   uint32_t USBx_BASE = (uint32_t)USBx;
 3399              		.loc 1 1346 3 view .LVU1153
1347:Drivers/STM32L4xx_HAL_Driver/Src/stm32l4xx_ll_usb.c ****   uint32_t i;
 3400              		.loc 1 1347 3 view .LVU1154
1348:Drivers/STM32L4xx_HAL_Driver/Src/stm32l4xx_ll_usb.c **** 
1349:Drivers/STM32L4xx_HAL_Driver/Src/stm32l4xx_ll_usb.c ****   /* Restart the Phy Clock */
1350:Drivers/STM32L4xx_HAL_Driver/Src/stm32l4xx_ll_usb.c ****   USBx_PCGCCTL = 0U;
 3401              		.loc 1 1350 3 view .LVU1155
 3402              		.loc 1 1350 16 is_stmt 0 view .LVU1156
 3403 000c 0023     		movs	r3, #0
 3404 000e C0F8003E 		str	r3, [r0, #3584]
1351:Drivers/STM32L4xx_HAL_Driver/Src/stm32l4xx_ll_usb.c **** 
1352:Drivers/STM32L4xx_HAL_Driver/Src/stm32l4xx_ll_usb.c ****   /* Disable VBUS sensing */
1353:Drivers/STM32L4xx_HAL_Driver/Src/stm32l4xx_ll_usb.c ****   USBx->GCCFG &= ~(USB_OTG_GCCFG_VBDEN);
 3405              		.loc 1 1353 3 is_stmt 1 view .LVU1157
 3406              		.loc 1 1353 7 is_stmt 0 view .LVU1158
 3407 0012 836B     		ldr	r3, [r0, #56]
 3408              		.loc 1 1353 15 view .LVU1159
 3409 0014 23F40013 		bic	r3, r3, #2097152
 3410 0018 8363     		str	r3, [r0, #56]
1354:Drivers/STM32L4xx_HAL_Driver/Src/stm32l4xx_ll_usb.c **** 
1355:Drivers/STM32L4xx_HAL_Driver/Src/stm32l4xx_ll_usb.c ****   /* Disable Battery chargin detector */
ARM GAS  /tmp/ccdWnOQF.s 			page 103


1356:Drivers/STM32L4xx_HAL_Driver/Src/stm32l4xx_ll_usb.c ****   USBx->GCCFG &= ~(USB_OTG_GCCFG_BCDEN);
 3411              		.loc 1 1356 3 is_stmt 1 view .LVU1160
 3412              		.loc 1 1356 7 is_stmt 0 view .LVU1161
 3413 001a 836B     		ldr	r3, [r0, #56]
 3414              		.loc 1 1356 15 view .LVU1162
 3415 001c 23F40033 		bic	r3, r3, #131072
 3416 0020 8363     		str	r3, [r0, #56]
1357:Drivers/STM32L4xx_HAL_Driver/Src/stm32l4xx_ll_usb.c **** 
1358:Drivers/STM32L4xx_HAL_Driver/Src/stm32l4xx_ll_usb.c ****   /* Set default Max speed support */
1359:Drivers/STM32L4xx_HAL_Driver/Src/stm32l4xx_ll_usb.c ****   USBx_HOST->HCFG &= ~(USB_OTG_HCFG_FSLSS);
 3417              		.loc 1 1359 3 is_stmt 1 view .LVU1163
 3418              		.loc 1 1359 12 is_stmt 0 view .LVU1164
 3419 0022 D0F80034 		ldr	r3, [r0, #1024]
 3420              		.loc 1 1359 19 view .LVU1165
 3421 0026 23F00403 		bic	r3, r3, #4
 3422 002a C0F80034 		str	r3, [r0, #1024]
1360:Drivers/STM32L4xx_HAL_Driver/Src/stm32l4xx_ll_usb.c **** 
1361:Drivers/STM32L4xx_HAL_Driver/Src/stm32l4xx_ll_usb.c ****   /* Make sure the FIFOs are flushed. */
1362:Drivers/STM32L4xx_HAL_Driver/Src/stm32l4xx_ll_usb.c ****   if (USB_FlushTxFifo(USBx, 0x10U) != HAL_OK) /* all Tx FIFOs */
 3423              		.loc 1 1362 3 is_stmt 1 view .LVU1166
 3424              		.loc 1 1362 7 is_stmt 0 view .LVU1167
 3425 002e 1021     		movs	r1, #16
 3426 0030 FFF7FEFF 		bl	USB_FlushTxFifo
 3427              	.LVL256:
 3428              		.loc 1 1362 6 view .LVU1168
 3429 0034 0546     		mov	r5, r0
 3430 0036 00B1     		cbz	r0, .L211
1363:Drivers/STM32L4xx_HAL_Driver/Src/stm32l4xx_ll_usb.c ****   {
1364:Drivers/STM32L4xx_HAL_Driver/Src/stm32l4xx_ll_usb.c ****     ret = HAL_ERROR;
 3431              		.loc 1 1364 9 view .LVU1169
 3432 0038 0125     		movs	r5, #1
 3433              	.L211:
 3434              	.LVL257:
1365:Drivers/STM32L4xx_HAL_Driver/Src/stm32l4xx_ll_usb.c ****   }
1366:Drivers/STM32L4xx_HAL_Driver/Src/stm32l4xx_ll_usb.c **** 
1367:Drivers/STM32L4xx_HAL_Driver/Src/stm32l4xx_ll_usb.c ****   if (USB_FlushRxFifo(USBx) != HAL_OK)
 3435              		.loc 1 1367 3 is_stmt 1 view .LVU1170
 3436              		.loc 1 1367 7 is_stmt 0 view .LVU1171
 3437 003a 2046     		mov	r0, r4
 3438 003c FFF7FEFF 		bl	USB_FlushRxFifo
 3439              	.LVL258:
 3440              		.loc 1 1367 6 view .LVU1172
 3441 0040 00B1     		cbz	r0, .L212
1368:Drivers/STM32L4xx_HAL_Driver/Src/stm32l4xx_ll_usb.c ****   {
1369:Drivers/STM32L4xx_HAL_Driver/Src/stm32l4xx_ll_usb.c ****     ret = HAL_ERROR;
 3442              		.loc 1 1369 9 view .LVU1173
 3443 0042 0125     		movs	r5, #1
 3444              	.LVL259:
 3445              	.L212:
1370:Drivers/STM32L4xx_HAL_Driver/Src/stm32l4xx_ll_usb.c ****   }
1371:Drivers/STM32L4xx_HAL_Driver/Src/stm32l4xx_ll_usb.c **** 
1372:Drivers/STM32L4xx_HAL_Driver/Src/stm32l4xx_ll_usb.c ****   /* Clear all pending HC Interrupts */
1373:Drivers/STM32L4xx_HAL_Driver/Src/stm32l4xx_ll_usb.c ****   for (i = 0U; i < cfg.Host_channels; i++)
 3446              		.loc 1 1373 3 is_stmt 1 view .LVU1174
 3447              		.loc 1 1373 10 is_stmt 0 view .LVU1175
 3448 0044 0022     		movs	r2, #0
 3449              		.loc 1 1373 3 view .LVU1176
ARM GAS  /tmp/ccdWnOQF.s 			page 104


 3450 0046 09E0     		b	.L213
 3451              	.LVL260:
 3452              	.L214:
1374:Drivers/STM32L4xx_HAL_Driver/Src/stm32l4xx_ll_usb.c ****   {
1375:Drivers/STM32L4xx_HAL_Driver/Src/stm32l4xx_ll_usb.c ****     USBx_HC(i)->HCINT = 0xFFFFFFFFU;
 3453              		.loc 1 1375 5 is_stmt 1 discriminator 3 view .LVU1177
 3454 0048 04EB4213 		add	r3, r4, r2, lsl #5
 3455              		.loc 1 1375 23 is_stmt 0 discriminator 3 view .LVU1178
 3456 004c 4FF0FF31 		mov	r1, #-1
 3457 0050 C3F80815 		str	r1, [r3, #1288]
1376:Drivers/STM32L4xx_HAL_Driver/Src/stm32l4xx_ll_usb.c ****     USBx_HC(i)->HCINTMSK = 0U;
 3458              		.loc 1 1376 5 is_stmt 1 discriminator 3 view .LVU1179
 3459              		.loc 1 1376 26 is_stmt 0 discriminator 3 view .LVU1180
 3460 0054 0021     		movs	r1, #0
 3461 0056 C3F80C15 		str	r1, [r3, #1292]
1373:Drivers/STM32L4xx_HAL_Driver/Src/stm32l4xx_ll_usb.c ****   {
 3462              		.loc 1 1373 40 is_stmt 1 discriminator 3 view .LVU1181
 3463 005a 0132     		adds	r2, r2, #1
 3464              	.LVL261:
 3465              	.L213:
1373:Drivers/STM32L4xx_HAL_Driver/Src/stm32l4xx_ll_usb.c ****   {
 3466              		.loc 1 1373 18 discriminator 1 view .LVU1182
1373:Drivers/STM32L4xx_HAL_Driver/Src/stm32l4xx_ll_usb.c ****   {
 3467              		.loc 1 1373 23 is_stmt 0 discriminator 1 view .LVU1183
 3468 005c 069B     		ldr	r3, [sp, #24]
1373:Drivers/STM32L4xx_HAL_Driver/Src/stm32l4xx_ll_usb.c ****   {
 3469              		.loc 1 1373 18 discriminator 1 view .LVU1184
 3470 005e 9342     		cmp	r3, r2
 3471 0060 F2D8     		bhi	.L214
1377:Drivers/STM32L4xx_HAL_Driver/Src/stm32l4xx_ll_usb.c ****   }
1378:Drivers/STM32L4xx_HAL_Driver/Src/stm32l4xx_ll_usb.c **** 
1379:Drivers/STM32L4xx_HAL_Driver/Src/stm32l4xx_ll_usb.c ****   /* Disable all interrupts. */
1380:Drivers/STM32L4xx_HAL_Driver/Src/stm32l4xx_ll_usb.c ****   USBx->GINTMSK = 0U;
 3472              		.loc 1 1380 3 is_stmt 1 view .LVU1185
 3473              		.loc 1 1380 17 is_stmt 0 view .LVU1186
 3474 0062 0023     		movs	r3, #0
 3475 0064 A361     		str	r3, [r4, #24]
1381:Drivers/STM32L4xx_HAL_Driver/Src/stm32l4xx_ll_usb.c **** 
1382:Drivers/STM32L4xx_HAL_Driver/Src/stm32l4xx_ll_usb.c ****   /* Clear any pending interrupts */
1383:Drivers/STM32L4xx_HAL_Driver/Src/stm32l4xx_ll_usb.c ****   USBx->GINTSTS = 0xFFFFFFFFU;
 3476              		.loc 1 1383 3 is_stmt 1 view .LVU1187
 3477              		.loc 1 1383 17 is_stmt 0 view .LVU1188
 3478 0066 4FF0FF33 		mov	r3, #-1
 3479 006a 6361     		str	r3, [r4, #20]
1384:Drivers/STM32L4xx_HAL_Driver/Src/stm32l4xx_ll_usb.c **** 
1385:Drivers/STM32L4xx_HAL_Driver/Src/stm32l4xx_ll_usb.c ****   /* set Rx FIFO size */
1386:Drivers/STM32L4xx_HAL_Driver/Src/stm32l4xx_ll_usb.c ****   USBx->GRXFSIZ  = 0x80U;
 3480              		.loc 1 1386 3 is_stmt 1 view .LVU1189
 3481              		.loc 1 1386 18 is_stmt 0 view .LVU1190
 3482 006c 8023     		movs	r3, #128
 3483 006e 6362     		str	r3, [r4, #36]
1387:Drivers/STM32L4xx_HAL_Driver/Src/stm32l4xx_ll_usb.c ****   USBx->DIEPTXF0_HNPTXFSIZ = (uint32_t)(((0x60U << 16) & USB_OTG_NPTXFD) | 0x80U);
 3484              		.loc 1 1387 3 is_stmt 1 view .LVU1191
 3485              		.loc 1 1387 28 is_stmt 0 view .LVU1192
 3486 0070 03F5C003 		add	r3, r3, #6291456
 3487 0074 A362     		str	r3, [r4, #40]
1388:Drivers/STM32L4xx_HAL_Driver/Src/stm32l4xx_ll_usb.c ****   USBx->HPTXFSIZ = (uint32_t)(((0x40U << 16)& USB_OTG_HPTXFSIZ_PTXFD) | 0xE0U);
ARM GAS  /tmp/ccdWnOQF.s 			page 105


 3488              		.loc 1 1388 3 is_stmt 1 view .LVU1193
 3489              		.loc 1 1388 18 is_stmt 0 view .LVU1194
 3490 0076 084B     		ldr	r3, .L218
 3491 0078 C4F80031 		str	r3, [r4, #256]
1389:Drivers/STM32L4xx_HAL_Driver/Src/stm32l4xx_ll_usb.c ****   /* Enable the common interrupts */
1390:Drivers/STM32L4xx_HAL_Driver/Src/stm32l4xx_ll_usb.c ****   USBx->GINTMSK |= USB_OTG_GINTMSK_RXFLVLM;
 3492              		.loc 1 1390 3 is_stmt 1 view .LVU1195
 3493              		.loc 1 1390 7 is_stmt 0 view .LVU1196
 3494 007c A369     		ldr	r3, [r4, #24]
 3495              		.loc 1 1390 17 view .LVU1197
 3496 007e 43F01003 		orr	r3, r3, #16
 3497 0082 A361     		str	r3, [r4, #24]
1391:Drivers/STM32L4xx_HAL_Driver/Src/stm32l4xx_ll_usb.c **** 
1392:Drivers/STM32L4xx_HAL_Driver/Src/stm32l4xx_ll_usb.c ****   /* Enable interrupts matching to the Host mode ONLY */
1393:Drivers/STM32L4xx_HAL_Driver/Src/stm32l4xx_ll_usb.c ****   USBx->GINTMSK |= (USB_OTG_GINTMSK_PRTIM            | USB_OTG_GINTMSK_HCIM | \
 3498              		.loc 1 1393 3 is_stmt 1 view .LVU1198
 3499              		.loc 1 1393 7 is_stmt 0 view .LVU1199
 3500 0084 A269     		ldr	r2, [r4, #24]
 3501              	.LVL262:
 3502              		.loc 1 1393 17 view .LVU1200
 3503 0086 054B     		ldr	r3, .L218+4
 3504 0088 1343     		orrs	r3, r3, r2
 3505 008a A361     		str	r3, [r4, #24]
1394:Drivers/STM32L4xx_HAL_Driver/Src/stm32l4xx_ll_usb.c ****                     USB_OTG_GINTMSK_SOFM             | USB_OTG_GINTSTS_DISCINT | \
1395:Drivers/STM32L4xx_HAL_Driver/Src/stm32l4xx_ll_usb.c ****                     USB_OTG_GINTMSK_PXFRM_IISOOXFRM  | USB_OTG_GINTMSK_WUIM);
1396:Drivers/STM32L4xx_HAL_Driver/Src/stm32l4xx_ll_usb.c **** 
1397:Drivers/STM32L4xx_HAL_Driver/Src/stm32l4xx_ll_usb.c ****   return ret;
 3506              		.loc 1 1397 3 is_stmt 1 view .LVU1201
1398:Drivers/STM32L4xx_HAL_Driver/Src/stm32l4xx_ll_usb.c **** }
 3507              		.loc 1 1398 1 is_stmt 0 view .LVU1202
 3508 008c 2846     		mov	r0, r5
 3509 008e BDE83840 		pop	{r3, r4, r5, lr}
 3510              		.cfi_restore 14
 3511              		.cfi_restore 5
 3512              		.cfi_restore 4
 3513              		.cfi_restore 3
 3514              		.cfi_def_cfa_offset 16
 3515              	.LVL263:
 3516              		.loc 1 1398 1 view .LVU1203
 3517 0092 04B0     		add	sp, sp, #16
 3518              		.cfi_def_cfa_offset 0
 3519 0094 7047     		bx	lr
 3520              	.L219:
 3521 0096 00BF     		.align	2
 3522              	.L218:
 3523 0098 E0004000 		.word	4194528
 3524 009c 080020A3 		.word	-1558183928
 3525              		.cfi_endproc
 3526              	.LFE167:
 3528              		.section	.text.USB_InitFSLSPClkSel,"ax",%progbits
 3529              		.align	1
 3530              		.global	USB_InitFSLSPClkSel
 3531              		.syntax unified
 3532              		.thumb
 3533              		.thumb_func
 3535              	USB_InitFSLSPClkSel:
 3536              	.LVL264:
ARM GAS  /tmp/ccdWnOQF.s 			page 106


 3537              	.LFB168:
1399:Drivers/STM32L4xx_HAL_Driver/Src/stm32l4xx_ll_usb.c **** 
1400:Drivers/STM32L4xx_HAL_Driver/Src/stm32l4xx_ll_usb.c **** /**
1401:Drivers/STM32L4xx_HAL_Driver/Src/stm32l4xx_ll_usb.c ****   * @brief  USB_InitFSLSPClkSel : Initializes the FSLSPClkSel field of the
1402:Drivers/STM32L4xx_HAL_Driver/Src/stm32l4xx_ll_usb.c ****   *         HCFG register on the PHY type and set the right frame interval
1403:Drivers/STM32L4xx_HAL_Driver/Src/stm32l4xx_ll_usb.c ****   * @param  USBx  Selected device
1404:Drivers/STM32L4xx_HAL_Driver/Src/stm32l4xx_ll_usb.c ****   * @param  freq  clock frequency
1405:Drivers/STM32L4xx_HAL_Driver/Src/stm32l4xx_ll_usb.c ****   *          This parameter can be one of these values:
1406:Drivers/STM32L4xx_HAL_Driver/Src/stm32l4xx_ll_usb.c ****   *           HCFG_48_MHZ : Full Speed 48 MHz Clock
1407:Drivers/STM32L4xx_HAL_Driver/Src/stm32l4xx_ll_usb.c ****   *           HCFG_6_MHZ : Low Speed 6 MHz Clock
1408:Drivers/STM32L4xx_HAL_Driver/Src/stm32l4xx_ll_usb.c ****   * @retval HAL status
1409:Drivers/STM32L4xx_HAL_Driver/Src/stm32l4xx_ll_usb.c ****   */
1410:Drivers/STM32L4xx_HAL_Driver/Src/stm32l4xx_ll_usb.c **** HAL_StatusTypeDef USB_InitFSLSPClkSel(USB_OTG_GlobalTypeDef *USBx, uint8_t freq)
1411:Drivers/STM32L4xx_HAL_Driver/Src/stm32l4xx_ll_usb.c **** {
 3538              		.loc 1 1411 1 is_stmt 1 view -0
 3539              		.cfi_startproc
 3540              		@ args = 0, pretend = 0, frame = 0
 3541              		@ frame_needed = 0, uses_anonymous_args = 0
 3542              		@ link register save eliminated.
1412:Drivers/STM32L4xx_HAL_Driver/Src/stm32l4xx_ll_usb.c ****   uint32_t USBx_BASE = (uint32_t)USBx;
 3543              		.loc 1 1412 3 view .LVU1205
1413:Drivers/STM32L4xx_HAL_Driver/Src/stm32l4xx_ll_usb.c **** 
1414:Drivers/STM32L4xx_HAL_Driver/Src/stm32l4xx_ll_usb.c ****   USBx_HOST->HCFG &= ~(USB_OTG_HCFG_FSLSPCS);
 3544              		.loc 1 1414 3 view .LVU1206
 3545              		.loc 1 1414 12 is_stmt 0 view .LVU1207
 3546 0000 00F5806C 		add	ip, r0, #1024
 3547 0004 D0F80034 		ldr	r3, [r0, #1024]
 3548              		.loc 1 1414 19 view .LVU1208
 3549 0008 23F00303 		bic	r3, r3, #3
 3550 000c C0F80034 		str	r3, [r0, #1024]
1415:Drivers/STM32L4xx_HAL_Driver/Src/stm32l4xx_ll_usb.c ****   USBx_HOST->HCFG |= (uint32_t)freq & USB_OTG_HCFG_FSLSPCS;
 3551              		.loc 1 1415 3 is_stmt 1 view .LVU1209
 3552              		.loc 1 1415 12 is_stmt 0 view .LVU1210
 3553 0010 D0F80034 		ldr	r3, [r0, #1024]
 3554              		.loc 1 1415 37 view .LVU1211
 3555 0014 01F00302 		and	r2, r1, #3
 3556              		.loc 1 1415 19 view .LVU1212
 3557 0018 1343     		orrs	r3, r3, r2
 3558 001a C0F80034 		str	r3, [r0, #1024]
1416:Drivers/STM32L4xx_HAL_Driver/Src/stm32l4xx_ll_usb.c **** 
1417:Drivers/STM32L4xx_HAL_Driver/Src/stm32l4xx_ll_usb.c ****   if (freq == HCFG_48_MHZ)
 3559              		.loc 1 1417 3 is_stmt 1 view .LVU1213
 3560              		.loc 1 1417 6 is_stmt 0 view .LVU1214
 3561 001e 0129     		cmp	r1, #1
 3562 0020 03D0     		beq	.L223
1418:Drivers/STM32L4xx_HAL_Driver/Src/stm32l4xx_ll_usb.c ****   {
1419:Drivers/STM32L4xx_HAL_Driver/Src/stm32l4xx_ll_usb.c ****     USBx_HOST->HFIR = 48000U;
1420:Drivers/STM32L4xx_HAL_Driver/Src/stm32l4xx_ll_usb.c ****   }
1421:Drivers/STM32L4xx_HAL_Driver/Src/stm32l4xx_ll_usb.c ****   else if (freq == HCFG_6_MHZ)
 3563              		.loc 1 1421 8 is_stmt 1 view .LVU1215
 3564              		.loc 1 1421 11 is_stmt 0 view .LVU1216
 3565 0022 0229     		cmp	r1, #2
 3566 0024 06D0     		beq	.L224
 3567              	.L222:
1422:Drivers/STM32L4xx_HAL_Driver/Src/stm32l4xx_ll_usb.c ****   {
1423:Drivers/STM32L4xx_HAL_Driver/Src/stm32l4xx_ll_usb.c ****     USBx_HOST->HFIR = 6000U;
1424:Drivers/STM32L4xx_HAL_Driver/Src/stm32l4xx_ll_usb.c ****   }
ARM GAS  /tmp/ccdWnOQF.s 			page 107


1425:Drivers/STM32L4xx_HAL_Driver/Src/stm32l4xx_ll_usb.c ****   else
1426:Drivers/STM32L4xx_HAL_Driver/Src/stm32l4xx_ll_usb.c ****   {
1427:Drivers/STM32L4xx_HAL_Driver/Src/stm32l4xx_ll_usb.c ****     /* ... */
1428:Drivers/STM32L4xx_HAL_Driver/Src/stm32l4xx_ll_usb.c ****   }
 3568              		.loc 1 1428 3 is_stmt 1 view .LVU1217
1429:Drivers/STM32L4xx_HAL_Driver/Src/stm32l4xx_ll_usb.c **** 
1430:Drivers/STM32L4xx_HAL_Driver/Src/stm32l4xx_ll_usb.c ****   return HAL_OK;
 3569              		.loc 1 1430 3 view .LVU1218
1431:Drivers/STM32L4xx_HAL_Driver/Src/stm32l4xx_ll_usb.c **** }
 3570              		.loc 1 1431 1 is_stmt 0 view .LVU1219
 3571 0026 0020     		movs	r0, #0
 3572              	.LVL265:
 3573              		.loc 1 1431 1 view .LVU1220
 3574 0028 7047     		bx	lr
 3575              	.LVL266:
 3576              	.L223:
1419:Drivers/STM32L4xx_HAL_Driver/Src/stm32l4xx_ll_usb.c ****   }
 3577              		.loc 1 1419 5 is_stmt 1 view .LVU1221
1419:Drivers/STM32L4xx_HAL_Driver/Src/stm32l4xx_ll_usb.c ****   }
 3578              		.loc 1 1419 21 is_stmt 0 view .LVU1222
 3579 002a 4BF68033 		movw	r3, #48000
 3580 002e CCF80430 		str	r3, [ip, #4]
 3581 0032 F8E7     		b	.L222
 3582              	.L224:
1423:Drivers/STM32L4xx_HAL_Driver/Src/stm32l4xx_ll_usb.c ****   }
 3583              		.loc 1 1423 5 is_stmt 1 view .LVU1223
1423:Drivers/STM32L4xx_HAL_Driver/Src/stm32l4xx_ll_usb.c ****   }
 3584              		.loc 1 1423 21 is_stmt 0 view .LVU1224
 3585 0034 41F27073 		movw	r3, #6000
 3586 0038 CCF80430 		str	r3, [ip, #4]
 3587 003c F3E7     		b	.L222
 3588              		.cfi_endproc
 3589              	.LFE168:
 3591              		.section	.text.USB_ResetPort,"ax",%progbits
 3592              		.align	1
 3593              		.global	USB_ResetPort
 3594              		.syntax unified
 3595              		.thumb
 3596              		.thumb_func
 3598              	USB_ResetPort:
 3599              	.LVL267:
 3600              	.LFB169:
1432:Drivers/STM32L4xx_HAL_Driver/Src/stm32l4xx_ll_usb.c **** 
1433:Drivers/STM32L4xx_HAL_Driver/Src/stm32l4xx_ll_usb.c **** /**
1434:Drivers/STM32L4xx_HAL_Driver/Src/stm32l4xx_ll_usb.c ****   * @brief  USB_OTG_ResetPort : Reset Host Port
1435:Drivers/STM32L4xx_HAL_Driver/Src/stm32l4xx_ll_usb.c ****   * @param  USBx  Selected device
1436:Drivers/STM32L4xx_HAL_Driver/Src/stm32l4xx_ll_usb.c ****   * @retval HAL status
1437:Drivers/STM32L4xx_HAL_Driver/Src/stm32l4xx_ll_usb.c ****   * @note (1)The application must wait at least 10 ms
1438:Drivers/STM32L4xx_HAL_Driver/Src/stm32l4xx_ll_usb.c ****   *   before clearing the reset bit.
1439:Drivers/STM32L4xx_HAL_Driver/Src/stm32l4xx_ll_usb.c ****   */
1440:Drivers/STM32L4xx_HAL_Driver/Src/stm32l4xx_ll_usb.c **** HAL_StatusTypeDef USB_ResetPort(USB_OTG_GlobalTypeDef *USBx)
1441:Drivers/STM32L4xx_HAL_Driver/Src/stm32l4xx_ll_usb.c **** {
 3601              		.loc 1 1441 1 is_stmt 1 view -0
 3602              		.cfi_startproc
 3603              		@ args = 0, pretend = 0, frame = 8
 3604              		@ frame_needed = 0, uses_anonymous_args = 0
 3605              		.loc 1 1441 1 is_stmt 0 view .LVU1226
ARM GAS  /tmp/ccdWnOQF.s 			page 108


 3606 0000 30B5     		push	{r4, r5, lr}
 3607              		.cfi_def_cfa_offset 12
 3608              		.cfi_offset 4, -12
 3609              		.cfi_offset 5, -8
 3610              		.cfi_offset 14, -4
 3611 0002 83B0     		sub	sp, sp, #12
 3612              		.cfi_def_cfa_offset 24
 3613 0004 0446     		mov	r4, r0
1442:Drivers/STM32L4xx_HAL_Driver/Src/stm32l4xx_ll_usb.c ****   uint32_t USBx_BASE = (uint32_t)USBx;
 3614              		.loc 1 1442 3 is_stmt 1 view .LVU1227
 3615              	.LVL268:
1443:Drivers/STM32L4xx_HAL_Driver/Src/stm32l4xx_ll_usb.c **** 
1444:Drivers/STM32L4xx_HAL_Driver/Src/stm32l4xx_ll_usb.c ****   __IO uint32_t hprt0 = 0U;
 3616              		.loc 1 1444 3 view .LVU1228
 3617              		.loc 1 1444 17 is_stmt 0 view .LVU1229
 3618 0006 0025     		movs	r5, #0
 3619 0008 0195     		str	r5, [sp, #4]
1445:Drivers/STM32L4xx_HAL_Driver/Src/stm32l4xx_ll_usb.c **** 
1446:Drivers/STM32L4xx_HAL_Driver/Src/stm32l4xx_ll_usb.c ****   hprt0 = USBx_HPRT0;
 3620              		.loc 1 1446 3 is_stmt 1 view .LVU1230
 3621              		.loc 1 1446 11 is_stmt 0 view .LVU1231
 3622 000a D0F84034 		ldr	r3, [r0, #1088]
 3623              		.loc 1 1446 9 view .LVU1232
 3624 000e 0193     		str	r3, [sp, #4]
1447:Drivers/STM32L4xx_HAL_Driver/Src/stm32l4xx_ll_usb.c **** 
1448:Drivers/STM32L4xx_HAL_Driver/Src/stm32l4xx_ll_usb.c ****   hprt0 &= ~(USB_OTG_HPRT_PENA | USB_OTG_HPRT_PCDET |
 3625              		.loc 1 1448 3 is_stmt 1 view .LVU1233
 3626              		.loc 1 1448 9 is_stmt 0 view .LVU1234
 3627 0010 019B     		ldr	r3, [sp, #4]
 3628 0012 23F02E03 		bic	r3, r3, #46
 3629 0016 0193     		str	r3, [sp, #4]
1449:Drivers/STM32L4xx_HAL_Driver/Src/stm32l4xx_ll_usb.c ****              USB_OTG_HPRT_PENCHNG | USB_OTG_HPRT_POCCHNG);
1450:Drivers/STM32L4xx_HAL_Driver/Src/stm32l4xx_ll_usb.c **** 
1451:Drivers/STM32L4xx_HAL_Driver/Src/stm32l4xx_ll_usb.c ****   USBx_HPRT0 = (USB_OTG_HPRT_PRST | hprt0);
 3630              		.loc 1 1451 3 is_stmt 1 view .LVU1235
 3631              		.loc 1 1451 35 is_stmt 0 view .LVU1236
 3632 0018 019B     		ldr	r3, [sp, #4]
 3633 001a 43F48073 		orr	r3, r3, #256
 3634              		.loc 1 1451 14 view .LVU1237
 3635 001e C0F84034 		str	r3, [r0, #1088]
1452:Drivers/STM32L4xx_HAL_Driver/Src/stm32l4xx_ll_usb.c ****   HAL_Delay(100U);                                 /* See Note #1 */
 3636              		.loc 1 1452 3 is_stmt 1 view .LVU1238
 3637 0022 6420     		movs	r0, #100
 3638              	.LVL269:
 3639              		.loc 1 1452 3 is_stmt 0 view .LVU1239
 3640 0024 FFF7FEFF 		bl	HAL_Delay
 3641              	.LVL270:
1453:Drivers/STM32L4xx_HAL_Driver/Src/stm32l4xx_ll_usb.c ****   USBx_HPRT0 = ((~USB_OTG_HPRT_PRST) & hprt0);
 3642              		.loc 1 1453 3 is_stmt 1 view .LVU1240
 3643              		.loc 1 1453 38 is_stmt 0 view .LVU1241
 3644 0028 019B     		ldr	r3, [sp, #4]
 3645 002a 23F48073 		bic	r3, r3, #256
 3646              		.loc 1 1453 14 view .LVU1242
 3647 002e C4F84034 		str	r3, [r4, #1088]
1454:Drivers/STM32L4xx_HAL_Driver/Src/stm32l4xx_ll_usb.c ****   HAL_Delay(10U);
 3648              		.loc 1 1454 3 is_stmt 1 view .LVU1243
 3649 0032 0A20     		movs	r0, #10
ARM GAS  /tmp/ccdWnOQF.s 			page 109


 3650 0034 FFF7FEFF 		bl	HAL_Delay
 3651              	.LVL271:
1455:Drivers/STM32L4xx_HAL_Driver/Src/stm32l4xx_ll_usb.c **** 
1456:Drivers/STM32L4xx_HAL_Driver/Src/stm32l4xx_ll_usb.c ****   return HAL_OK;
 3652              		.loc 1 1456 3 view .LVU1244
1457:Drivers/STM32L4xx_HAL_Driver/Src/stm32l4xx_ll_usb.c **** }
 3653              		.loc 1 1457 1 is_stmt 0 view .LVU1245
 3654 0038 2846     		mov	r0, r5
 3655 003a 03B0     		add	sp, sp, #12
 3656              		.cfi_def_cfa_offset 12
 3657              		@ sp needed
 3658 003c 30BD     		pop	{r4, r5, pc}
 3659              		.loc 1 1457 1 view .LVU1246
 3660              		.cfi_endproc
 3661              	.LFE169:
 3663              		.section	.text.USB_DriveVbus,"ax",%progbits
 3664              		.align	1
 3665              		.global	USB_DriveVbus
 3666              		.syntax unified
 3667              		.thumb
 3668              		.thumb_func
 3670              	USB_DriveVbus:
 3671              	.LVL272:
 3672              	.LFB170:
1458:Drivers/STM32L4xx_HAL_Driver/Src/stm32l4xx_ll_usb.c **** 
1459:Drivers/STM32L4xx_HAL_Driver/Src/stm32l4xx_ll_usb.c **** /**
1460:Drivers/STM32L4xx_HAL_Driver/Src/stm32l4xx_ll_usb.c ****   * @brief  USB_DriveVbus : activate or de-activate vbus
1461:Drivers/STM32L4xx_HAL_Driver/Src/stm32l4xx_ll_usb.c ****   * @param  state  VBUS state
1462:Drivers/STM32L4xx_HAL_Driver/Src/stm32l4xx_ll_usb.c ****   *          This parameter can be one of these values:
1463:Drivers/STM32L4xx_HAL_Driver/Src/stm32l4xx_ll_usb.c ****   *           0 : Deactivate VBUS
1464:Drivers/STM32L4xx_HAL_Driver/Src/stm32l4xx_ll_usb.c ****   *           1 : Activate VBUS
1465:Drivers/STM32L4xx_HAL_Driver/Src/stm32l4xx_ll_usb.c ****   * @retval HAL status
1466:Drivers/STM32L4xx_HAL_Driver/Src/stm32l4xx_ll_usb.c ****   */
1467:Drivers/STM32L4xx_HAL_Driver/Src/stm32l4xx_ll_usb.c **** HAL_StatusTypeDef USB_DriveVbus(USB_OTG_GlobalTypeDef *USBx, uint8_t state)
1468:Drivers/STM32L4xx_HAL_Driver/Src/stm32l4xx_ll_usb.c **** {
 3673              		.loc 1 1468 1 is_stmt 1 view -0
 3674              		.cfi_startproc
 3675              		@ args = 0, pretend = 0, frame = 8
 3676              		@ frame_needed = 0, uses_anonymous_args = 0
 3677              		@ link register save eliminated.
 3678              		.loc 1 1468 1 is_stmt 0 view .LVU1248
 3679 0000 82B0     		sub	sp, sp, #8
 3680              		.cfi_def_cfa_offset 8
1469:Drivers/STM32L4xx_HAL_Driver/Src/stm32l4xx_ll_usb.c ****   uint32_t USBx_BASE = (uint32_t)USBx;
 3681              		.loc 1 1469 3 is_stmt 1 view .LVU1249
 3682              	.LVL273:
1470:Drivers/STM32L4xx_HAL_Driver/Src/stm32l4xx_ll_usb.c ****   __IO uint32_t hprt0 = 0U;
 3683              		.loc 1 1470 3 view .LVU1250
 3684              		.loc 1 1470 17 is_stmt 0 view .LVU1251
 3685 0002 0023     		movs	r3, #0
 3686 0004 0193     		str	r3, [sp, #4]
1471:Drivers/STM32L4xx_HAL_Driver/Src/stm32l4xx_ll_usb.c **** 
1472:Drivers/STM32L4xx_HAL_Driver/Src/stm32l4xx_ll_usb.c ****   hprt0 = USBx_HPRT0;
 3687              		.loc 1 1472 3 is_stmt 1 view .LVU1252
 3688              		.loc 1 1472 11 is_stmt 0 view .LVU1253
 3689 0006 D0F84034 		ldr	r3, [r0, #1088]
 3690              		.loc 1 1472 9 view .LVU1254
ARM GAS  /tmp/ccdWnOQF.s 			page 110


 3691 000a 0193     		str	r3, [sp, #4]
1473:Drivers/STM32L4xx_HAL_Driver/Src/stm32l4xx_ll_usb.c **** 
1474:Drivers/STM32L4xx_HAL_Driver/Src/stm32l4xx_ll_usb.c ****   hprt0 &= ~(USB_OTG_HPRT_PENA | USB_OTG_HPRT_PCDET |
 3692              		.loc 1 1474 3 is_stmt 1 view .LVU1255
 3693              		.loc 1 1474 9 is_stmt 0 view .LVU1256
 3694 000c 019B     		ldr	r3, [sp, #4]
 3695 000e 23F02E03 		bic	r3, r3, #46
 3696 0012 0193     		str	r3, [sp, #4]
1475:Drivers/STM32L4xx_HAL_Driver/Src/stm32l4xx_ll_usb.c ****              USB_OTG_HPRT_PENCHNG | USB_OTG_HPRT_POCCHNG);
1476:Drivers/STM32L4xx_HAL_Driver/Src/stm32l4xx_ll_usb.c **** 
1477:Drivers/STM32L4xx_HAL_Driver/Src/stm32l4xx_ll_usb.c ****   if (((hprt0 & USB_OTG_HPRT_PPWR) == 0U) && (state == 1U))
 3697              		.loc 1 1477 3 is_stmt 1 view .LVU1257
 3698              		.loc 1 1477 15 is_stmt 0 view .LVU1258
 3699 0014 019B     		ldr	r3, [sp, #4]
 3700              		.loc 1 1477 6 view .LVU1259
 3701 0016 13F4805F 		tst	r3, #4096
 3702 001a 01D1     		bne	.L228
 3703              		.loc 1 1477 43 discriminator 1 view .LVU1260
 3704 001c 0129     		cmp	r1, #1
 3705 001e 0CD0     		beq	.L231
 3706              	.L228:
1478:Drivers/STM32L4xx_HAL_Driver/Src/stm32l4xx_ll_usb.c ****   {
1479:Drivers/STM32L4xx_HAL_Driver/Src/stm32l4xx_ll_usb.c ****     USBx_HPRT0 = (USB_OTG_HPRT_PPWR | hprt0);
1480:Drivers/STM32L4xx_HAL_Driver/Src/stm32l4xx_ll_usb.c ****   }
1481:Drivers/STM32L4xx_HAL_Driver/Src/stm32l4xx_ll_usb.c ****   if (((hprt0 & USB_OTG_HPRT_PPWR) == USB_OTG_HPRT_PPWR) && (state == 0U))
 3707              		.loc 1 1481 3 is_stmt 1 view .LVU1261
 3708              		.loc 1 1481 15 is_stmt 0 view .LVU1262
 3709 0020 019B     		ldr	r3, [sp, #4]
 3710              		.loc 1 1481 6 view .LVU1263
 3711 0022 13F4805F 		tst	r3, #4096
 3712 0026 05D0     		beq	.L229
 3713              		.loc 1 1481 58 discriminator 1 view .LVU1264
 3714 0028 21B9     		cbnz	r1, .L229
1482:Drivers/STM32L4xx_HAL_Driver/Src/stm32l4xx_ll_usb.c ****   {
1483:Drivers/STM32L4xx_HAL_Driver/Src/stm32l4xx_ll_usb.c ****     USBx_HPRT0 = ((~USB_OTG_HPRT_PPWR) & hprt0);
 3715              		.loc 1 1483 5 is_stmt 1 view .LVU1265
 3716              		.loc 1 1483 40 is_stmt 0 view .LVU1266
 3717 002a 019B     		ldr	r3, [sp, #4]
 3718 002c 23F48053 		bic	r3, r3, #4096
 3719              		.loc 1 1483 16 view .LVU1267
 3720 0030 C0F84034 		str	r3, [r0, #1088]
 3721              	.L229:
1484:Drivers/STM32L4xx_HAL_Driver/Src/stm32l4xx_ll_usb.c ****   }
1485:Drivers/STM32L4xx_HAL_Driver/Src/stm32l4xx_ll_usb.c ****   return HAL_OK;
 3722              		.loc 1 1485 3 is_stmt 1 view .LVU1268
1486:Drivers/STM32L4xx_HAL_Driver/Src/stm32l4xx_ll_usb.c **** }
 3723              		.loc 1 1486 1 is_stmt 0 view .LVU1269
 3724 0034 0020     		movs	r0, #0
 3725              	.LVL274:
 3726              		.loc 1 1486 1 view .LVU1270
 3727 0036 02B0     		add	sp, sp, #8
 3728              		.cfi_remember_state
 3729              		.cfi_def_cfa_offset 0
 3730              		@ sp needed
 3731 0038 7047     		bx	lr
 3732              	.LVL275:
 3733              	.L231:
ARM GAS  /tmp/ccdWnOQF.s 			page 111


 3734              		.cfi_restore_state
1479:Drivers/STM32L4xx_HAL_Driver/Src/stm32l4xx_ll_usb.c ****   }
 3735              		.loc 1 1479 5 is_stmt 1 view .LVU1271
1479:Drivers/STM32L4xx_HAL_Driver/Src/stm32l4xx_ll_usb.c ****   }
 3736              		.loc 1 1479 37 is_stmt 0 view .LVU1272
 3737 003a 019B     		ldr	r3, [sp, #4]
 3738 003c 43F48053 		orr	r3, r3, #4096
1479:Drivers/STM32L4xx_HAL_Driver/Src/stm32l4xx_ll_usb.c ****   }
 3739              		.loc 1 1479 16 view .LVU1273
 3740 0040 C0F84034 		str	r3, [r0, #1088]
 3741 0044 ECE7     		b	.L228
 3742              		.cfi_endproc
 3743              	.LFE170:
 3745              		.section	.text.USB_GetHostSpeed,"ax",%progbits
 3746              		.align	1
 3747              		.global	USB_GetHostSpeed
 3748              		.syntax unified
 3749              		.thumb
 3750              		.thumb_func
 3752              	USB_GetHostSpeed:
 3753              	.LVL276:
 3754              	.LFB171:
1487:Drivers/STM32L4xx_HAL_Driver/Src/stm32l4xx_ll_usb.c **** 
1488:Drivers/STM32L4xx_HAL_Driver/Src/stm32l4xx_ll_usb.c **** /**
1489:Drivers/STM32L4xx_HAL_Driver/Src/stm32l4xx_ll_usb.c ****   * @brief  Return Host Core speed
1490:Drivers/STM32L4xx_HAL_Driver/Src/stm32l4xx_ll_usb.c ****   * @param  USBx  Selected device
1491:Drivers/STM32L4xx_HAL_Driver/Src/stm32l4xx_ll_usb.c ****   * @retval speed : Host speed
1492:Drivers/STM32L4xx_HAL_Driver/Src/stm32l4xx_ll_usb.c ****   *          This parameter can be one of these values:
1493:Drivers/STM32L4xx_HAL_Driver/Src/stm32l4xx_ll_usb.c ****   *            @arg HCD_SPEED_FULL: Full speed mode
1494:Drivers/STM32L4xx_HAL_Driver/Src/stm32l4xx_ll_usb.c ****   *            @arg HCD_SPEED_LOW: Low speed mode
1495:Drivers/STM32L4xx_HAL_Driver/Src/stm32l4xx_ll_usb.c ****   */
1496:Drivers/STM32L4xx_HAL_Driver/Src/stm32l4xx_ll_usb.c **** uint32_t USB_GetHostSpeed(USB_OTG_GlobalTypeDef *USBx)
1497:Drivers/STM32L4xx_HAL_Driver/Src/stm32l4xx_ll_usb.c **** {
 3755              		.loc 1 1497 1 is_stmt 1 view -0
 3756              		.cfi_startproc
 3757              		@ args = 0, pretend = 0, frame = 8
 3758              		@ frame_needed = 0, uses_anonymous_args = 0
 3759              		@ link register save eliminated.
 3760              		.loc 1 1497 1 is_stmt 0 view .LVU1275
 3761 0000 82B0     		sub	sp, sp, #8
 3762              		.cfi_def_cfa_offset 8
1498:Drivers/STM32L4xx_HAL_Driver/Src/stm32l4xx_ll_usb.c ****   uint32_t USBx_BASE = (uint32_t)USBx;
 3763              		.loc 1 1498 3 is_stmt 1 view .LVU1276
 3764              	.LVL277:
1499:Drivers/STM32L4xx_HAL_Driver/Src/stm32l4xx_ll_usb.c ****   __IO uint32_t hprt0 = 0U;
 3765              		.loc 1 1499 3 view .LVU1277
 3766              		.loc 1 1499 17 is_stmt 0 view .LVU1278
 3767 0002 0023     		movs	r3, #0
 3768 0004 0193     		str	r3, [sp, #4]
1500:Drivers/STM32L4xx_HAL_Driver/Src/stm32l4xx_ll_usb.c **** 
1501:Drivers/STM32L4xx_HAL_Driver/Src/stm32l4xx_ll_usb.c ****   hprt0 = USBx_HPRT0;
 3769              		.loc 1 1501 3 is_stmt 1 view .LVU1279
 3770              		.loc 1 1501 11 is_stmt 0 view .LVU1280
 3771 0006 D0F84034 		ldr	r3, [r0, #1088]
 3772              		.loc 1 1501 9 view .LVU1281
 3773 000a 0193     		str	r3, [sp, #4]
1502:Drivers/STM32L4xx_HAL_Driver/Src/stm32l4xx_ll_usb.c ****   return ((hprt0 & USB_OTG_HPRT_PSPD) >> 17);
ARM GAS  /tmp/ccdWnOQF.s 			page 112


 3774              		.loc 1 1502 3 is_stmt 1 view .LVU1282
 3775              		.loc 1 1502 39 is_stmt 0 view .LVU1283
 3776 000c 0198     		ldr	r0, [sp, #4]
 3777              	.LVL278:
1503:Drivers/STM32L4xx_HAL_Driver/Src/stm32l4xx_ll_usb.c **** }
 3778              		.loc 1 1503 1 view .LVU1284
 3779 000e C0F34140 		ubfx	r0, r0, #17, #2
 3780 0012 02B0     		add	sp, sp, #8
 3781              		.cfi_def_cfa_offset 0
 3782              		@ sp needed
 3783 0014 7047     		bx	lr
 3784              		.cfi_endproc
 3785              	.LFE171:
 3787              		.section	.text.USB_GetCurrentFrame,"ax",%progbits
 3788              		.align	1
 3789              		.global	USB_GetCurrentFrame
 3790              		.syntax unified
 3791              		.thumb
 3792              		.thumb_func
 3794              	USB_GetCurrentFrame:
 3795              	.LVL279:
 3796              	.LFB172:
1504:Drivers/STM32L4xx_HAL_Driver/Src/stm32l4xx_ll_usb.c **** 
1505:Drivers/STM32L4xx_HAL_Driver/Src/stm32l4xx_ll_usb.c **** /**
1506:Drivers/STM32L4xx_HAL_Driver/Src/stm32l4xx_ll_usb.c ****   * @brief  Return Host Current Frame number
1507:Drivers/STM32L4xx_HAL_Driver/Src/stm32l4xx_ll_usb.c ****   * @param  USBx  Selected device
1508:Drivers/STM32L4xx_HAL_Driver/Src/stm32l4xx_ll_usb.c ****   * @retval current frame number
1509:Drivers/STM32L4xx_HAL_Driver/Src/stm32l4xx_ll_usb.c ****   */
1510:Drivers/STM32L4xx_HAL_Driver/Src/stm32l4xx_ll_usb.c **** uint32_t USB_GetCurrentFrame(USB_OTG_GlobalTypeDef *USBx)
1511:Drivers/STM32L4xx_HAL_Driver/Src/stm32l4xx_ll_usb.c **** {
 3797              		.loc 1 1511 1 is_stmt 1 view -0
 3798              		.cfi_startproc
 3799              		@ args = 0, pretend = 0, frame = 0
 3800              		@ frame_needed = 0, uses_anonymous_args = 0
 3801              		@ link register save eliminated.
1512:Drivers/STM32L4xx_HAL_Driver/Src/stm32l4xx_ll_usb.c ****   uint32_t USBx_BASE = (uint32_t)USBx;
 3802              		.loc 1 1512 3 view .LVU1286
1513:Drivers/STM32L4xx_HAL_Driver/Src/stm32l4xx_ll_usb.c **** 
1514:Drivers/STM32L4xx_HAL_Driver/Src/stm32l4xx_ll_usb.c ****   return (USBx_HOST->HFNUM & USB_OTG_HFNUM_FRNUM);
 3803              		.loc 1 1514 3 view .LVU1287
 3804              		.loc 1 1514 11 is_stmt 0 view .LVU1288
 3805 0000 00F58060 		add	r0, r0, #1024
 3806              	.LVL280:
 3807              		.loc 1 1514 20 view .LVU1289
 3808 0004 8068     		ldr	r0, [r0, #8]
 3809              	.LVL281:
1515:Drivers/STM32L4xx_HAL_Driver/Src/stm32l4xx_ll_usb.c **** }
 3810              		.loc 1 1515 1 view .LVU1290
 3811 0006 80B2     		uxth	r0, r0
 3812 0008 7047     		bx	lr
 3813              		.cfi_endproc
 3814              	.LFE172:
 3816              		.section	.text.USB_HC_Init,"ax",%progbits
 3817              		.align	1
 3818              		.global	USB_HC_Init
 3819              		.syntax unified
 3820              		.thumb
ARM GAS  /tmp/ccdWnOQF.s 			page 113


 3821              		.thumb_func
 3823              	USB_HC_Init:
 3824              	.LVL282:
 3825              	.LFB173:
1516:Drivers/STM32L4xx_HAL_Driver/Src/stm32l4xx_ll_usb.c **** 
1517:Drivers/STM32L4xx_HAL_Driver/Src/stm32l4xx_ll_usb.c **** /**
1518:Drivers/STM32L4xx_HAL_Driver/Src/stm32l4xx_ll_usb.c ****   * @brief  Initialize a host channel
1519:Drivers/STM32L4xx_HAL_Driver/Src/stm32l4xx_ll_usb.c ****   * @param  USBx  Selected device
1520:Drivers/STM32L4xx_HAL_Driver/Src/stm32l4xx_ll_usb.c ****   * @param  ch_num  Channel number
1521:Drivers/STM32L4xx_HAL_Driver/Src/stm32l4xx_ll_usb.c ****   *         This parameter can be a value from 1 to 15
1522:Drivers/STM32L4xx_HAL_Driver/Src/stm32l4xx_ll_usb.c ****   * @param  epnum  Endpoint number
1523:Drivers/STM32L4xx_HAL_Driver/Src/stm32l4xx_ll_usb.c ****   *          This parameter can be a value from 1 to 15
1524:Drivers/STM32L4xx_HAL_Driver/Src/stm32l4xx_ll_usb.c ****   * @param  dev_address  Current device address
1525:Drivers/STM32L4xx_HAL_Driver/Src/stm32l4xx_ll_usb.c ****   *          This parameter can be a value from 0 to 255
1526:Drivers/STM32L4xx_HAL_Driver/Src/stm32l4xx_ll_usb.c ****   * @param  speed  Current device speed
1527:Drivers/STM32L4xx_HAL_Driver/Src/stm32l4xx_ll_usb.c ****   *          This parameter can be one of these values:
1528:Drivers/STM32L4xx_HAL_Driver/Src/stm32l4xx_ll_usb.c ****   *            @arg USB_OTG_SPEED_FULL: Full speed mode
1529:Drivers/STM32L4xx_HAL_Driver/Src/stm32l4xx_ll_usb.c ****   *            @arg USB_OTG_SPEED_LOW: Low speed mode
1530:Drivers/STM32L4xx_HAL_Driver/Src/stm32l4xx_ll_usb.c ****   * @param  ep_type  Endpoint Type
1531:Drivers/STM32L4xx_HAL_Driver/Src/stm32l4xx_ll_usb.c ****   *          This parameter can be one of these values:
1532:Drivers/STM32L4xx_HAL_Driver/Src/stm32l4xx_ll_usb.c ****   *            @arg EP_TYPE_CTRL: Control type
1533:Drivers/STM32L4xx_HAL_Driver/Src/stm32l4xx_ll_usb.c ****   *            @arg EP_TYPE_ISOC: Isochronous type
1534:Drivers/STM32L4xx_HAL_Driver/Src/stm32l4xx_ll_usb.c ****   *            @arg EP_TYPE_BULK: Bulk type
1535:Drivers/STM32L4xx_HAL_Driver/Src/stm32l4xx_ll_usb.c ****   *            @arg EP_TYPE_INTR: Interrupt type
1536:Drivers/STM32L4xx_HAL_Driver/Src/stm32l4xx_ll_usb.c ****   * @param  mps  Max Packet Size
1537:Drivers/STM32L4xx_HAL_Driver/Src/stm32l4xx_ll_usb.c ****   *          This parameter can be a value from 0 to 32K
1538:Drivers/STM32L4xx_HAL_Driver/Src/stm32l4xx_ll_usb.c ****   * @retval HAL state
1539:Drivers/STM32L4xx_HAL_Driver/Src/stm32l4xx_ll_usb.c ****   */
1540:Drivers/STM32L4xx_HAL_Driver/Src/stm32l4xx_ll_usb.c **** HAL_StatusTypeDef USB_HC_Init(USB_OTG_GlobalTypeDef *USBx, uint8_t ch_num,
1541:Drivers/STM32L4xx_HAL_Driver/Src/stm32l4xx_ll_usb.c ****                               uint8_t epnum, uint8_t dev_address, uint8_t speed,
1542:Drivers/STM32L4xx_HAL_Driver/Src/stm32l4xx_ll_usb.c ****                               uint8_t ep_type, uint16_t mps)
1543:Drivers/STM32L4xx_HAL_Driver/Src/stm32l4xx_ll_usb.c **** {
 3826              		.loc 1 1543 1 is_stmt 1 view -0
 3827              		.cfi_startproc
 3828              		@ args = 12, pretend = 0, frame = 0
 3829              		@ frame_needed = 0, uses_anonymous_args = 0
 3830              		.loc 1 1543 1 is_stmt 0 view .LVU1292
 3831 0000 2DE9F843 		push	{r3, r4, r5, r6, r7, r8, r9, lr}
 3832              		.cfi_def_cfa_offset 32
 3833              		.cfi_offset 3, -32
 3834              		.cfi_offset 4, -28
 3835              		.cfi_offset 5, -24
 3836              		.cfi_offset 6, -20
 3837              		.cfi_offset 7, -16
 3838              		.cfi_offset 8, -12
 3839              		.cfi_offset 9, -8
 3840              		.cfi_offset 14, -4
 3841 0004 9146     		mov	r9, r2
 3842 0006 1C46     		mov	r4, r3
 3843 0008 9DF82450 		ldrb	r5, [sp, #36]	@ zero_extendqisi2
1544:Drivers/STM32L4xx_HAL_Driver/Src/stm32l4xx_ll_usb.c ****   HAL_StatusTypeDef ret = HAL_OK;
 3844              		.loc 1 1544 3 is_stmt 1 view .LVU1293
 3845              	.LVL283:
1545:Drivers/STM32L4xx_HAL_Driver/Src/stm32l4xx_ll_usb.c ****   uint32_t USBx_BASE = (uint32_t)USBx;
 3846              		.loc 1 1545 3 view .LVU1294
1546:Drivers/STM32L4xx_HAL_Driver/Src/stm32l4xx_ll_usb.c ****   uint32_t HCcharEpDir;
 3847              		.loc 1 1546 3 view .LVU1295
ARM GAS  /tmp/ccdWnOQF.s 			page 114


1547:Drivers/STM32L4xx_HAL_Driver/Src/stm32l4xx_ll_usb.c ****   uint32_t HCcharLowSpeed;
 3848              		.loc 1 1547 3 view .LVU1296
1548:Drivers/STM32L4xx_HAL_Driver/Src/stm32l4xx_ll_usb.c ****   uint32_t HostCoreSpeed;
 3849              		.loc 1 1548 3 view .LVU1297
1549:Drivers/STM32L4xx_HAL_Driver/Src/stm32l4xx_ll_usb.c **** 
1550:Drivers/STM32L4xx_HAL_Driver/Src/stm32l4xx_ll_usb.c ****   /* Clear old interrupt conditions for this host channel. */
1551:Drivers/STM32L4xx_HAL_Driver/Src/stm32l4xx_ll_usb.c ****   USBx_HC((uint32_t)ch_num)->HCINT = 0xFFFFFFFFU;
 3850              		.loc 1 1551 3 view .LVU1298
 3851 000c 00EB4116 		add	r6, r0, r1, lsl #5
 3852 0010 06F5A063 		add	r3, r6, #1280
 3853              	.LVL284:
 3854              		.loc 1 1551 36 is_stmt 0 view .LVU1299
 3855 0014 4FF0FF32 		mov	r2, #-1
 3856              	.LVL285:
 3857              		.loc 1 1551 36 view .LVU1300
 3858 0018 9A60     		str	r2, [r3, #8]
1552:Drivers/STM32L4xx_HAL_Driver/Src/stm32l4xx_ll_usb.c **** 
1553:Drivers/STM32L4xx_HAL_Driver/Src/stm32l4xx_ll_usb.c ****   /* Enable channel interrupts required for this transfer. */
1554:Drivers/STM32L4xx_HAL_Driver/Src/stm32l4xx_ll_usb.c ****   switch (ep_type)
 3859              		.loc 1 1554 3 is_stmt 1 view .LVU1301
 3860 001a 032D     		cmp	r5, #3
 3861 001c 6DD8     		bhi	.L245
 3862 001e DFE805F0 		tbb	[pc, r5]
 3863              	.L238:
 3864 0022 02       		.byte	(.L239-.L238)/2
 3865 0023 5E       		.byte	(.L240-.L238)/2
 3866 0024 02       		.byte	(.L239-.L238)/2
 3867 0025 50       		.byte	(.L237-.L238)/2
 3868              		.p2align 1
 3869              	.L239:
1555:Drivers/STM32L4xx_HAL_Driver/Src/stm32l4xx_ll_usb.c ****   {
1556:Drivers/STM32L4xx_HAL_Driver/Src/stm32l4xx_ll_usb.c ****     case EP_TYPE_CTRL:
1557:Drivers/STM32L4xx_HAL_Driver/Src/stm32l4xx_ll_usb.c ****     case EP_TYPE_BULK:
1558:Drivers/STM32L4xx_HAL_Driver/Src/stm32l4xx_ll_usb.c ****       USBx_HC((uint32_t)ch_num)->HCINTMSK = USB_OTG_HCINTMSK_XFRCM  |
 3870              		.loc 1 1558 7 view .LVU1302
 3871              		.loc 1 1558 43 is_stmt 0 view .LVU1303
 3872 0026 40F29D42 		movw	r2, #1181
 3873 002a DA60     		str	r2, [r3, #12]
1559:Drivers/STM32L4xx_HAL_Driver/Src/stm32l4xx_ll_usb.c ****                                             USB_OTG_HCINTMSK_STALLM |
1560:Drivers/STM32L4xx_HAL_Driver/Src/stm32l4xx_ll_usb.c ****                                             USB_OTG_HCINTMSK_TXERRM |
1561:Drivers/STM32L4xx_HAL_Driver/Src/stm32l4xx_ll_usb.c ****                                             USB_OTG_HCINTMSK_DTERRM |
1562:Drivers/STM32L4xx_HAL_Driver/Src/stm32l4xx_ll_usb.c ****                                             USB_OTG_HCINTMSK_AHBERR |
1563:Drivers/STM32L4xx_HAL_Driver/Src/stm32l4xx_ll_usb.c ****                                             USB_OTG_HCINTMSK_NAKM;
1564:Drivers/STM32L4xx_HAL_Driver/Src/stm32l4xx_ll_usb.c **** 
1565:Drivers/STM32L4xx_HAL_Driver/Src/stm32l4xx_ll_usb.c ****       if ((epnum & 0x80U) == 0x80U)
 3874              		.loc 1 1565 7 is_stmt 1 view .LVU1304
 3875              		.loc 1 1565 10 is_stmt 0 view .LVU1305
 3876 002c 19F0800F 		tst	r9, #128
 3877 0030 41D1     		bne	.L253
1544:Drivers/STM32L4xx_HAL_Driver/Src/stm32l4xx_ll_usb.c ****   uint32_t USBx_BASE = (uint32_t)USBx;
 3878              		.loc 1 1544 21 view .LVU1306
 3879 0032 0027     		movs	r7, #0
 3880              	.L236:
 3881              	.LVL286:
1566:Drivers/STM32L4xx_HAL_Driver/Src/stm32l4xx_ll_usb.c ****       {
1567:Drivers/STM32L4xx_HAL_Driver/Src/stm32l4xx_ll_usb.c ****         USBx_HC((uint32_t)ch_num)->HCINTMSK |= USB_OTG_HCINTMSK_BBERRM;
1568:Drivers/STM32L4xx_HAL_Driver/Src/stm32l4xx_ll_usb.c ****       }
ARM GAS  /tmp/ccdWnOQF.s 			page 115


1569:Drivers/STM32L4xx_HAL_Driver/Src/stm32l4xx_ll_usb.c ****       break;
1570:Drivers/STM32L4xx_HAL_Driver/Src/stm32l4xx_ll_usb.c **** 
1571:Drivers/STM32L4xx_HAL_Driver/Src/stm32l4xx_ll_usb.c ****     case EP_TYPE_INTR:
1572:Drivers/STM32L4xx_HAL_Driver/Src/stm32l4xx_ll_usb.c ****       USBx_HC((uint32_t)ch_num)->HCINTMSK = USB_OTG_HCINTMSK_XFRCM  |
1573:Drivers/STM32L4xx_HAL_Driver/Src/stm32l4xx_ll_usb.c ****                                             USB_OTG_HCINTMSK_STALLM |
1574:Drivers/STM32L4xx_HAL_Driver/Src/stm32l4xx_ll_usb.c ****                                             USB_OTG_HCINTMSK_TXERRM |
1575:Drivers/STM32L4xx_HAL_Driver/Src/stm32l4xx_ll_usb.c ****                                             USB_OTG_HCINTMSK_DTERRM |
1576:Drivers/STM32L4xx_HAL_Driver/Src/stm32l4xx_ll_usb.c ****                                             USB_OTG_HCINTMSK_NAKM   |
1577:Drivers/STM32L4xx_HAL_Driver/Src/stm32l4xx_ll_usb.c ****                                             USB_OTG_HCINTMSK_AHBERR |
1578:Drivers/STM32L4xx_HAL_Driver/Src/stm32l4xx_ll_usb.c ****                                             USB_OTG_HCINTMSK_FRMORM;
1579:Drivers/STM32L4xx_HAL_Driver/Src/stm32l4xx_ll_usb.c **** 
1580:Drivers/STM32L4xx_HAL_Driver/Src/stm32l4xx_ll_usb.c ****       if ((epnum & 0x80U) == 0x80U)
1581:Drivers/STM32L4xx_HAL_Driver/Src/stm32l4xx_ll_usb.c ****       {
1582:Drivers/STM32L4xx_HAL_Driver/Src/stm32l4xx_ll_usb.c ****         USBx_HC((uint32_t)ch_num)->HCINTMSK |= USB_OTG_HCINTMSK_BBERRM;
1583:Drivers/STM32L4xx_HAL_Driver/Src/stm32l4xx_ll_usb.c ****       }
1584:Drivers/STM32L4xx_HAL_Driver/Src/stm32l4xx_ll_usb.c **** 
1585:Drivers/STM32L4xx_HAL_Driver/Src/stm32l4xx_ll_usb.c ****       break;
1586:Drivers/STM32L4xx_HAL_Driver/Src/stm32l4xx_ll_usb.c **** 
1587:Drivers/STM32L4xx_HAL_Driver/Src/stm32l4xx_ll_usb.c ****     case EP_TYPE_ISOC:
1588:Drivers/STM32L4xx_HAL_Driver/Src/stm32l4xx_ll_usb.c ****       USBx_HC((uint32_t)ch_num)->HCINTMSK = USB_OTG_HCINTMSK_XFRCM  |
1589:Drivers/STM32L4xx_HAL_Driver/Src/stm32l4xx_ll_usb.c ****                                             USB_OTG_HCINTMSK_ACKM   |
1590:Drivers/STM32L4xx_HAL_Driver/Src/stm32l4xx_ll_usb.c ****                                             USB_OTG_HCINTMSK_AHBERR |
1591:Drivers/STM32L4xx_HAL_Driver/Src/stm32l4xx_ll_usb.c ****                                             USB_OTG_HCINTMSK_FRMORM;
1592:Drivers/STM32L4xx_HAL_Driver/Src/stm32l4xx_ll_usb.c **** 
1593:Drivers/STM32L4xx_HAL_Driver/Src/stm32l4xx_ll_usb.c ****       if ((epnum & 0x80U) == 0x80U)
1594:Drivers/STM32L4xx_HAL_Driver/Src/stm32l4xx_ll_usb.c ****       {
1595:Drivers/STM32L4xx_HAL_Driver/Src/stm32l4xx_ll_usb.c ****         USBx_HC((uint32_t)ch_num)->HCINTMSK |= (USB_OTG_HCINTMSK_TXERRM | USB_OTG_HCINTMSK_BBERRM);
1596:Drivers/STM32L4xx_HAL_Driver/Src/stm32l4xx_ll_usb.c ****       }
1597:Drivers/STM32L4xx_HAL_Driver/Src/stm32l4xx_ll_usb.c ****       break;
1598:Drivers/STM32L4xx_HAL_Driver/Src/stm32l4xx_ll_usb.c **** 
1599:Drivers/STM32L4xx_HAL_Driver/Src/stm32l4xx_ll_usb.c ****     default:
1600:Drivers/STM32L4xx_HAL_Driver/Src/stm32l4xx_ll_usb.c ****       ret = HAL_ERROR;
1601:Drivers/STM32L4xx_HAL_Driver/Src/stm32l4xx_ll_usb.c ****       break;
1602:Drivers/STM32L4xx_HAL_Driver/Src/stm32l4xx_ll_usb.c ****   }
1603:Drivers/STM32L4xx_HAL_Driver/Src/stm32l4xx_ll_usb.c **** 
1604:Drivers/STM32L4xx_HAL_Driver/Src/stm32l4xx_ll_usb.c ****   /* Enable host channel Halt interrupt */
1605:Drivers/STM32L4xx_HAL_Driver/Src/stm32l4xx_ll_usb.c ****   USBx_HC((uint32_t)ch_num)->HCINTMSK |= USB_OTG_HCINTMSK_CHHM;
 3882              		.loc 1 1605 3 is_stmt 1 view .LVU1307
 3883              		.loc 1 1605 28 is_stmt 0 view .LVU1308
 3884 0034 DA68     		ldr	r2, [r3, #12]
 3885              		.loc 1 1605 39 view .LVU1309
 3886 0036 42F00202 		orr	r2, r2, #2
 3887 003a DA60     		str	r2, [r3, #12]
1606:Drivers/STM32L4xx_HAL_Driver/Src/stm32l4xx_ll_usb.c **** 
1607:Drivers/STM32L4xx_HAL_Driver/Src/stm32l4xx_ll_usb.c ****   /* Enable the top level host channel interrupt. */
1608:Drivers/STM32L4xx_HAL_Driver/Src/stm32l4xx_ll_usb.c ****   USBx_HOST->HAINTMSK |= 1UL << (ch_num & 0xFU);
 3888              		.loc 1 1608 3 is_stmt 1 view .LVU1310
 3889              		.loc 1 1608 12 is_stmt 0 view .LVU1311
 3890 003c D0F81834 		ldr	r3, [r0, #1048]
 3891              		.loc 1 1608 41 view .LVU1312
 3892 0040 01F00F01 		and	r1, r1, #15
 3893              	.LVL287:
 3894              		.loc 1 1608 30 view .LVU1313
 3895 0044 0122     		movs	r2, #1
 3896 0046 8A40     		lsls	r2, r2, r1
 3897              		.loc 1 1608 23 view .LVU1314
 3898 0048 1343     		orrs	r3, r3, r2
ARM GAS  /tmp/ccdWnOQF.s 			page 116


 3899 004a C0F81834 		str	r3, [r0, #1048]
1609:Drivers/STM32L4xx_HAL_Driver/Src/stm32l4xx_ll_usb.c **** 
1610:Drivers/STM32L4xx_HAL_Driver/Src/stm32l4xx_ll_usb.c ****   /* Make sure host channel interrupts are enabled. */
1611:Drivers/STM32L4xx_HAL_Driver/Src/stm32l4xx_ll_usb.c ****   USBx->GINTMSK |= USB_OTG_GINTMSK_HCIM;
 3900              		.loc 1 1611 3 is_stmt 1 view .LVU1315
 3901              		.loc 1 1611 7 is_stmt 0 view .LVU1316
 3902 004e 8369     		ldr	r3, [r0, #24]
 3903              		.loc 1 1611 17 view .LVU1317
 3904 0050 43F00073 		orr	r3, r3, #33554432
 3905 0054 8361     		str	r3, [r0, #24]
1612:Drivers/STM32L4xx_HAL_Driver/Src/stm32l4xx_ll_usb.c **** 
1613:Drivers/STM32L4xx_HAL_Driver/Src/stm32l4xx_ll_usb.c ****   /* Program the HCCHAR register */
1614:Drivers/STM32L4xx_HAL_Driver/Src/stm32l4xx_ll_usb.c ****   if ((epnum & 0x80U) == 0x80U)
 3906              		.loc 1 1614 3 is_stmt 1 view .LVU1318
 3907              		.loc 1 1614 6 is_stmt 0 view .LVU1319
 3908 0056 19F0800F 		tst	r9, #128
 3909 005a 50D1     		bne	.L254
1615:Drivers/STM32L4xx_HAL_Driver/Src/stm32l4xx_ll_usb.c ****   {
1616:Drivers/STM32L4xx_HAL_Driver/Src/stm32l4xx_ll_usb.c ****     HCcharEpDir = (0x1U << 15) & USB_OTG_HCCHAR_EPDIR;
1617:Drivers/STM32L4xx_HAL_Driver/Src/stm32l4xx_ll_usb.c ****   }
1618:Drivers/STM32L4xx_HAL_Driver/Src/stm32l4xx_ll_usb.c ****   else
1619:Drivers/STM32L4xx_HAL_Driver/Src/stm32l4xx_ll_usb.c ****   {
1620:Drivers/STM32L4xx_HAL_Driver/Src/stm32l4xx_ll_usb.c ****     HCcharEpDir = 0U;
 3910              		.loc 1 1620 17 view .LVU1320
 3911 005c 4FF00008 		mov	r8, #0
 3912              	.L241:
 3913              	.LVL288:
1621:Drivers/STM32L4xx_HAL_Driver/Src/stm32l4xx_ll_usb.c ****   }
1622:Drivers/STM32L4xx_HAL_Driver/Src/stm32l4xx_ll_usb.c **** 
1623:Drivers/STM32L4xx_HAL_Driver/Src/stm32l4xx_ll_usb.c ****   HostCoreSpeed = USB_GetHostSpeed(USBx);
 3914              		.loc 1 1623 3 is_stmt 1 view .LVU1321
 3915              		.loc 1 1623 19 is_stmt 0 view .LVU1322
 3916 0060 FFF7FEFF 		bl	USB_GetHostSpeed
 3917              	.LVL289:
1624:Drivers/STM32L4xx_HAL_Driver/Src/stm32l4xx_ll_usb.c **** 
1625:Drivers/STM32L4xx_HAL_Driver/Src/stm32l4xx_ll_usb.c ****   /* LS device plugged to HUB */
1626:Drivers/STM32L4xx_HAL_Driver/Src/stm32l4xx_ll_usb.c ****   if ((speed == HPRT0_PRTSPD_LOW_SPEED) && (HostCoreSpeed != HPRT0_PRTSPD_LOW_SPEED))
 3918              		.loc 1 1626 3 is_stmt 1 view .LVU1323
 3919              		.loc 1 1626 6 is_stmt 0 view .LVU1324
 3920 0064 9DF82030 		ldrb	r3, [sp, #32]	@ zero_extendqisi2
 3921 0068 022B     		cmp	r3, #2
 3922 006a 4BD0     		beq	.L255
1627:Drivers/STM32L4xx_HAL_Driver/Src/stm32l4xx_ll_usb.c ****   {
1628:Drivers/STM32L4xx_HAL_Driver/Src/stm32l4xx_ll_usb.c ****     HCcharLowSpeed = (0x1U << 17) & USB_OTG_HCCHAR_LSDEV;
1629:Drivers/STM32L4xx_HAL_Driver/Src/stm32l4xx_ll_usb.c ****   }
1630:Drivers/STM32L4xx_HAL_Driver/Src/stm32l4xx_ll_usb.c ****   else
1631:Drivers/STM32L4xx_HAL_Driver/Src/stm32l4xx_ll_usb.c ****   {
1632:Drivers/STM32L4xx_HAL_Driver/Src/stm32l4xx_ll_usb.c ****     HCcharLowSpeed = 0U;
 3923              		.loc 1 1632 20 view .LVU1325
 3924 006c 0022     		movs	r2, #0
 3925              	.L242:
 3926              	.LVL290:
1633:Drivers/STM32L4xx_HAL_Driver/Src/stm32l4xx_ll_usb.c ****   }
1634:Drivers/STM32L4xx_HAL_Driver/Src/stm32l4xx_ll_usb.c **** 
1635:Drivers/STM32L4xx_HAL_Driver/Src/stm32l4xx_ll_usb.c ****   USBx_HC((uint32_t)ch_num)->HCCHAR = (((uint32_t)dev_address << 22) & USB_OTG_HCCHAR_DAD) |
 3927              		.loc 1 1635 3 is_stmt 1 view .LVU1326
 3928              		.loc 1 1635 63 is_stmt 0 view .LVU1327
ARM GAS  /tmp/ccdWnOQF.s 			page 117


 3929 006e A305     		lsls	r3, r4, #22
 3930              		.loc 1 1635 70 view .LVU1328
 3931 0070 03F0FE53 		and	r3, r3, #532676608
1636:Drivers/STM32L4xx_HAL_Driver/Src/stm32l4xx_ll_usb.c ****                                       ((((uint32_t)epnum & 0x7FU) << 11) & USB_OTG_HCCHAR_EPNUM) |
 3932              		.loc 1 1636 67 view .LVU1329
 3933 0074 4FEAC929 		lsl	r9, r9, #11
 3934              		.loc 1 1636 74 view .LVU1330
 3935 0078 09F4F049 		and	r9, r9, #30720
1635:Drivers/STM32L4xx_HAL_Driver/Src/stm32l4xx_ll_usb.c ****                                       ((((uint32_t)epnum & 0x7FU) << 11) & USB_OTG_HCCHAR_EPNUM) |
 3936              		.loc 1 1635 92 view .LVU1331
 3937 007c 43EA0903 		orr	r3, r3, r9
1637:Drivers/STM32L4xx_HAL_Driver/Src/stm32l4xx_ll_usb.c ****                                       (((uint32_t)ep_type << 18) & USB_OTG_HCCHAR_EPTYP) |
 3938              		.loc 1 1637 59 view .LVU1332
 3939 0080 A904     		lsls	r1, r5, #18
 3940              		.loc 1 1637 66 view .LVU1333
 3941 0082 01F44021 		and	r1, r1, #786432
1636:Drivers/STM32L4xx_HAL_Driver/Src/stm32l4xx_ll_usb.c ****                                       ((((uint32_t)epnum & 0x7FU) << 11) & USB_OTG_HCCHAR_EPNUM) |
 3942              		.loc 1 1636 98 view .LVU1334
 3943 0086 0B43     		orrs	r3, r3, r1
1638:Drivers/STM32L4xx_HAL_Driver/Src/stm32l4xx_ll_usb.c ****                                       ((uint32_t)mps & USB_OTG_HCCHAR_MPSIZ) | HCcharEpDir | HCchar
 3944              		.loc 1 1638 54 view .LVU1335
 3945 0088 BDF82810 		ldrh	r1, [sp, #40]
 3946 008c C1F30A01 		ubfx	r1, r1, #0, #11
1637:Drivers/STM32L4xx_HAL_Driver/Src/stm32l4xx_ll_usb.c ****                                       (((uint32_t)ep_type << 18) & USB_OTG_HCCHAR_EPTYP) |
 3947              		.loc 1 1637 90 view .LVU1336
 3948 0090 0B43     		orrs	r3, r3, r1
 3949              		.loc 1 1638 78 view .LVU1337
 3950 0092 43EA0803 		orr	r3, r3, r8
 3951              		.loc 1 1638 92 view .LVU1338
 3952 0096 1343     		orrs	r3, r3, r2
1635:Drivers/STM32L4xx_HAL_Driver/Src/stm32l4xx_ll_usb.c ****                                       ((((uint32_t)epnum & 0x7FU) << 11) & USB_OTG_HCCHAR_EPNUM) |
 3953              		.loc 1 1635 37 view .LVU1339
 3954 0098 C6F80035 		str	r3, [r6, #1280]
1639:Drivers/STM32L4xx_HAL_Driver/Src/stm32l4xx_ll_usb.c **** 
1640:Drivers/STM32L4xx_HAL_Driver/Src/stm32l4xx_ll_usb.c ****   if ((ep_type == EP_TYPE_INTR) || (ep_type == EP_TYPE_ISOC))
 3955              		.loc 1 1640 3 is_stmt 1 view .LVU1340
 3956              		.loc 1 1640 6 is_stmt 0 view .LVU1341
 3957 009c 032D     		cmp	r5, #3
 3958 009e 01D0     		beq	.L243
 3959              		.loc 1 1640 33 discriminator 1 view .LVU1342
 3960 00a0 012D     		cmp	r5, #1
 3961 00a2 05D1     		bne	.L244
 3962              	.L243:
1641:Drivers/STM32L4xx_HAL_Driver/Src/stm32l4xx_ll_usb.c ****   {
1642:Drivers/STM32L4xx_HAL_Driver/Src/stm32l4xx_ll_usb.c ****     USBx_HC((uint32_t)ch_num)->HCCHAR |= USB_OTG_HCCHAR_ODDFRM;
 3963              		.loc 1 1642 5 is_stmt 1 view .LVU1343
 3964              		.loc 1 1642 30 is_stmt 0 view .LVU1344
 3965 00a4 D6F80035 		ldr	r3, [r6, #1280]
 3966              		.loc 1 1642 39 view .LVU1345
 3967 00a8 43F00053 		orr	r3, r3, #536870912
 3968 00ac C6F80035 		str	r3, [r6, #1280]
 3969              	.L244:
1643:Drivers/STM32L4xx_HAL_Driver/Src/stm32l4xx_ll_usb.c ****   }
1644:Drivers/STM32L4xx_HAL_Driver/Src/stm32l4xx_ll_usb.c **** 
1645:Drivers/STM32L4xx_HAL_Driver/Src/stm32l4xx_ll_usb.c ****   return ret;
 3970              		.loc 1 1645 3 is_stmt 1 view .LVU1346
1646:Drivers/STM32L4xx_HAL_Driver/Src/stm32l4xx_ll_usb.c **** }
ARM GAS  /tmp/ccdWnOQF.s 			page 118


 3971              		.loc 1 1646 1 is_stmt 0 view .LVU1347
 3972 00b0 3846     		mov	r0, r7
 3973              	.LVL291:
 3974              		.loc 1 1646 1 view .LVU1348
 3975 00b2 BDE8F883 		pop	{r3, r4, r5, r6, r7, r8, r9, pc}
 3976              	.LVL292:
 3977              	.L253:
1567:Drivers/STM32L4xx_HAL_Driver/Src/stm32l4xx_ll_usb.c ****       }
 3978              		.loc 1 1567 9 is_stmt 1 view .LVU1349
1567:Drivers/STM32L4xx_HAL_Driver/Src/stm32l4xx_ll_usb.c ****       }
 3979              		.loc 1 1567 34 is_stmt 0 view .LVU1350
 3980 00b6 DA68     		ldr	r2, [r3, #12]
1567:Drivers/STM32L4xx_HAL_Driver/Src/stm32l4xx_ll_usb.c ****       }
 3981              		.loc 1 1567 45 view .LVU1351
 3982 00b8 42F48072 		orr	r2, r2, #256
 3983 00bc DA60     		str	r2, [r3, #12]
1544:Drivers/STM32L4xx_HAL_Driver/Src/stm32l4xx_ll_usb.c ****   uint32_t USBx_BASE = (uint32_t)USBx;
 3984              		.loc 1 1544 21 view .LVU1352
 3985 00be 0027     		movs	r7, #0
 3986 00c0 B8E7     		b	.L236
 3987              	.L237:
1572:Drivers/STM32L4xx_HAL_Driver/Src/stm32l4xx_ll_usb.c ****                                             USB_OTG_HCINTMSK_STALLM |
 3988              		.loc 1 1572 7 is_stmt 1 view .LVU1353
1572:Drivers/STM32L4xx_HAL_Driver/Src/stm32l4xx_ll_usb.c ****                                             USB_OTG_HCINTMSK_STALLM |
 3989              		.loc 1 1572 43 is_stmt 0 view .LVU1354
 3990 00c2 40F29D62 		movw	r2, #1693
 3991 00c6 DA60     		str	r2, [r3, #12]
1580:Drivers/STM32L4xx_HAL_Driver/Src/stm32l4xx_ll_usb.c ****       {
 3992              		.loc 1 1580 7 is_stmt 1 view .LVU1355
1580:Drivers/STM32L4xx_HAL_Driver/Src/stm32l4xx_ll_usb.c ****       {
 3993              		.loc 1 1580 10 is_stmt 0 view .LVU1356
 3994 00c8 19F0800F 		tst	r9, #128
 3995 00cc 01D1     		bne	.L256
1544:Drivers/STM32L4xx_HAL_Driver/Src/stm32l4xx_ll_usb.c ****   uint32_t USBx_BASE = (uint32_t)USBx;
 3996              		.loc 1 1544 21 view .LVU1357
 3997 00ce 0027     		movs	r7, #0
 3998 00d0 B0E7     		b	.L236
 3999              	.L256:
1582:Drivers/STM32L4xx_HAL_Driver/Src/stm32l4xx_ll_usb.c ****       }
 4000              		.loc 1 1582 9 is_stmt 1 view .LVU1358
1582:Drivers/STM32L4xx_HAL_Driver/Src/stm32l4xx_ll_usb.c ****       }
 4001              		.loc 1 1582 34 is_stmt 0 view .LVU1359
 4002 00d2 DA68     		ldr	r2, [r3, #12]
1582:Drivers/STM32L4xx_HAL_Driver/Src/stm32l4xx_ll_usb.c ****       }
 4003              		.loc 1 1582 45 view .LVU1360
 4004 00d4 42F48072 		orr	r2, r2, #256
 4005 00d8 DA60     		str	r2, [r3, #12]
1544:Drivers/STM32L4xx_HAL_Driver/Src/stm32l4xx_ll_usb.c ****   uint32_t USBx_BASE = (uint32_t)USBx;
 4006              		.loc 1 1544 21 view .LVU1361
 4007 00da 0027     		movs	r7, #0
 4008 00dc AAE7     		b	.L236
 4009              	.L240:
1588:Drivers/STM32L4xx_HAL_Driver/Src/stm32l4xx_ll_usb.c ****                                             USB_OTG_HCINTMSK_ACKM   |
 4010              		.loc 1 1588 7 is_stmt 1 view .LVU1362
1588:Drivers/STM32L4xx_HAL_Driver/Src/stm32l4xx_ll_usb.c ****                                             USB_OTG_HCINTMSK_ACKM   |
 4011              		.loc 1 1588 43 is_stmt 0 view .LVU1363
 4012 00de 40F22522 		movw	r2, #549
ARM GAS  /tmp/ccdWnOQF.s 			page 119


 4013 00e2 DA60     		str	r2, [r3, #12]
1593:Drivers/STM32L4xx_HAL_Driver/Src/stm32l4xx_ll_usb.c ****       {
 4014              		.loc 1 1593 7 is_stmt 1 view .LVU1364
1593:Drivers/STM32L4xx_HAL_Driver/Src/stm32l4xx_ll_usb.c ****       {
 4015              		.loc 1 1593 10 is_stmt 0 view .LVU1365
 4016 00e4 19F0800F 		tst	r9, #128
 4017 00e8 01D1     		bne	.L257
1544:Drivers/STM32L4xx_HAL_Driver/Src/stm32l4xx_ll_usb.c ****   uint32_t USBx_BASE = (uint32_t)USBx;
 4018              		.loc 1 1544 21 view .LVU1366
 4019 00ea 0027     		movs	r7, #0
 4020 00ec A2E7     		b	.L236
 4021              	.L257:
1595:Drivers/STM32L4xx_HAL_Driver/Src/stm32l4xx_ll_usb.c ****       }
 4022              		.loc 1 1595 9 is_stmt 1 view .LVU1367
1595:Drivers/STM32L4xx_HAL_Driver/Src/stm32l4xx_ll_usb.c ****       }
 4023              		.loc 1 1595 34 is_stmt 0 view .LVU1368
 4024 00ee DA68     		ldr	r2, [r3, #12]
1595:Drivers/STM32L4xx_HAL_Driver/Src/stm32l4xx_ll_usb.c ****       }
 4025              		.loc 1 1595 45 view .LVU1369
 4026 00f0 42F4C072 		orr	r2, r2, #384
 4027 00f4 DA60     		str	r2, [r3, #12]
1544:Drivers/STM32L4xx_HAL_Driver/Src/stm32l4xx_ll_usb.c ****   uint32_t USBx_BASE = (uint32_t)USBx;
 4028              		.loc 1 1544 21 view .LVU1370
 4029 00f6 0027     		movs	r7, #0
 4030 00f8 9CE7     		b	.L236
 4031              	.L245:
1554:Drivers/STM32L4xx_HAL_Driver/Src/stm32l4xx_ll_usb.c ****   {
 4032              		.loc 1 1554 3 view .LVU1371
 4033 00fa 0127     		movs	r7, #1
 4034 00fc 9AE7     		b	.L236
 4035              	.LVL293:
 4036              	.L254:
1616:Drivers/STM32L4xx_HAL_Driver/Src/stm32l4xx_ll_usb.c ****   }
 4037              		.loc 1 1616 17 view .LVU1372
 4038 00fe 4FF40048 		mov	r8, #32768
 4039 0102 ADE7     		b	.L241
 4040              	.LVL294:
 4041              	.L255:
1626:Drivers/STM32L4xx_HAL_Driver/Src/stm32l4xx_ll_usb.c ****   {
 4042              		.loc 1 1626 41 discriminator 1 view .LVU1373
 4043 0104 0228     		cmp	r0, #2
 4044 0106 02D0     		beq	.L258
1628:Drivers/STM32L4xx_HAL_Driver/Src/stm32l4xx_ll_usb.c ****   }
 4045              		.loc 1 1628 20 view .LVU1374
 4046 0108 4FF40032 		mov	r2, #131072
 4047 010c AFE7     		b	.L242
 4048              	.L258:
1632:Drivers/STM32L4xx_HAL_Driver/Src/stm32l4xx_ll_usb.c ****   }
 4049              		.loc 1 1632 20 view .LVU1375
 4050 010e 0022     		movs	r2, #0
 4051 0110 ADE7     		b	.L242
 4052              		.cfi_endproc
 4053              	.LFE173:
 4055              		.section	.text.USB_HC_StartXfer,"ax",%progbits
 4056              		.align	1
 4057              		.global	USB_HC_StartXfer
 4058              		.syntax unified
ARM GAS  /tmp/ccdWnOQF.s 			page 120


 4059              		.thumb
 4060              		.thumb_func
 4062              	USB_HC_StartXfer:
 4063              	.LVL295:
 4064              	.LFB174:
1647:Drivers/STM32L4xx_HAL_Driver/Src/stm32l4xx_ll_usb.c **** 
1648:Drivers/STM32L4xx_HAL_Driver/Src/stm32l4xx_ll_usb.c **** /**
1649:Drivers/STM32L4xx_HAL_Driver/Src/stm32l4xx_ll_usb.c ****   * @brief  Start a transfer over a host channel
1650:Drivers/STM32L4xx_HAL_Driver/Src/stm32l4xx_ll_usb.c ****   * @param  USBx  Selected device
1651:Drivers/STM32L4xx_HAL_Driver/Src/stm32l4xx_ll_usb.c ****   * @param  hc  pointer to host channel structure
1652:Drivers/STM32L4xx_HAL_Driver/Src/stm32l4xx_ll_usb.c ****   * @retval HAL state
1653:Drivers/STM32L4xx_HAL_Driver/Src/stm32l4xx_ll_usb.c ****   */
1654:Drivers/STM32L4xx_HAL_Driver/Src/stm32l4xx_ll_usb.c **** HAL_StatusTypeDef USB_HC_StartXfer(USB_OTG_GlobalTypeDef *USBx, USB_OTG_HCTypeDef *hc)
1655:Drivers/STM32L4xx_HAL_Driver/Src/stm32l4xx_ll_usb.c **** {
 4065              		.loc 1 1655 1 is_stmt 1 view -0
 4066              		.cfi_startproc
 4067              		@ args = 0, pretend = 0, frame = 8
 4068              		@ frame_needed = 0, uses_anonymous_args = 0
 4069              		.loc 1 1655 1 is_stmt 0 view .LVU1377
 4070 0000 10B5     		push	{r4, lr}
 4071              		.cfi_def_cfa_offset 8
 4072              		.cfi_offset 4, -8
 4073              		.cfi_offset 14, -4
 4074 0002 82B0     		sub	sp, sp, #8
 4075              		.cfi_def_cfa_offset 16
1656:Drivers/STM32L4xx_HAL_Driver/Src/stm32l4xx_ll_usb.c ****   uint32_t USBx_BASE = (uint32_t)USBx;
 4076              		.loc 1 1656 3 is_stmt 1 view .LVU1378
 4077              	.LVL296:
1657:Drivers/STM32L4xx_HAL_Driver/Src/stm32l4xx_ll_usb.c ****   uint32_t ch_num = (uint32_t)hc->ch_num;
 4078              		.loc 1 1657 3 view .LVU1379
 4079              		.loc 1 1657 33 is_stmt 0 view .LVU1380
 4080 0004 4B78     		ldrb	r3, [r1, #1]	@ zero_extendqisi2
 4081              	.LVL297:
1658:Drivers/STM32L4xx_HAL_Driver/Src/stm32l4xx_ll_usb.c ****   __IO uint32_t tmpreg;
 4082              		.loc 1 1658 3 is_stmt 1 view .LVU1381
1659:Drivers/STM32L4xx_HAL_Driver/Src/stm32l4xx_ll_usb.c ****   uint8_t  is_oddframe;
 4083              		.loc 1 1659 3 view .LVU1382
1660:Drivers/STM32L4xx_HAL_Driver/Src/stm32l4xx_ll_usb.c ****   uint16_t len_words;
 4084              		.loc 1 1660 3 view .LVU1383
1661:Drivers/STM32L4xx_HAL_Driver/Src/stm32l4xx_ll_usb.c ****   uint16_t num_packets;
 4085              		.loc 1 1661 3 view .LVU1384
1662:Drivers/STM32L4xx_HAL_Driver/Src/stm32l4xx_ll_usb.c ****   uint16_t max_hc_pkt_count = 256U;
 4086              		.loc 1 1662 3 view .LVU1385
1663:Drivers/STM32L4xx_HAL_Driver/Src/stm32l4xx_ll_usb.c **** 
1664:Drivers/STM32L4xx_HAL_Driver/Src/stm32l4xx_ll_usb.c ****   /* Compute the expected number of packets associated to the transfer */
1665:Drivers/STM32L4xx_HAL_Driver/Src/stm32l4xx_ll_usb.c ****   if (hc->xfer_len > 0U)
 4087              		.loc 1 1665 3 view .LVU1386
 4088              		.loc 1 1665 9 is_stmt 0 view .LVU1387
 4089 0006 4A69     		ldr	r2, [r1, #20]
 4090              		.loc 1 1665 6 view .LVU1388
 4091 0008 82B1     		cbz	r2, .L270
1666:Drivers/STM32L4xx_HAL_Driver/Src/stm32l4xx_ll_usb.c ****   {
1667:Drivers/STM32L4xx_HAL_Driver/Src/stm32l4xx_ll_usb.c ****     num_packets = (uint16_t)((hc->xfer_len + hc->max_packet - 1U) / hc->max_packet);
 4092              		.loc 1 1667 5 is_stmt 1 view .LVU1389
 4093              		.loc 1 1667 48 is_stmt 0 view .LVU1390
 4094 000a 0C89     		ldrh	r4, [r1, #8]
 4095              		.loc 1 1667 44 view .LVU1391
ARM GAS  /tmp/ccdWnOQF.s 			page 121


 4096 000c 02EB040C 		add	ip, r2, r4
 4097              		.loc 1 1667 61 view .LVU1392
 4098 0010 0CF1FF3C 		add	ip, ip, #-1
 4099              		.loc 1 1667 67 view .LVU1393
 4100 0014 BCFBF4FC 		udiv	ip, ip, r4
 4101              		.loc 1 1667 17 view .LVU1394
 4102 0018 1FFA8CFC 		uxth	ip, ip
 4103              	.LVL298:
1668:Drivers/STM32L4xx_HAL_Driver/Src/stm32l4xx_ll_usb.c **** 
1669:Drivers/STM32L4xx_HAL_Driver/Src/stm32l4xx_ll_usb.c ****     if (num_packets > max_hc_pkt_count)
 4104              		.loc 1 1669 5 is_stmt 1 view .LVU1395
 4105              		.loc 1 1669 8 is_stmt 0 view .LVU1396
 4106 001c BCF5807F 		cmp	ip, #256
 4107 0020 06D9     		bls	.L260
1670:Drivers/STM32L4xx_HAL_Driver/Src/stm32l4xx_ll_usb.c ****     {
1671:Drivers/STM32L4xx_HAL_Driver/Src/stm32l4xx_ll_usb.c ****       num_packets = max_hc_pkt_count;
 4108              		.loc 1 1671 7 is_stmt 1 view .LVU1397
 4109              	.LVL299:
1672:Drivers/STM32L4xx_HAL_Driver/Src/stm32l4xx_ll_usb.c ****       hc->XferSize = (uint32_t)num_packets * hc->max_packet;
 4110              		.loc 1 1672 7 view .LVU1398
 4111              		.loc 1 1672 44 is_stmt 0 view .LVU1399
 4112 0022 2402     		lsls	r4, r4, #8
 4113              		.loc 1 1672 20 view .LVU1400
 4114 0024 0C61     		str	r4, [r1, #16]
1671:Drivers/STM32L4xx_HAL_Driver/Src/stm32l4xx_ll_usb.c ****       hc->XferSize = (uint32_t)num_packets * hc->max_packet;
 4115              		.loc 1 1671 19 view .LVU1401
 4116 0026 4FF4807C 		mov	ip, #256
 4117 002a 01E0     		b	.L260
 4118              	.LVL300:
 4119              	.L270:
1673:Drivers/STM32L4xx_HAL_Driver/Src/stm32l4xx_ll_usb.c ****     }
1674:Drivers/STM32L4xx_HAL_Driver/Src/stm32l4xx_ll_usb.c ****   }
1675:Drivers/STM32L4xx_HAL_Driver/Src/stm32l4xx_ll_usb.c ****   else
1676:Drivers/STM32L4xx_HAL_Driver/Src/stm32l4xx_ll_usb.c ****   {
1677:Drivers/STM32L4xx_HAL_Driver/Src/stm32l4xx_ll_usb.c ****     num_packets = 1U;
 4120              		.loc 1 1677 17 view .LVU1402
 4121 002c 4FF0010C 		mov	ip, #1
 4122              	.L260:
 4123              	.LVL301:
1678:Drivers/STM32L4xx_HAL_Driver/Src/stm32l4xx_ll_usb.c ****   }
1679:Drivers/STM32L4xx_HAL_Driver/Src/stm32l4xx_ll_usb.c **** 
1680:Drivers/STM32L4xx_HAL_Driver/Src/stm32l4xx_ll_usb.c ****   /*
1681:Drivers/STM32L4xx_HAL_Driver/Src/stm32l4xx_ll_usb.c ****    * For IN channel HCTSIZ.XferSize is expected to be an integer multiple of
1682:Drivers/STM32L4xx_HAL_Driver/Src/stm32l4xx_ll_usb.c ****    * max_packet size.
1683:Drivers/STM32L4xx_HAL_Driver/Src/stm32l4xx_ll_usb.c ****    */
1684:Drivers/STM32L4xx_HAL_Driver/Src/stm32l4xx_ll_usb.c ****   if (hc->ep_is_in != 0U)
 4124              		.loc 1 1684 3 is_stmt 1 view .LVU1403
 4125              		.loc 1 1684 9 is_stmt 0 view .LVU1404
 4126 0030 CC78     		ldrb	r4, [r1, #3]	@ zero_extendqisi2
 4127              		.loc 1 1684 6 view .LVU1405
 4128 0032 002C     		cmp	r4, #0
 4129 0034 4CD0     		beq	.L261
1685:Drivers/STM32L4xx_HAL_Driver/Src/stm32l4xx_ll_usb.c ****   {
1686:Drivers/STM32L4xx_HAL_Driver/Src/stm32l4xx_ll_usb.c ****     hc->XferSize = (uint32_t)num_packets * hc->max_packet;
 4130              		.loc 1 1686 5 is_stmt 1 view .LVU1406
 4131              		.loc 1 1686 46 is_stmt 0 view .LVU1407
 4132 0036 0A89     		ldrh	r2, [r1, #8]
ARM GAS  /tmp/ccdWnOQF.s 			page 122


 4133              		.loc 1 1686 42 view .LVU1408
 4134 0038 02FB0CF2 		mul	r2, r2, ip
 4135              		.loc 1 1686 18 view .LVU1409
 4136 003c 0A61     		str	r2, [r1, #16]
 4137              	.L262:
1687:Drivers/STM32L4xx_HAL_Driver/Src/stm32l4xx_ll_usb.c ****   }
1688:Drivers/STM32L4xx_HAL_Driver/Src/stm32l4xx_ll_usb.c ****   else
1689:Drivers/STM32L4xx_HAL_Driver/Src/stm32l4xx_ll_usb.c ****   {
1690:Drivers/STM32L4xx_HAL_Driver/Src/stm32l4xx_ll_usb.c ****     hc->XferSize = hc->xfer_len;
1691:Drivers/STM32L4xx_HAL_Driver/Src/stm32l4xx_ll_usb.c ****   }
1692:Drivers/STM32L4xx_HAL_Driver/Src/stm32l4xx_ll_usb.c **** 
1693:Drivers/STM32L4xx_HAL_Driver/Src/stm32l4xx_ll_usb.c ****   /* Initialize the HCTSIZn register */
1694:Drivers/STM32L4xx_HAL_Driver/Src/stm32l4xx_ll_usb.c ****   USBx_HC(ch_num)->HCTSIZ = (hc->XferSize & USB_OTG_HCTSIZ_XFRSIZ) |
 4138              		.loc 1 1694 3 is_stmt 1 view .LVU1410
 4139              		.loc 1 1694 32 is_stmt 0 view .LVU1411
 4140 003e 0A69     		ldr	r2, [r1, #16]
 4141              		.loc 1 1694 43 view .LVU1412
 4142 0040 C2F31202 		ubfx	r2, r2, #0, #19
1695:Drivers/STM32L4xx_HAL_Driver/Src/stm32l4xx_ll_usb.c ****                             (((uint32_t)num_packets << 19) & USB_OTG_HCTSIZ_PKTCNT) |
 4143              		.loc 1 1695 60 view .LVU1413
 4144 0044 354C     		ldr	r4, .L273
 4145 0046 04EACC4C 		and	ip, r4, ip, lsl #19
 4146              	.LVL302:
1694:Drivers/STM32L4xx_HAL_Driver/Src/stm32l4xx_ll_usb.c ****                             (((uint32_t)num_packets << 19) & USB_OTG_HCTSIZ_PKTCNT) |
 4147              		.loc 1 1694 68 view .LVU1414
 4148 004a 42EA0C02 		orr	r2, r2, ip
1696:Drivers/STM32L4xx_HAL_Driver/Src/stm32l4xx_ll_usb.c ****                             (((uint32_t)hc->data_pid << 29) & USB_OTG_HCTSIZ_DPID);
 4149              		.loc 1 1696 43 view .LVU1415
 4150 004e 91F80AC0 		ldrb	ip, [r1, #10]	@ zero_extendqisi2
 4151              		.loc 1 1696 54 view .LVU1416
 4152 0052 4FEA4C7C 		lsl	ip, ip, #29
 4153              		.loc 1 1696 61 view .LVU1417
 4154 0056 0CF0C04C 		and	ip, ip, #1610612736
1694:Drivers/STM32L4xx_HAL_Driver/Src/stm32l4xx_ll_usb.c ****                             (((uint32_t)num_packets << 19) & USB_OTG_HCTSIZ_PKTCNT) |
 4155              		.loc 1 1694 3 view .LVU1418
 4156 005a 00EB4313 		add	r3, r0, r3, lsl #5
 4157              	.LVL303:
1695:Drivers/STM32L4xx_HAL_Driver/Src/stm32l4xx_ll_usb.c ****                             (((uint32_t)num_packets << 19) & USB_OTG_HCTSIZ_PKTCNT) |
 4158              		.loc 1 1695 85 view .LVU1419
 4159 005e 42EA0C02 		orr	r2, r2, ip
1694:Drivers/STM32L4xx_HAL_Driver/Src/stm32l4xx_ll_usb.c ****                             (((uint32_t)num_packets << 19) & USB_OTG_HCTSIZ_PKTCNT) |
 4160              		.loc 1 1694 27 view .LVU1420
 4161 0062 C3F81025 		str	r2, [r3, #1296]
 4162              	.LVL304:
1697:Drivers/STM32L4xx_HAL_Driver/Src/stm32l4xx_ll_usb.c **** 
1698:Drivers/STM32L4xx_HAL_Driver/Src/stm32l4xx_ll_usb.c ****   is_oddframe = (((uint32_t)USBx_HOST->HFNUM & 0x01U) != 0U) ? 0U : 1U;
 4163              		.loc 1 1698 3 is_stmt 1 view .LVU1421
 4164              		.loc 1 1698 29 is_stmt 0 view .LVU1422
 4165 0066 00F58064 		add	r4, r0, #1024
 4166              		.loc 1 1698 38 view .LVU1423
 4167 006a A268     		ldr	r2, [r4, #8]
 4168              		.loc 1 1698 67 view .LVU1424
 4169 006c 12F0010F 		tst	r2, #1
 4170 0070 0CBF     		ite	eq
 4171 0072 4FF0010C 		moveq	ip, #1
 4172 0076 4FF0000C 		movne	ip, #0
 4173              	.LVL305:
ARM GAS  /tmp/ccdWnOQF.s 			page 123


1699:Drivers/STM32L4xx_HAL_Driver/Src/stm32l4xx_ll_usb.c ****   USBx_HC(ch_num)->HCCHAR &= ~USB_OTG_HCCHAR_ODDFRM;
 4174              		.loc 1 1699 3 is_stmt 1 view .LVU1425
 4175              		.loc 1 1699 18 is_stmt 0 view .LVU1426
 4176 007a D3F80025 		ldr	r2, [r3, #1280]
 4177              		.loc 1 1699 27 view .LVU1427
 4178 007e 22F00052 		bic	r2, r2, #536870912
 4179 0082 C3F80025 		str	r2, [r3, #1280]
1700:Drivers/STM32L4xx_HAL_Driver/Src/stm32l4xx_ll_usb.c ****   USBx_HC(ch_num)->HCCHAR |= (uint32_t)is_oddframe << 29;
 4180              		.loc 1 1700 3 is_stmt 1 view .LVU1428
 4181              		.loc 1 1700 18 is_stmt 0 view .LVU1429
 4182 0086 D3F80025 		ldr	r2, [r3, #1280]
 4183              		.loc 1 1700 27 view .LVU1430
 4184 008a 42EA4C72 		orr	r2, r2, ip, lsl #29
 4185 008e C3F80025 		str	r2, [r3, #1280]
1701:Drivers/STM32L4xx_HAL_Driver/Src/stm32l4xx_ll_usb.c **** 
1702:Drivers/STM32L4xx_HAL_Driver/Src/stm32l4xx_ll_usb.c ****   /* Set host channel enable */
1703:Drivers/STM32L4xx_HAL_Driver/Src/stm32l4xx_ll_usb.c ****   tmpreg = USBx_HC(ch_num)->HCCHAR;
 4186              		.loc 1 1703 3 is_stmt 1 view .LVU1431
 4187              		.loc 1 1703 27 is_stmt 0 view .LVU1432
 4188 0092 D3F80025 		ldr	r2, [r3, #1280]
 4189              		.loc 1 1703 10 view .LVU1433
 4190 0096 0192     		str	r2, [sp, #4]
1704:Drivers/STM32L4xx_HAL_Driver/Src/stm32l4xx_ll_usb.c ****   tmpreg &= ~USB_OTG_HCCHAR_CHDIS;
 4191              		.loc 1 1704 3 is_stmt 1 view .LVU1434
 4192              		.loc 1 1704 10 is_stmt 0 view .LVU1435
 4193 0098 019A     		ldr	r2, [sp, #4]
 4194 009a 22F08042 		bic	r2, r2, #1073741824
 4195 009e 0192     		str	r2, [sp, #4]
1705:Drivers/STM32L4xx_HAL_Driver/Src/stm32l4xx_ll_usb.c **** 
1706:Drivers/STM32L4xx_HAL_Driver/Src/stm32l4xx_ll_usb.c ****   /* make sure to set the correct ep direction */
1707:Drivers/STM32L4xx_HAL_Driver/Src/stm32l4xx_ll_usb.c ****   if (hc->ep_is_in != 0U)
 4196              		.loc 1 1707 3 is_stmt 1 view .LVU1436
 4197              		.loc 1 1707 9 is_stmt 0 view .LVU1437
 4198 00a0 CA78     		ldrb	r2, [r1, #3]	@ zero_extendqisi2
 4199              		.loc 1 1707 6 view .LVU1438
 4200 00a2 BAB1     		cbz	r2, .L263
1708:Drivers/STM32L4xx_HAL_Driver/Src/stm32l4xx_ll_usb.c ****   {
1709:Drivers/STM32L4xx_HAL_Driver/Src/stm32l4xx_ll_usb.c ****     tmpreg |= USB_OTG_HCCHAR_EPDIR;
 4201              		.loc 1 1709 5 is_stmt 1 view .LVU1439
 4202              		.loc 1 1709 12 is_stmt 0 view .LVU1440
 4203 00a4 019A     		ldr	r2, [sp, #4]
 4204 00a6 42F40042 		orr	r2, r2, #32768
 4205 00aa 0192     		str	r2, [sp, #4]
 4206              	.L264:
1710:Drivers/STM32L4xx_HAL_Driver/Src/stm32l4xx_ll_usb.c ****   }
1711:Drivers/STM32L4xx_HAL_Driver/Src/stm32l4xx_ll_usb.c ****   else
1712:Drivers/STM32L4xx_HAL_Driver/Src/stm32l4xx_ll_usb.c ****   {
1713:Drivers/STM32L4xx_HAL_Driver/Src/stm32l4xx_ll_usb.c ****     tmpreg &= ~USB_OTG_HCCHAR_EPDIR;
1714:Drivers/STM32L4xx_HAL_Driver/Src/stm32l4xx_ll_usb.c ****   }
1715:Drivers/STM32L4xx_HAL_Driver/Src/stm32l4xx_ll_usb.c ****   tmpreg |= USB_OTG_HCCHAR_CHENA;
 4207              		.loc 1 1715 3 is_stmt 1 view .LVU1441
 4208              		.loc 1 1715 10 is_stmt 0 view .LVU1442
 4209 00ac 019A     		ldr	r2, [sp, #4]
 4210 00ae 42F00042 		orr	r2, r2, #-2147483648
 4211 00b2 0192     		str	r2, [sp, #4]
1716:Drivers/STM32L4xx_HAL_Driver/Src/stm32l4xx_ll_usb.c ****   USBx_HC(ch_num)->HCCHAR = tmpreg;
 4212              		.loc 1 1716 3 is_stmt 1 view .LVU1443
ARM GAS  /tmp/ccdWnOQF.s 			page 124


 4213              		.loc 1 1716 27 is_stmt 0 view .LVU1444
 4214 00b4 019A     		ldr	r2, [sp, #4]
 4215 00b6 C3F80025 		str	r2, [r3, #1280]
1717:Drivers/STM32L4xx_HAL_Driver/Src/stm32l4xx_ll_usb.c **** 
1718:Drivers/STM32L4xx_HAL_Driver/Src/stm32l4xx_ll_usb.c ****   if ((hc->ep_is_in == 0U) && (hc->xfer_len > 0U))
 4216              		.loc 1 1718 3 is_stmt 1 view .LVU1445
 4217              		.loc 1 1718 10 is_stmt 0 view .LVU1446
 4218 00ba CB78     		ldrb	r3, [r1, #3]	@ zero_extendqisi2
 4219              		.loc 1 1718 6 view .LVU1447
 4220 00bc FBB9     		cbnz	r3, .L265
 4221              		.loc 1 1718 34 discriminator 1 view .LVU1448
 4222 00be 4B69     		ldr	r3, [r1, #20]
 4223              		.loc 1 1718 28 discriminator 1 view .LVU1449
 4224 00c0 EBB1     		cbz	r3, .L265
1719:Drivers/STM32L4xx_HAL_Driver/Src/stm32l4xx_ll_usb.c ****   {
1720:Drivers/STM32L4xx_HAL_Driver/Src/stm32l4xx_ll_usb.c ****     switch (hc->ep_type)
 4225              		.loc 1 1720 5 is_stmt 1 view .LVU1450
 4226              		.loc 1 1720 15 is_stmt 0 view .LVU1451
 4227 00c2 CA79     		ldrb	r2, [r1, #7]	@ zero_extendqisi2
 4228              		.loc 1 1720 5 view .LVU1452
 4229 00c4 032A     		cmp	r2, #3
 4230 00c6 15D8     		bhi	.L266
 4231 00c8 DFE802F0 		tbb	[pc, r2]
 4232              	.LVL306:
 4233              	.L268:
 4234 00cc 09       		.byte	(.L269-.L268)/2
 4235 00cd 1C       		.byte	(.L267-.L268)/2
 4236 00ce 09       		.byte	(.L269-.L268)/2
 4237 00cf 1C       		.byte	(.L267-.L268)/2
 4238              		.p2align 1
 4239              	.L261:
1690:Drivers/STM32L4xx_HAL_Driver/Src/stm32l4xx_ll_usb.c ****   }
 4240              		.loc 1 1690 5 is_stmt 1 view .LVU1453
1690:Drivers/STM32L4xx_HAL_Driver/Src/stm32l4xx_ll_usb.c ****   }
 4241              		.loc 1 1690 18 is_stmt 0 view .LVU1454
 4242 00d0 0A61     		str	r2, [r1, #16]
 4243 00d2 B4E7     		b	.L262
 4244              	.LVL307:
 4245              	.L263:
1713:Drivers/STM32L4xx_HAL_Driver/Src/stm32l4xx_ll_usb.c ****   }
 4246              		.loc 1 1713 5 is_stmt 1 view .LVU1455
1713:Drivers/STM32L4xx_HAL_Driver/Src/stm32l4xx_ll_usb.c ****   }
 4247              		.loc 1 1713 12 is_stmt 0 view .LVU1456
 4248 00d4 019A     		ldr	r2, [sp, #4]
 4249 00d6 22F40042 		bic	r2, r2, #32768
 4250 00da 0192     		str	r2, [sp, #4]
 4251 00dc E6E7     		b	.L264
 4252              	.LVL308:
 4253              	.L269:
1721:Drivers/STM32L4xx_HAL_Driver/Src/stm32l4xx_ll_usb.c ****     {
1722:Drivers/STM32L4xx_HAL_Driver/Src/stm32l4xx_ll_usb.c ****       /* Non periodic transfer */
1723:Drivers/STM32L4xx_HAL_Driver/Src/stm32l4xx_ll_usb.c ****       case EP_TYPE_CTRL:
1724:Drivers/STM32L4xx_HAL_Driver/Src/stm32l4xx_ll_usb.c ****       case EP_TYPE_BULK:
1725:Drivers/STM32L4xx_HAL_Driver/Src/stm32l4xx_ll_usb.c **** 
1726:Drivers/STM32L4xx_HAL_Driver/Src/stm32l4xx_ll_usb.c ****         len_words = (uint16_t)((hc->xfer_len + 3U) / 4U);
 4254              		.loc 1 1726 9 is_stmt 1 view .LVU1457
 4255              		.loc 1 1726 46 is_stmt 0 view .LVU1458
ARM GAS  /tmp/ccdWnOQF.s 			page 125


 4256 00de 0333     		adds	r3, r3, #3
 4257              	.LVL309:
1727:Drivers/STM32L4xx_HAL_Driver/Src/stm32l4xx_ll_usb.c **** 
1728:Drivers/STM32L4xx_HAL_Driver/Src/stm32l4xx_ll_usb.c ****         /* check if there is enough space in FIFO space */
1729:Drivers/STM32L4xx_HAL_Driver/Src/stm32l4xx_ll_usb.c ****         if (len_words > (USBx->HNPTXSTS & 0xFFFFU))
 4258              		.loc 1 1729 9 is_stmt 1 view .LVU1459
 4259              		.loc 1 1729 30 is_stmt 0 view .LVU1460
 4260 00e0 C26A     		ldr	r2, [r0, #44]
 4261              		.loc 1 1729 41 view .LVU1461
 4262 00e2 92B2     		uxth	r2, r2
 4263              		.loc 1 1729 12 view .LVU1462
 4264 00e4 C3F38F03 		ubfx	r3, r3, #2, #16
 4265              	.LVL310:
 4266              		.loc 1 1729 12 view .LVU1463
 4267 00e8 9A42     		cmp	r2, r3
 4268 00ea 03D2     		bcs	.L266
1730:Drivers/STM32L4xx_HAL_Driver/Src/stm32l4xx_ll_usb.c ****         {
1731:Drivers/STM32L4xx_HAL_Driver/Src/stm32l4xx_ll_usb.c ****           /* need to process data in nptxfempty interrupt */
1732:Drivers/STM32L4xx_HAL_Driver/Src/stm32l4xx_ll_usb.c ****           USBx->GINTMSK |= USB_OTG_GINTMSK_NPTXFEM;
 4269              		.loc 1 1732 11 is_stmt 1 view .LVU1464
 4270              		.loc 1 1732 15 is_stmt 0 view .LVU1465
 4271 00ec 8369     		ldr	r3, [r0, #24]
 4272              		.loc 1 1732 25 view .LVU1466
 4273 00ee 43F02003 		orr	r3, r3, #32
 4274 00f2 8361     		str	r3, [r0, #24]
 4275              	.LVL311:
 4276              	.L266:
1733:Drivers/STM32L4xx_HAL_Driver/Src/stm32l4xx_ll_usb.c ****         }
1734:Drivers/STM32L4xx_HAL_Driver/Src/stm32l4xx_ll_usb.c ****         break;
1735:Drivers/STM32L4xx_HAL_Driver/Src/stm32l4xx_ll_usb.c **** 
1736:Drivers/STM32L4xx_HAL_Driver/Src/stm32l4xx_ll_usb.c ****       /* Periodic transfer */
1737:Drivers/STM32L4xx_HAL_Driver/Src/stm32l4xx_ll_usb.c ****       case EP_TYPE_INTR:
1738:Drivers/STM32L4xx_HAL_Driver/Src/stm32l4xx_ll_usb.c ****       case EP_TYPE_ISOC:
1739:Drivers/STM32L4xx_HAL_Driver/Src/stm32l4xx_ll_usb.c ****         len_words = (uint16_t)((hc->xfer_len + 3U) / 4U);
1740:Drivers/STM32L4xx_HAL_Driver/Src/stm32l4xx_ll_usb.c ****         /* check if there is enough space in FIFO space */
1741:Drivers/STM32L4xx_HAL_Driver/Src/stm32l4xx_ll_usb.c ****         if (len_words > (USBx_HOST->HPTXSTS & 0xFFFFU)) /* split the transfer */
1742:Drivers/STM32L4xx_HAL_Driver/Src/stm32l4xx_ll_usb.c ****         {
1743:Drivers/STM32L4xx_HAL_Driver/Src/stm32l4xx_ll_usb.c ****           /* need to process data in ptxfempty interrupt */
1744:Drivers/STM32L4xx_HAL_Driver/Src/stm32l4xx_ll_usb.c ****           USBx->GINTMSK |= USB_OTG_GINTMSK_PTXFEM;
1745:Drivers/STM32L4xx_HAL_Driver/Src/stm32l4xx_ll_usb.c ****         }
1746:Drivers/STM32L4xx_HAL_Driver/Src/stm32l4xx_ll_usb.c ****         break;
1747:Drivers/STM32L4xx_HAL_Driver/Src/stm32l4xx_ll_usb.c **** 
1748:Drivers/STM32L4xx_HAL_Driver/Src/stm32l4xx_ll_usb.c ****       default:
1749:Drivers/STM32L4xx_HAL_Driver/Src/stm32l4xx_ll_usb.c ****         break;
1750:Drivers/STM32L4xx_HAL_Driver/Src/stm32l4xx_ll_usb.c ****     }
1751:Drivers/STM32L4xx_HAL_Driver/Src/stm32l4xx_ll_usb.c **** 
1752:Drivers/STM32L4xx_HAL_Driver/Src/stm32l4xx_ll_usb.c ****     /* Write packet into the Tx FIFO. */
1753:Drivers/STM32L4xx_HAL_Driver/Src/stm32l4xx_ll_usb.c ****     (void)USB_WritePacket(USBx, hc->xfer_buff, hc->ch_num, (uint16_t)hc->xfer_len);
 4277              		.loc 1 1753 5 is_stmt 1 view .LVU1467
 4278              		.loc 1 1753 11 is_stmt 0 view .LVU1468
 4279 00f4 8B8A     		ldrh	r3, [r1, #20]
 4280 00f6 4A78     		ldrb	r2, [r1, #1]	@ zero_extendqisi2
 4281 00f8 C968     		ldr	r1, [r1, #12]
 4282              	.LVL312:
 4283              		.loc 1 1753 11 view .LVU1469
 4284 00fa FFF7FEFF 		bl	USB_WritePacket
 4285              	.LVL313:
ARM GAS  /tmp/ccdWnOQF.s 			page 126


 4286              	.L265:
1754:Drivers/STM32L4xx_HAL_Driver/Src/stm32l4xx_ll_usb.c ****   }
1755:Drivers/STM32L4xx_HAL_Driver/Src/stm32l4xx_ll_usb.c **** 
1756:Drivers/STM32L4xx_HAL_Driver/Src/stm32l4xx_ll_usb.c ****   return HAL_OK;
 4287              		.loc 1 1756 3 is_stmt 1 view .LVU1470
1757:Drivers/STM32L4xx_HAL_Driver/Src/stm32l4xx_ll_usb.c **** }
 4288              		.loc 1 1757 1 is_stmt 0 view .LVU1471
 4289 00fe 0020     		movs	r0, #0
 4290 0100 02B0     		add	sp, sp, #8
 4291              		.cfi_remember_state
 4292              		.cfi_def_cfa_offset 8
 4293              		@ sp needed
 4294 0102 10BD     		pop	{r4, pc}
 4295              	.LVL314:
 4296              	.L267:
 4297              		.cfi_restore_state
1739:Drivers/STM32L4xx_HAL_Driver/Src/stm32l4xx_ll_usb.c ****         /* check if there is enough space in FIFO space */
 4298              		.loc 1 1739 9 is_stmt 1 view .LVU1472
1739:Drivers/STM32L4xx_HAL_Driver/Src/stm32l4xx_ll_usb.c ****         /* check if there is enough space in FIFO space */
 4299              		.loc 1 1739 46 is_stmt 0 view .LVU1473
 4300 0104 0333     		adds	r3, r3, #3
 4301              	.LVL315:
1741:Drivers/STM32L4xx_HAL_Driver/Src/stm32l4xx_ll_usb.c ****         {
 4302              		.loc 1 1741 9 is_stmt 1 view .LVU1474
1741:Drivers/STM32L4xx_HAL_Driver/Src/stm32l4xx_ll_usb.c ****         {
 4303              		.loc 1 1741 35 is_stmt 0 view .LVU1475
 4304 0106 2269     		ldr	r2, [r4, #16]
1741:Drivers/STM32L4xx_HAL_Driver/Src/stm32l4xx_ll_usb.c ****         {
 4305              		.loc 1 1741 45 view .LVU1476
 4306 0108 92B2     		uxth	r2, r2
1741:Drivers/STM32L4xx_HAL_Driver/Src/stm32l4xx_ll_usb.c ****         {
 4307              		.loc 1 1741 12 view .LVU1477
 4308 010a C3F38F03 		ubfx	r3, r3, #2, #16
 4309              	.LVL316:
1741:Drivers/STM32L4xx_HAL_Driver/Src/stm32l4xx_ll_usb.c ****         {
 4310              		.loc 1 1741 12 view .LVU1478
 4311 010e 9A42     		cmp	r2, r3
 4312 0110 F0D2     		bcs	.L266
1744:Drivers/STM32L4xx_HAL_Driver/Src/stm32l4xx_ll_usb.c ****         }
 4313              		.loc 1 1744 11 is_stmt 1 view .LVU1479
1744:Drivers/STM32L4xx_HAL_Driver/Src/stm32l4xx_ll_usb.c ****         }
 4314              		.loc 1 1744 15 is_stmt 0 view .LVU1480
 4315 0112 8369     		ldr	r3, [r0, #24]
1744:Drivers/STM32L4xx_HAL_Driver/Src/stm32l4xx_ll_usb.c ****         }
 4316              		.loc 1 1744 25 view .LVU1481
 4317 0114 43F08063 		orr	r3, r3, #67108864
 4318 0118 8361     		str	r3, [r0, #24]
 4319              	.LVL317:
1744:Drivers/STM32L4xx_HAL_Driver/Src/stm32l4xx_ll_usb.c ****         }
 4320              		.loc 1 1744 25 view .LVU1482
 4321 011a EBE7     		b	.L266
 4322              	.L274:
 4323              		.align	2
 4324              	.L273:
 4325 011c 0000F81F 		.word	536346624
 4326              		.cfi_endproc
 4327              	.LFE174:
ARM GAS  /tmp/ccdWnOQF.s 			page 127


 4329              		.section	.text.USB_HC_ReadInterrupt,"ax",%progbits
 4330              		.align	1
 4331              		.global	USB_HC_ReadInterrupt
 4332              		.syntax unified
 4333              		.thumb
 4334              		.thumb_func
 4336              	USB_HC_ReadInterrupt:
 4337              	.LVL318:
 4338              	.LFB175:
1758:Drivers/STM32L4xx_HAL_Driver/Src/stm32l4xx_ll_usb.c **** 
1759:Drivers/STM32L4xx_HAL_Driver/Src/stm32l4xx_ll_usb.c **** /**
1760:Drivers/STM32L4xx_HAL_Driver/Src/stm32l4xx_ll_usb.c ****   * @brief Read all host channel interrupts status
1761:Drivers/STM32L4xx_HAL_Driver/Src/stm32l4xx_ll_usb.c ****   * @param  USBx  Selected device
1762:Drivers/STM32L4xx_HAL_Driver/Src/stm32l4xx_ll_usb.c ****   * @retval HAL state
1763:Drivers/STM32L4xx_HAL_Driver/Src/stm32l4xx_ll_usb.c ****   */
1764:Drivers/STM32L4xx_HAL_Driver/Src/stm32l4xx_ll_usb.c **** uint32_t USB_HC_ReadInterrupt(USB_OTG_GlobalTypeDef *USBx)
1765:Drivers/STM32L4xx_HAL_Driver/Src/stm32l4xx_ll_usb.c **** {
 4339              		.loc 1 1765 1 is_stmt 1 view -0
 4340              		.cfi_startproc
 4341              		@ args = 0, pretend = 0, frame = 0
 4342              		@ frame_needed = 0, uses_anonymous_args = 0
 4343              		@ link register save eliminated.
1766:Drivers/STM32L4xx_HAL_Driver/Src/stm32l4xx_ll_usb.c ****   uint32_t USBx_BASE = (uint32_t)USBx;
 4344              		.loc 1 1766 3 view .LVU1484
1767:Drivers/STM32L4xx_HAL_Driver/Src/stm32l4xx_ll_usb.c **** 
1768:Drivers/STM32L4xx_HAL_Driver/Src/stm32l4xx_ll_usb.c ****   return ((USBx_HOST->HAINT) & 0xFFFFU);
 4345              		.loc 1 1768 3 view .LVU1485
 4346              		.loc 1 1768 12 is_stmt 0 view .LVU1486
 4347 0000 00F58060 		add	r0, r0, #1024
 4348              	.LVL319:
 4349              		.loc 1 1768 21 view .LVU1487
 4350 0004 4069     		ldr	r0, [r0, #20]
 4351              	.LVL320:
1769:Drivers/STM32L4xx_HAL_Driver/Src/stm32l4xx_ll_usb.c **** }
 4352              		.loc 1 1769 1 view .LVU1488
 4353 0006 80B2     		uxth	r0, r0
 4354 0008 7047     		bx	lr
 4355              		.cfi_endproc
 4356              	.LFE175:
 4358              		.section	.text.USB_HC_Halt,"ax",%progbits
 4359              		.align	1
 4360              		.global	USB_HC_Halt
 4361              		.syntax unified
 4362              		.thumb
 4363              		.thumb_func
 4365              	USB_HC_Halt:
 4366              	.LVL321:
 4367              	.LFB176:
1770:Drivers/STM32L4xx_HAL_Driver/Src/stm32l4xx_ll_usb.c **** 
1771:Drivers/STM32L4xx_HAL_Driver/Src/stm32l4xx_ll_usb.c **** /**
1772:Drivers/STM32L4xx_HAL_Driver/Src/stm32l4xx_ll_usb.c ****   * @brief  Halt a host channel
1773:Drivers/STM32L4xx_HAL_Driver/Src/stm32l4xx_ll_usb.c ****   * @param  USBx  Selected device
1774:Drivers/STM32L4xx_HAL_Driver/Src/stm32l4xx_ll_usb.c ****   * @param  hc_num  Host Channel number
1775:Drivers/STM32L4xx_HAL_Driver/Src/stm32l4xx_ll_usb.c ****   *         This parameter can be a value from 1 to 15
1776:Drivers/STM32L4xx_HAL_Driver/Src/stm32l4xx_ll_usb.c ****   * @retval HAL state
1777:Drivers/STM32L4xx_HAL_Driver/Src/stm32l4xx_ll_usb.c ****   */
1778:Drivers/STM32L4xx_HAL_Driver/Src/stm32l4xx_ll_usb.c **** HAL_StatusTypeDef USB_HC_Halt(USB_OTG_GlobalTypeDef *USBx, uint8_t hc_num)
ARM GAS  /tmp/ccdWnOQF.s 			page 128


1779:Drivers/STM32L4xx_HAL_Driver/Src/stm32l4xx_ll_usb.c **** {
 4368              		.loc 1 1779 1 is_stmt 1 view -0
 4369              		.cfi_startproc
 4370              		@ args = 0, pretend = 0, frame = 8
 4371              		@ frame_needed = 0, uses_anonymous_args = 0
 4372              		@ link register save eliminated.
 4373              		.loc 1 1779 1 is_stmt 0 view .LVU1490
 4374 0000 10B4     		push	{r4}
 4375              		.cfi_def_cfa_offset 4
 4376              		.cfi_offset 4, -4
 4377 0002 83B0     		sub	sp, sp, #12
 4378              		.cfi_def_cfa_offset 16
1780:Drivers/STM32L4xx_HAL_Driver/Src/stm32l4xx_ll_usb.c ****   uint32_t USBx_BASE = (uint32_t)USBx;
 4379              		.loc 1 1780 3 is_stmt 1 view .LVU1491
 4380              	.LVL322:
1781:Drivers/STM32L4xx_HAL_Driver/Src/stm32l4xx_ll_usb.c ****   uint32_t hcnum = (uint32_t)hc_num;
 4381              		.loc 1 1781 3 view .LVU1492
1782:Drivers/STM32L4xx_HAL_Driver/Src/stm32l4xx_ll_usb.c ****   __IO uint32_t count = 0U;
 4382              		.loc 1 1782 3 view .LVU1493
 4383              		.loc 1 1782 17 is_stmt 0 view .LVU1494
 4384 0004 0023     		movs	r3, #0
 4385 0006 0193     		str	r3, [sp, #4]
1783:Drivers/STM32L4xx_HAL_Driver/Src/stm32l4xx_ll_usb.c ****   uint32_t HcEpType = (USBx_HC(hcnum)->HCCHAR & USB_OTG_HCCHAR_EPTYP) >> 18;
 4386              		.loc 1 1783 3 is_stmt 1 view .LVU1495
 4387              		.loc 1 1783 24 is_stmt 0 view .LVU1496
 4388 0008 00EB4111 		add	r1, r0, r1, lsl #5
 4389              	.LVL323:
 4390              		.loc 1 1783 24 view .LVU1497
 4391 000c 01F5A06C 		add	ip, r1, #1280
 4392              		.loc 1 1783 38 view .LVU1498
 4393 0010 D1F80035 		ldr	r3, [r1, #1280]
 4394              		.loc 1 1783 12 view .LVU1499
 4395 0014 C3F38143 		ubfx	r3, r3, #18, #2
 4396              	.LVL324:
1784:Drivers/STM32L4xx_HAL_Driver/Src/stm32l4xx_ll_usb.c ****   uint32_t ChannelEna = (USBx_HC(hcnum)->HCCHAR & USB_OTG_HCCHAR_CHENA) >> 31;
 4397              		.loc 1 1784 3 is_stmt 1 view .LVU1500
 4398              		.loc 1 1784 40 is_stmt 0 view .LVU1501
 4399 0018 D1F80025 		ldr	r2, [r1, #1280]
 4400              	.LVL325:
1785:Drivers/STM32L4xx_HAL_Driver/Src/stm32l4xx_ll_usb.c **** 
1786:Drivers/STM32L4xx_HAL_Driver/Src/stm32l4xx_ll_usb.c ****   if (((USBx->GAHBCFG & USB_OTG_GAHBCFG_DMAEN) == USB_OTG_GAHBCFG_DMAEN) &&
 4401              		.loc 1 1786 3 is_stmt 1 view .LVU1502
 4402              		.loc 1 1786 13 is_stmt 0 view .LVU1503
 4403 001c 8468     		ldr	r4, [r0, #8]
 4404              		.loc 1 1786 6 view .LVU1504
 4405 001e 14F0200F 		tst	r4, #32
 4406 0022 02D0     		beq	.L277
 4407 0024 D20F     		lsrs	r2, r2, #31
 4408              	.LVL326:
 4409              		.loc 1 1786 74 discriminator 1 view .LVU1505
 4410 0026 002A     		cmp	r2, #0
 4411 0028 51D0     		beq	.L278
 4412              	.LVL327:
 4413              	.L277:
1787:Drivers/STM32L4xx_HAL_Driver/Src/stm32l4xx_ll_usb.c ****       (ChannelEna == 0U))
1788:Drivers/STM32L4xx_HAL_Driver/Src/stm32l4xx_ll_usb.c ****   {
1789:Drivers/STM32L4xx_HAL_Driver/Src/stm32l4xx_ll_usb.c ****     return HAL_OK;
ARM GAS  /tmp/ccdWnOQF.s 			page 129


1790:Drivers/STM32L4xx_HAL_Driver/Src/stm32l4xx_ll_usb.c ****   }
1791:Drivers/STM32L4xx_HAL_Driver/Src/stm32l4xx_ll_usb.c **** 
1792:Drivers/STM32L4xx_HAL_Driver/Src/stm32l4xx_ll_usb.c ****   /* Check for space in the request queue to issue the halt. */
1793:Drivers/STM32L4xx_HAL_Driver/Src/stm32l4xx_ll_usb.c ****   if ((HcEpType == HCCHAR_CTRL) || (HcEpType == HCCHAR_BULK))
 4414              		.loc 1 1793 3 is_stmt 1 view .LVU1506
 4415              		.loc 1 1793 6 is_stmt 0 view .LVU1507
 4416 002a 23B3     		cbz	r3, .L279
 4417              		.loc 1 1793 33 discriminator 1 view .LVU1508
 4418 002c 022B     		cmp	r3, #2
 4419 002e 22D0     		beq	.L279
1794:Drivers/STM32L4xx_HAL_Driver/Src/stm32l4xx_ll_usb.c ****   {
1795:Drivers/STM32L4xx_HAL_Driver/Src/stm32l4xx_ll_usb.c ****     USBx_HC(hcnum)->HCCHAR |= USB_OTG_HCCHAR_CHDIS;
1796:Drivers/STM32L4xx_HAL_Driver/Src/stm32l4xx_ll_usb.c **** 
1797:Drivers/STM32L4xx_HAL_Driver/Src/stm32l4xx_ll_usb.c ****     if ((USBx->GAHBCFG & USB_OTG_GAHBCFG_DMAEN) == 0U)
1798:Drivers/STM32L4xx_HAL_Driver/Src/stm32l4xx_ll_usb.c ****     {
1799:Drivers/STM32L4xx_HAL_Driver/Src/stm32l4xx_ll_usb.c ****       if ((USBx->HNPTXSTS & (0xFFU << 16)) == 0U)
1800:Drivers/STM32L4xx_HAL_Driver/Src/stm32l4xx_ll_usb.c ****       {
1801:Drivers/STM32L4xx_HAL_Driver/Src/stm32l4xx_ll_usb.c ****         USBx_HC(hcnum)->HCCHAR &= ~USB_OTG_HCCHAR_CHENA;
1802:Drivers/STM32L4xx_HAL_Driver/Src/stm32l4xx_ll_usb.c ****         USBx_HC(hcnum)->HCCHAR |= USB_OTG_HCCHAR_CHENA;
1803:Drivers/STM32L4xx_HAL_Driver/Src/stm32l4xx_ll_usb.c ****         do
1804:Drivers/STM32L4xx_HAL_Driver/Src/stm32l4xx_ll_usb.c ****         {
1805:Drivers/STM32L4xx_HAL_Driver/Src/stm32l4xx_ll_usb.c ****           count++;
1806:Drivers/STM32L4xx_HAL_Driver/Src/stm32l4xx_ll_usb.c **** 
1807:Drivers/STM32L4xx_HAL_Driver/Src/stm32l4xx_ll_usb.c ****           if (count > 1000U)
1808:Drivers/STM32L4xx_HAL_Driver/Src/stm32l4xx_ll_usb.c ****           {
1809:Drivers/STM32L4xx_HAL_Driver/Src/stm32l4xx_ll_usb.c ****             break;
1810:Drivers/STM32L4xx_HAL_Driver/Src/stm32l4xx_ll_usb.c ****           }
1811:Drivers/STM32L4xx_HAL_Driver/Src/stm32l4xx_ll_usb.c ****         } while ((USBx_HC(hcnum)->HCCHAR & USB_OTG_HCCHAR_CHENA) == USB_OTG_HCCHAR_CHENA);
1812:Drivers/STM32L4xx_HAL_Driver/Src/stm32l4xx_ll_usb.c ****       }
1813:Drivers/STM32L4xx_HAL_Driver/Src/stm32l4xx_ll_usb.c ****       else
1814:Drivers/STM32L4xx_HAL_Driver/Src/stm32l4xx_ll_usb.c ****       {
1815:Drivers/STM32L4xx_HAL_Driver/Src/stm32l4xx_ll_usb.c ****         USBx_HC(hcnum)->HCCHAR |= USB_OTG_HCCHAR_CHENA;
1816:Drivers/STM32L4xx_HAL_Driver/Src/stm32l4xx_ll_usb.c ****       }
1817:Drivers/STM32L4xx_HAL_Driver/Src/stm32l4xx_ll_usb.c ****     }
1818:Drivers/STM32L4xx_HAL_Driver/Src/stm32l4xx_ll_usb.c ****   }
1819:Drivers/STM32L4xx_HAL_Driver/Src/stm32l4xx_ll_usb.c ****   else
1820:Drivers/STM32L4xx_HAL_Driver/Src/stm32l4xx_ll_usb.c ****   {
1821:Drivers/STM32L4xx_HAL_Driver/Src/stm32l4xx_ll_usb.c ****     USBx_HC(hcnum)->HCCHAR |= USB_OTG_HCCHAR_CHDIS;
 4420              		.loc 1 1821 5 is_stmt 1 view .LVU1509
 4421              		.loc 1 1821 19 is_stmt 0 view .LVU1510
 4422 0030 D1F80035 		ldr	r3, [r1, #1280]
 4423              	.LVL328:
 4424              		.loc 1 1821 28 view .LVU1511
 4425 0034 43F08043 		orr	r3, r3, #1073741824
 4426 0038 C1F80035 		str	r3, [r1, #1280]
1822:Drivers/STM32L4xx_HAL_Driver/Src/stm32l4xx_ll_usb.c **** 
1823:Drivers/STM32L4xx_HAL_Driver/Src/stm32l4xx_ll_usb.c ****     if ((USBx_HOST->HPTXSTS & (0xFFU << 16)) == 0U)
 4427              		.loc 1 1823 5 is_stmt 1 view .LVU1512
 4428              		.loc 1 1823 19 is_stmt 0 view .LVU1513
 4429 003c D0F81034 		ldr	r3, [r0, #1040]
 4430              		.loc 1 1823 8 view .LVU1514
 4431 0040 13F47F0F 		tst	r3, #16711680
 4432 0044 48D1     		bne	.L283
1824:Drivers/STM32L4xx_HAL_Driver/Src/stm32l4xx_ll_usb.c ****     {
1825:Drivers/STM32L4xx_HAL_Driver/Src/stm32l4xx_ll_usb.c ****       USBx_HC(hcnum)->HCCHAR &= ~USB_OTG_HCCHAR_CHENA;
 4433              		.loc 1 1825 7 is_stmt 1 view .LVU1515
 4434              		.loc 1 1825 21 is_stmt 0 view .LVU1516
ARM GAS  /tmp/ccdWnOQF.s 			page 130


 4435 0046 D1F80035 		ldr	r3, [r1, #1280]
 4436              		.loc 1 1825 30 view .LVU1517
 4437 004a 23F00043 		bic	r3, r3, #-2147483648
 4438 004e C1F80035 		str	r3, [r1, #1280]
1826:Drivers/STM32L4xx_HAL_Driver/Src/stm32l4xx_ll_usb.c ****       USBx_HC(hcnum)->HCCHAR |= USB_OTG_HCCHAR_CHENA;
 4439              		.loc 1 1826 7 is_stmt 1 view .LVU1518
 4440              		.loc 1 1826 21 is_stmt 0 view .LVU1519
 4441 0052 D1F80035 		ldr	r3, [r1, #1280]
 4442              		.loc 1 1826 30 view .LVU1520
 4443 0056 43F00043 		orr	r3, r3, #-2147483648
 4444 005a C1F80035 		str	r3, [r1, #1280]
 4445              	.L284:
1827:Drivers/STM32L4xx_HAL_Driver/Src/stm32l4xx_ll_usb.c ****       do
 4446              		.loc 1 1827 7 is_stmt 1 view .LVU1521
1828:Drivers/STM32L4xx_HAL_Driver/Src/stm32l4xx_ll_usb.c ****       {
1829:Drivers/STM32L4xx_HAL_Driver/Src/stm32l4xx_ll_usb.c ****         count++;
 4447              		.loc 1 1829 9 view .LVU1522
 4448              		.loc 1 1829 14 is_stmt 0 view .LVU1523
 4449 005e 019B     		ldr	r3, [sp, #4]
 4450 0060 0133     		adds	r3, r3, #1
 4451 0062 0193     		str	r3, [sp, #4]
1830:Drivers/STM32L4xx_HAL_Driver/Src/stm32l4xx_ll_usb.c **** 
1831:Drivers/STM32L4xx_HAL_Driver/Src/stm32l4xx_ll_usb.c ****         if (count > 1000U)
 4452              		.loc 1 1831 9 is_stmt 1 view .LVU1524
 4453              		.loc 1 1831 19 is_stmt 0 view .LVU1525
 4454 0064 019B     		ldr	r3, [sp, #4]
 4455              		.loc 1 1831 12 view .LVU1526
 4456 0066 B3F57A7F 		cmp	r3, #1000
 4457 006a 30D8     		bhi	.L278
1832:Drivers/STM32L4xx_HAL_Driver/Src/stm32l4xx_ll_usb.c ****         {
1833:Drivers/STM32L4xx_HAL_Driver/Src/stm32l4xx_ll_usb.c ****           break;
1834:Drivers/STM32L4xx_HAL_Driver/Src/stm32l4xx_ll_usb.c ****         }
1835:Drivers/STM32L4xx_HAL_Driver/Src/stm32l4xx_ll_usb.c ****       } while ((USBx_HC(hcnum)->HCCHAR & USB_OTG_HCCHAR_CHENA) == USB_OTG_HCCHAR_CHENA);
 4458              		.loc 1 1835 64 is_stmt 1 view .LVU1527
 4459              		.loc 1 1835 31 is_stmt 0 view .LVU1528
 4460 006c DCF80030 		ldr	r3, [ip]
 4461              		.loc 1 1835 64 view .LVU1529
 4462 0070 002B     		cmp	r3, #0
 4463 0072 F4DB     		blt	.L284
 4464 0074 2BE0     		b	.L278
 4465              	.LVL329:
 4466              	.L279:
1795:Drivers/STM32L4xx_HAL_Driver/Src/stm32l4xx_ll_usb.c **** 
 4467              		.loc 1 1795 5 is_stmt 1 view .LVU1530
1795:Drivers/STM32L4xx_HAL_Driver/Src/stm32l4xx_ll_usb.c **** 
 4468              		.loc 1 1795 19 is_stmt 0 view .LVU1531
 4469 0076 D1F80035 		ldr	r3, [r1, #1280]
 4470              	.LVL330:
1795:Drivers/STM32L4xx_HAL_Driver/Src/stm32l4xx_ll_usb.c **** 
 4471              		.loc 1 1795 28 view .LVU1532
 4472 007a 43F08043 		orr	r3, r3, #1073741824
 4473 007e C1F80035 		str	r3, [r1, #1280]
1797:Drivers/STM32L4xx_HAL_Driver/Src/stm32l4xx_ll_usb.c ****     {
 4474              		.loc 1 1797 5 is_stmt 1 view .LVU1533
1797:Drivers/STM32L4xx_HAL_Driver/Src/stm32l4xx_ll_usb.c ****     {
 4475              		.loc 1 1797 14 is_stmt 0 view .LVU1534
 4476 0082 8368     		ldr	r3, [r0, #8]
ARM GAS  /tmp/ccdWnOQF.s 			page 131


1797:Drivers/STM32L4xx_HAL_Driver/Src/stm32l4xx_ll_usb.c ****     {
 4477              		.loc 1 1797 8 view .LVU1535
 4478 0084 13F0200F 		tst	r3, #32
 4479 0088 21D1     		bne	.L278
1799:Drivers/STM32L4xx_HAL_Driver/Src/stm32l4xx_ll_usb.c ****       {
 4480              		.loc 1 1799 7 is_stmt 1 view .LVU1536
1799:Drivers/STM32L4xx_HAL_Driver/Src/stm32l4xx_ll_usb.c ****       {
 4481              		.loc 1 1799 16 is_stmt 0 view .LVU1537
 4482 008a C36A     		ldr	r3, [r0, #44]
1799:Drivers/STM32L4xx_HAL_Driver/Src/stm32l4xx_ll_usb.c ****       {
 4483              		.loc 1 1799 10 view .LVU1538
 4484 008c 13F47F0F 		tst	r3, #16711680
 4485 0090 17D1     		bne	.L281
1801:Drivers/STM32L4xx_HAL_Driver/Src/stm32l4xx_ll_usb.c ****         USBx_HC(hcnum)->HCCHAR |= USB_OTG_HCCHAR_CHENA;
 4486              		.loc 1 1801 9 is_stmt 1 view .LVU1539
1801:Drivers/STM32L4xx_HAL_Driver/Src/stm32l4xx_ll_usb.c ****         USBx_HC(hcnum)->HCCHAR |= USB_OTG_HCCHAR_CHENA;
 4487              		.loc 1 1801 23 is_stmt 0 view .LVU1540
 4488 0092 D1F80035 		ldr	r3, [r1, #1280]
1801:Drivers/STM32L4xx_HAL_Driver/Src/stm32l4xx_ll_usb.c ****         USBx_HC(hcnum)->HCCHAR |= USB_OTG_HCCHAR_CHENA;
 4489              		.loc 1 1801 32 view .LVU1541
 4490 0096 23F00043 		bic	r3, r3, #-2147483648
 4491 009a C1F80035 		str	r3, [r1, #1280]
1802:Drivers/STM32L4xx_HAL_Driver/Src/stm32l4xx_ll_usb.c ****         do
 4492              		.loc 1 1802 9 is_stmt 1 view .LVU1542
1802:Drivers/STM32L4xx_HAL_Driver/Src/stm32l4xx_ll_usb.c ****         do
 4493              		.loc 1 1802 23 is_stmt 0 view .LVU1543
 4494 009e D1F80035 		ldr	r3, [r1, #1280]
1802:Drivers/STM32L4xx_HAL_Driver/Src/stm32l4xx_ll_usb.c ****         do
 4495              		.loc 1 1802 32 view .LVU1544
 4496 00a2 43F00043 		orr	r3, r3, #-2147483648
 4497 00a6 C1F80035 		str	r3, [r1, #1280]
 4498              	.L282:
1803:Drivers/STM32L4xx_HAL_Driver/Src/stm32l4xx_ll_usb.c ****         {
 4499              		.loc 1 1803 9 is_stmt 1 view .LVU1545
1805:Drivers/STM32L4xx_HAL_Driver/Src/stm32l4xx_ll_usb.c **** 
 4500              		.loc 1 1805 11 view .LVU1546
1805:Drivers/STM32L4xx_HAL_Driver/Src/stm32l4xx_ll_usb.c **** 
 4501              		.loc 1 1805 16 is_stmt 0 view .LVU1547
 4502 00aa 019B     		ldr	r3, [sp, #4]
 4503 00ac 0133     		adds	r3, r3, #1
 4504 00ae 0193     		str	r3, [sp, #4]
1807:Drivers/STM32L4xx_HAL_Driver/Src/stm32l4xx_ll_usb.c ****           {
 4505              		.loc 1 1807 11 is_stmt 1 view .LVU1548
1807:Drivers/STM32L4xx_HAL_Driver/Src/stm32l4xx_ll_usb.c ****           {
 4506              		.loc 1 1807 21 is_stmt 0 view .LVU1549
 4507 00b0 019B     		ldr	r3, [sp, #4]
1807:Drivers/STM32L4xx_HAL_Driver/Src/stm32l4xx_ll_usb.c ****           {
 4508              		.loc 1 1807 14 view .LVU1550
 4509 00b2 B3F57A7F 		cmp	r3, #1000
 4510 00b6 0AD8     		bhi	.L278
1811:Drivers/STM32L4xx_HAL_Driver/Src/stm32l4xx_ll_usb.c ****       }
 4511              		.loc 1 1811 66 is_stmt 1 view .LVU1551
1811:Drivers/STM32L4xx_HAL_Driver/Src/stm32l4xx_ll_usb.c ****       }
 4512              		.loc 1 1811 33 is_stmt 0 view .LVU1552
 4513 00b8 DCF80030 		ldr	r3, [ip]
1811:Drivers/STM32L4xx_HAL_Driver/Src/stm32l4xx_ll_usb.c ****       }
 4514              		.loc 1 1811 66 view .LVU1553
ARM GAS  /tmp/ccdWnOQF.s 			page 132


 4515 00bc 002B     		cmp	r3, #0
 4516 00be F4DB     		blt	.L282
 4517 00c0 05E0     		b	.L278
 4518              	.L281:
1815:Drivers/STM32L4xx_HAL_Driver/Src/stm32l4xx_ll_usb.c ****       }
 4519              		.loc 1 1815 9 is_stmt 1 view .LVU1554
1815:Drivers/STM32L4xx_HAL_Driver/Src/stm32l4xx_ll_usb.c ****       }
 4520              		.loc 1 1815 23 is_stmt 0 view .LVU1555
 4521 00c2 D1F80035 		ldr	r3, [r1, #1280]
1815:Drivers/STM32L4xx_HAL_Driver/Src/stm32l4xx_ll_usb.c ****       }
 4522              		.loc 1 1815 32 view .LVU1556
 4523 00c6 43F00043 		orr	r3, r3, #-2147483648
 4524 00ca C1F80035 		str	r3, [r1, #1280]
 4525              	.L278:
1836:Drivers/STM32L4xx_HAL_Driver/Src/stm32l4xx_ll_usb.c ****     }
1837:Drivers/STM32L4xx_HAL_Driver/Src/stm32l4xx_ll_usb.c ****     else
1838:Drivers/STM32L4xx_HAL_Driver/Src/stm32l4xx_ll_usb.c ****     {
1839:Drivers/STM32L4xx_HAL_Driver/Src/stm32l4xx_ll_usb.c ****       USBx_HC(hcnum)->HCCHAR |= USB_OTG_HCCHAR_CHENA;
1840:Drivers/STM32L4xx_HAL_Driver/Src/stm32l4xx_ll_usb.c ****     }
1841:Drivers/STM32L4xx_HAL_Driver/Src/stm32l4xx_ll_usb.c ****   }
1842:Drivers/STM32L4xx_HAL_Driver/Src/stm32l4xx_ll_usb.c **** 
1843:Drivers/STM32L4xx_HAL_Driver/Src/stm32l4xx_ll_usb.c ****   return HAL_OK;
1844:Drivers/STM32L4xx_HAL_Driver/Src/stm32l4xx_ll_usb.c **** }
 4526              		.loc 1 1844 1 view .LVU1557
 4527 00ce 0020     		movs	r0, #0
 4528              	.LVL331:
 4529              		.loc 1 1844 1 view .LVU1558
 4530 00d0 03B0     		add	sp, sp, #12
 4531              		.cfi_remember_state
 4532              		.cfi_def_cfa_offset 4
 4533              		@ sp needed
 4534 00d2 5DF8044B 		ldr	r4, [sp], #4
 4535              		.cfi_restore 4
 4536              		.cfi_def_cfa_offset 0
 4537 00d6 7047     		bx	lr
 4538              	.LVL332:
 4539              	.L283:
 4540              		.cfi_restore_state
1839:Drivers/STM32L4xx_HAL_Driver/Src/stm32l4xx_ll_usb.c ****     }
 4541              		.loc 1 1839 7 is_stmt 1 view .LVU1559
1839:Drivers/STM32L4xx_HAL_Driver/Src/stm32l4xx_ll_usb.c ****     }
 4542              		.loc 1 1839 21 is_stmt 0 view .LVU1560
 4543 00d8 D1F80035 		ldr	r3, [r1, #1280]
1839:Drivers/STM32L4xx_HAL_Driver/Src/stm32l4xx_ll_usb.c ****     }
 4544              		.loc 1 1839 30 view .LVU1561
 4545 00dc 43F00043 		orr	r3, r3, #-2147483648
 4546 00e0 C1F80035 		str	r3, [r1, #1280]
 4547 00e4 F3E7     		b	.L278
 4548              		.cfi_endproc
 4549              	.LFE176:
 4551              		.section	.text.USB_DoPing,"ax",%progbits
 4552              		.align	1
 4553              		.global	USB_DoPing
 4554              		.syntax unified
 4555              		.thumb
 4556              		.thumb_func
 4558              	USB_DoPing:
ARM GAS  /tmp/ccdWnOQF.s 			page 133


 4559              	.LVL333:
 4560              	.LFB177:
1845:Drivers/STM32L4xx_HAL_Driver/Src/stm32l4xx_ll_usb.c **** 
1846:Drivers/STM32L4xx_HAL_Driver/Src/stm32l4xx_ll_usb.c **** /**
1847:Drivers/STM32L4xx_HAL_Driver/Src/stm32l4xx_ll_usb.c ****   * @brief  Initiate Do Ping protocol
1848:Drivers/STM32L4xx_HAL_Driver/Src/stm32l4xx_ll_usb.c ****   * @param  USBx  Selected device
1849:Drivers/STM32L4xx_HAL_Driver/Src/stm32l4xx_ll_usb.c ****   * @param  hc_num  Host Channel number
1850:Drivers/STM32L4xx_HAL_Driver/Src/stm32l4xx_ll_usb.c ****   *         This parameter can be a value from 1 to 15
1851:Drivers/STM32L4xx_HAL_Driver/Src/stm32l4xx_ll_usb.c ****   * @retval HAL state
1852:Drivers/STM32L4xx_HAL_Driver/Src/stm32l4xx_ll_usb.c ****   */
1853:Drivers/STM32L4xx_HAL_Driver/Src/stm32l4xx_ll_usb.c **** HAL_StatusTypeDef USB_DoPing(USB_OTG_GlobalTypeDef *USBx, uint8_t ch_num)
1854:Drivers/STM32L4xx_HAL_Driver/Src/stm32l4xx_ll_usb.c **** {
 4561              		.loc 1 1854 1 is_stmt 1 view -0
 4562              		.cfi_startproc
 4563              		@ args = 0, pretend = 0, frame = 0
 4564              		@ frame_needed = 0, uses_anonymous_args = 0
 4565              		@ link register save eliminated.
1855:Drivers/STM32L4xx_HAL_Driver/Src/stm32l4xx_ll_usb.c ****   uint32_t USBx_BASE = (uint32_t)USBx;
 4566              		.loc 1 1855 3 view .LVU1563
1856:Drivers/STM32L4xx_HAL_Driver/Src/stm32l4xx_ll_usb.c ****   uint32_t chnum = (uint32_t)ch_num;
 4567              		.loc 1 1856 3 view .LVU1564
1857:Drivers/STM32L4xx_HAL_Driver/Src/stm32l4xx_ll_usb.c ****   uint32_t num_packets = 1U;
 4568              		.loc 1 1857 3 view .LVU1565
1858:Drivers/STM32L4xx_HAL_Driver/Src/stm32l4xx_ll_usb.c ****   uint32_t tmpreg;
 4569              		.loc 1 1858 3 view .LVU1566
1859:Drivers/STM32L4xx_HAL_Driver/Src/stm32l4xx_ll_usb.c **** 
1860:Drivers/STM32L4xx_HAL_Driver/Src/stm32l4xx_ll_usb.c ****   USBx_HC(chnum)->HCTSIZ = ((num_packets << 19) & USB_OTG_HCTSIZ_PKTCNT) |
 4570              		.loc 1 1860 3 view .LVU1567
 4571 0000 00EB4110 		add	r0, r0, r1, lsl #5
 4572              	.LVL334:
 4573              		.loc 1 1860 26 is_stmt 0 view .LVU1568
 4574 0004 064A     		ldr	r2, .L287
 4575 0006 C0F81025 		str	r2, [r0, #1296]
1861:Drivers/STM32L4xx_HAL_Driver/Src/stm32l4xx_ll_usb.c ****                            USB_OTG_HCTSIZ_DOPING;
1862:Drivers/STM32L4xx_HAL_Driver/Src/stm32l4xx_ll_usb.c **** 
1863:Drivers/STM32L4xx_HAL_Driver/Src/stm32l4xx_ll_usb.c ****   /* Set host channel enable */
1864:Drivers/STM32L4xx_HAL_Driver/Src/stm32l4xx_ll_usb.c ****   tmpreg = USBx_HC(chnum)->HCCHAR;
 4576              		.loc 1 1864 3 is_stmt 1 view .LVU1569
 4577              		.loc 1 1864 10 is_stmt 0 view .LVU1570
 4578 000a D0F80035 		ldr	r3, [r0, #1280]
 4579              	.LVL335:
1865:Drivers/STM32L4xx_HAL_Driver/Src/stm32l4xx_ll_usb.c ****   tmpreg &= ~USB_OTG_HCCHAR_CHDIS;
 4580              		.loc 1 1865 3 is_stmt 1 view .LVU1571
 4581              		.loc 1 1865 10 is_stmt 0 view .LVU1572
 4582 000e 23F08043 		bic	r3, r3, #1073741824
 4583              	.LVL336:
1866:Drivers/STM32L4xx_HAL_Driver/Src/stm32l4xx_ll_usb.c ****   tmpreg |= USB_OTG_HCCHAR_CHENA;
 4584              		.loc 1 1866 3 is_stmt 1 view .LVU1573
 4585              		.loc 1 1866 10 is_stmt 0 view .LVU1574
 4586 0012 43F00043 		orr	r3, r3, #-2147483648
 4587              	.LVL337:
1867:Drivers/STM32L4xx_HAL_Driver/Src/stm32l4xx_ll_usb.c ****   USBx_HC(chnum)->HCCHAR = tmpreg;
 4588              		.loc 1 1867 3 is_stmt 1 view .LVU1575
 4589              		.loc 1 1867 26 is_stmt 0 view .LVU1576
 4590 0016 C0F80035 		str	r3, [r0, #1280]
1868:Drivers/STM32L4xx_HAL_Driver/Src/stm32l4xx_ll_usb.c **** 
1869:Drivers/STM32L4xx_HAL_Driver/Src/stm32l4xx_ll_usb.c ****   return HAL_OK;
ARM GAS  /tmp/ccdWnOQF.s 			page 134


 4591              		.loc 1 1869 3 is_stmt 1 view .LVU1577
1870:Drivers/STM32L4xx_HAL_Driver/Src/stm32l4xx_ll_usb.c **** }
 4592              		.loc 1 1870 1 is_stmt 0 view .LVU1578
 4593 001a 0020     		movs	r0, #0
 4594 001c 7047     		bx	lr
 4595              	.L288:
 4596 001e 00BF     		.align	2
 4597              	.L287:
 4598 0020 00000880 		.word	-2146959360
 4599              		.cfi_endproc
 4600              	.LFE177:
 4602              		.section	.text.USB_StopHost,"ax",%progbits
 4603              		.align	1
 4604              		.global	USB_StopHost
 4605              		.syntax unified
 4606              		.thumb
 4607              		.thumb_func
 4609              	USB_StopHost:
 4610              	.LVL338:
 4611              	.LFB178:
1871:Drivers/STM32L4xx_HAL_Driver/Src/stm32l4xx_ll_usb.c **** 
1872:Drivers/STM32L4xx_HAL_Driver/Src/stm32l4xx_ll_usb.c **** /**
1873:Drivers/STM32L4xx_HAL_Driver/Src/stm32l4xx_ll_usb.c ****   * @brief  Stop Host Core
1874:Drivers/STM32L4xx_HAL_Driver/Src/stm32l4xx_ll_usb.c ****   * @param  USBx  Selected device
1875:Drivers/STM32L4xx_HAL_Driver/Src/stm32l4xx_ll_usb.c ****   * @retval HAL state
1876:Drivers/STM32L4xx_HAL_Driver/Src/stm32l4xx_ll_usb.c ****   */
1877:Drivers/STM32L4xx_HAL_Driver/Src/stm32l4xx_ll_usb.c **** HAL_StatusTypeDef USB_StopHost(USB_OTG_GlobalTypeDef *USBx)
1878:Drivers/STM32L4xx_HAL_Driver/Src/stm32l4xx_ll_usb.c **** {
 4612              		.loc 1 1878 1 is_stmt 1 view -0
 4613              		.cfi_startproc
 4614              		@ args = 0, pretend = 0, frame = 8
 4615              		@ frame_needed = 0, uses_anonymous_args = 0
 4616              		.loc 1 1878 1 is_stmt 0 view .LVU1580
 4617 0000 30B5     		push	{r4, r5, lr}
 4618              		.cfi_def_cfa_offset 12
 4619              		.cfi_offset 4, -12
 4620              		.cfi_offset 5, -8
 4621              		.cfi_offset 14, -4
 4622 0002 83B0     		sub	sp, sp, #12
 4623              		.cfi_def_cfa_offset 24
 4624 0004 0446     		mov	r4, r0
1879:Drivers/STM32L4xx_HAL_Driver/Src/stm32l4xx_ll_usb.c ****   HAL_StatusTypeDef ret = HAL_OK;
 4625              		.loc 1 1879 3 is_stmt 1 view .LVU1581
 4626              	.LVL339:
1880:Drivers/STM32L4xx_HAL_Driver/Src/stm32l4xx_ll_usb.c ****   uint32_t USBx_BASE = (uint32_t)USBx;
 4627              		.loc 1 1880 3 view .LVU1582
1881:Drivers/STM32L4xx_HAL_Driver/Src/stm32l4xx_ll_usb.c ****   __IO uint32_t count = 0U;
 4628              		.loc 1 1881 3 view .LVU1583
 4629              		.loc 1 1881 17 is_stmt 0 view .LVU1584
 4630 0006 0023     		movs	r3, #0
 4631 0008 0193     		str	r3, [sp, #4]
1882:Drivers/STM32L4xx_HAL_Driver/Src/stm32l4xx_ll_usb.c ****   uint32_t value;
 4632              		.loc 1 1882 3 is_stmt 1 view .LVU1585
1883:Drivers/STM32L4xx_HAL_Driver/Src/stm32l4xx_ll_usb.c ****   uint32_t i;
 4633              		.loc 1 1883 3 view .LVU1586
1884:Drivers/STM32L4xx_HAL_Driver/Src/stm32l4xx_ll_usb.c **** 
1885:Drivers/STM32L4xx_HAL_Driver/Src/stm32l4xx_ll_usb.c ****   (void)USB_DisableGlobalInt(USBx);
ARM GAS  /tmp/ccdWnOQF.s 			page 135


 4634              		.loc 1 1885 3 view .LVU1587
 4635              		.loc 1 1885 9 is_stmt 0 view .LVU1588
 4636 000a FFF7FEFF 		bl	USB_DisableGlobalInt
 4637              	.LVL340:
1886:Drivers/STM32L4xx_HAL_Driver/Src/stm32l4xx_ll_usb.c **** 
1887:Drivers/STM32L4xx_HAL_Driver/Src/stm32l4xx_ll_usb.c ****   /* Flush USB FIFO */
1888:Drivers/STM32L4xx_HAL_Driver/Src/stm32l4xx_ll_usb.c ****   if (USB_FlushTxFifo(USBx, 0x10U) != HAL_OK) /* all Tx FIFOs */
 4638              		.loc 1 1888 3 is_stmt 1 view .LVU1589
 4639              		.loc 1 1888 7 is_stmt 0 view .LVU1590
 4640 000e 1021     		movs	r1, #16
 4641 0010 2046     		mov	r0, r4
 4642 0012 FFF7FEFF 		bl	USB_FlushTxFifo
 4643              	.LVL341:
 4644              		.loc 1 1888 6 view .LVU1591
 4645 0016 0546     		mov	r5, r0
 4646 0018 00B1     		cbz	r0, .L290
1889:Drivers/STM32L4xx_HAL_Driver/Src/stm32l4xx_ll_usb.c ****   {
1890:Drivers/STM32L4xx_HAL_Driver/Src/stm32l4xx_ll_usb.c ****     ret = HAL_ERROR;
 4647              		.loc 1 1890 9 view .LVU1592
 4648 001a 0125     		movs	r5, #1
 4649              	.L290:
 4650              	.LVL342:
1891:Drivers/STM32L4xx_HAL_Driver/Src/stm32l4xx_ll_usb.c ****   }
1892:Drivers/STM32L4xx_HAL_Driver/Src/stm32l4xx_ll_usb.c **** 
1893:Drivers/STM32L4xx_HAL_Driver/Src/stm32l4xx_ll_usb.c ****   if (USB_FlushRxFifo(USBx) != HAL_OK)
 4651              		.loc 1 1893 3 is_stmt 1 view .LVU1593
 4652              		.loc 1 1893 7 is_stmt 0 view .LVU1594
 4653 001c 2046     		mov	r0, r4
 4654 001e FFF7FEFF 		bl	USB_FlushRxFifo
 4655              	.LVL343:
 4656              		.loc 1 1893 6 view .LVU1595
 4657 0022 00B1     		cbz	r0, .L291
1894:Drivers/STM32L4xx_HAL_Driver/Src/stm32l4xx_ll_usb.c ****   {
1895:Drivers/STM32L4xx_HAL_Driver/Src/stm32l4xx_ll_usb.c ****     ret = HAL_ERROR;
 4658              		.loc 1 1895 9 view .LVU1596
 4659 0024 0125     		movs	r5, #1
 4660              	.LVL344:
 4661              	.L291:
1896:Drivers/STM32L4xx_HAL_Driver/Src/stm32l4xx_ll_usb.c ****   }
1897:Drivers/STM32L4xx_HAL_Driver/Src/stm32l4xx_ll_usb.c **** 
1898:Drivers/STM32L4xx_HAL_Driver/Src/stm32l4xx_ll_usb.c ****   /* Flush out any leftover queued requests. */
1899:Drivers/STM32L4xx_HAL_Driver/Src/stm32l4xx_ll_usb.c ****   for (i = 0U; i <= 15U; i++)
 4662              		.loc 1 1899 3 is_stmt 1 view .LVU1597
 4663              		.loc 1 1899 10 is_stmt 0 view .LVU1598
 4664 0026 0022     		movs	r2, #0
 4665              		.loc 1 1899 3 view .LVU1599
 4666 0028 0AE0     		b	.L292
 4667              	.LVL345:
 4668              	.L293:
1900:Drivers/STM32L4xx_HAL_Driver/Src/stm32l4xx_ll_usb.c ****   {
1901:Drivers/STM32L4xx_HAL_Driver/Src/stm32l4xx_ll_usb.c ****     value = USBx_HC(i)->HCCHAR;
 4669              		.loc 1 1901 5 is_stmt 1 discriminator 3 view .LVU1600
 4670              		.loc 1 1901 13 is_stmt 0 discriminator 3 view .LVU1601
 4671 002a 04EB4211 		add	r1, r4, r2, lsl #5
 4672              		.loc 1 1901 11 discriminator 3 view .LVU1602
 4673 002e D1F80035 		ldr	r3, [r1, #1280]
 4674              	.LVL346:
ARM GAS  /tmp/ccdWnOQF.s 			page 136


1902:Drivers/STM32L4xx_HAL_Driver/Src/stm32l4xx_ll_usb.c ****     value |=  USB_OTG_HCCHAR_CHDIS;
 4675              		.loc 1 1902 5 is_stmt 1 discriminator 3 view .LVU1603
1903:Drivers/STM32L4xx_HAL_Driver/Src/stm32l4xx_ll_usb.c ****     value &= ~USB_OTG_HCCHAR_CHENA;
 4676              		.loc 1 1903 5 discriminator 3 view .LVU1604
1904:Drivers/STM32L4xx_HAL_Driver/Src/stm32l4xx_ll_usb.c ****     value &= ~USB_OTG_HCCHAR_EPDIR;
 4677              		.loc 1 1904 5 discriminator 3 view .LVU1605
 4678 0032 23F08023 		bic	r3, r3, #-2147450880
 4679              	.LVL347:
 4680              		.loc 1 1904 11 is_stmt 0 discriminator 3 view .LVU1606
 4681 0036 43F08043 		orr	r3, r3, #1073741824
 4682              	.LVL348:
1905:Drivers/STM32L4xx_HAL_Driver/Src/stm32l4xx_ll_usb.c ****     USBx_HC(i)->HCCHAR = value;
 4683              		.loc 1 1905 5 is_stmt 1 discriminator 3 view .LVU1607
 4684              		.loc 1 1905 24 is_stmt 0 discriminator 3 view .LVU1608
 4685 003a C1F80035 		str	r3, [r1, #1280]
1899:Drivers/STM32L4xx_HAL_Driver/Src/stm32l4xx_ll_usb.c ****   {
 4686              		.loc 1 1899 27 is_stmt 1 discriminator 3 view .LVU1609
 4687 003e 0132     		adds	r2, r2, #1
 4688              	.LVL349:
 4689              	.L292:
1899:Drivers/STM32L4xx_HAL_Driver/Src/stm32l4xx_ll_usb.c ****   {
 4690              		.loc 1 1899 18 discriminator 1 view .LVU1610
 4691 0040 0F2A     		cmp	r2, #15
 4692 0042 F2D9     		bls	.L293
1906:Drivers/STM32L4xx_HAL_Driver/Src/stm32l4xx_ll_usb.c ****   }
1907:Drivers/STM32L4xx_HAL_Driver/Src/stm32l4xx_ll_usb.c **** 
1908:Drivers/STM32L4xx_HAL_Driver/Src/stm32l4xx_ll_usb.c ****   /* Halt all channels to put them into a known state. */
1909:Drivers/STM32L4xx_HAL_Driver/Src/stm32l4xx_ll_usb.c ****   for (i = 0U; i <= 15U; i++)
 4693              		.loc 1 1909 10 is_stmt 0 view .LVU1611
 4694 0044 0021     		movs	r1, #0
 4695 0046 00E0     		b	.L294
 4696              	.LVL350:
 4697              	.L295:
 4698              		.loc 1 1909 27 is_stmt 1 discriminator 2 view .LVU1612
 4699 0048 0131     		adds	r1, r1, #1
 4700              	.LVL351:
 4701              	.L294:
 4702              		.loc 1 1909 18 discriminator 1 view .LVU1613
 4703 004a 0F29     		cmp	r1, #15
 4704 004c 16D8     		bhi	.L301
1910:Drivers/STM32L4xx_HAL_Driver/Src/stm32l4xx_ll_usb.c ****   {
1911:Drivers/STM32L4xx_HAL_Driver/Src/stm32l4xx_ll_usb.c ****     value = USBx_HC(i)->HCCHAR;
 4705              		.loc 1 1911 5 view .LVU1614
 4706              		.loc 1 1911 13 is_stmt 0 view .LVU1615
 4707 004e 04EB4110 		add	r0, r4, r1, lsl #5
 4708 0052 00F5A062 		add	r2, r0, #1280
 4709              		.loc 1 1911 11 view .LVU1616
 4710 0056 D0F80035 		ldr	r3, [r0, #1280]
 4711              	.LVL352:
1912:Drivers/STM32L4xx_HAL_Driver/Src/stm32l4xx_ll_usb.c ****     value |= USB_OTG_HCCHAR_CHDIS;
 4712              		.loc 1 1912 5 is_stmt 1 view .LVU1617
1913:Drivers/STM32L4xx_HAL_Driver/Src/stm32l4xx_ll_usb.c ****     value |= USB_OTG_HCCHAR_CHENA;
 4713              		.loc 1 1913 5 view .LVU1618
1914:Drivers/STM32L4xx_HAL_Driver/Src/stm32l4xx_ll_usb.c ****     value &= ~USB_OTG_HCCHAR_EPDIR;
 4714              		.loc 1 1914 5 view .LVU1619
 4715 005a 23F40043 		bic	r3, r3, #32768
 4716              	.LVL353:
ARM GAS  /tmp/ccdWnOQF.s 			page 137


 4717              		.loc 1 1914 11 is_stmt 0 view .LVU1620
 4718 005e 43F04043 		orr	r3, r3, #-1073741824
 4719              	.LVL354:
1915:Drivers/STM32L4xx_HAL_Driver/Src/stm32l4xx_ll_usb.c ****     USBx_HC(i)->HCCHAR = value;
 4720              		.loc 1 1915 5 is_stmt 1 view .LVU1621
 4721              		.loc 1 1915 24 is_stmt 0 view .LVU1622
 4722 0062 C0F80035 		str	r3, [r0, #1280]
 4723              	.LVL355:
 4724              	.L296:
1916:Drivers/STM32L4xx_HAL_Driver/Src/stm32l4xx_ll_usb.c **** 
1917:Drivers/STM32L4xx_HAL_Driver/Src/stm32l4xx_ll_usb.c ****     do
 4725              		.loc 1 1917 5 is_stmt 1 view .LVU1623
1918:Drivers/STM32L4xx_HAL_Driver/Src/stm32l4xx_ll_usb.c ****     {
1919:Drivers/STM32L4xx_HAL_Driver/Src/stm32l4xx_ll_usb.c ****       count++;
 4726              		.loc 1 1919 7 view .LVU1624
 4727              		.loc 1 1919 12 is_stmt 0 view .LVU1625
 4728 0066 019B     		ldr	r3, [sp, #4]
 4729 0068 0133     		adds	r3, r3, #1
 4730 006a 0193     		str	r3, [sp, #4]
1920:Drivers/STM32L4xx_HAL_Driver/Src/stm32l4xx_ll_usb.c **** 
1921:Drivers/STM32L4xx_HAL_Driver/Src/stm32l4xx_ll_usb.c ****       if (count > 1000U)
 4731              		.loc 1 1921 7 is_stmt 1 view .LVU1626
 4732              		.loc 1 1921 17 is_stmt 0 view .LVU1627
 4733 006c 019B     		ldr	r3, [sp, #4]
 4734              		.loc 1 1921 10 view .LVU1628
 4735 006e B3F57A7F 		cmp	r3, #1000
 4736 0072 E9D8     		bhi	.L295
1922:Drivers/STM32L4xx_HAL_Driver/Src/stm32l4xx_ll_usb.c ****       {
1923:Drivers/STM32L4xx_HAL_Driver/Src/stm32l4xx_ll_usb.c ****         break;
1924:Drivers/STM32L4xx_HAL_Driver/Src/stm32l4xx_ll_usb.c ****       }
1925:Drivers/STM32L4xx_HAL_Driver/Src/stm32l4xx_ll_usb.c ****     } while ((USBx_HC(i)->HCCHAR & USB_OTG_HCCHAR_CHENA) == USB_OTG_HCCHAR_CHENA);
 4737              		.loc 1 1925 58 is_stmt 1 view .LVU1629
 4738              		.loc 1 1925 25 is_stmt 0 view .LVU1630
 4739 0074 1368     		ldr	r3, [r2]
 4740              		.loc 1 1925 58 view .LVU1631
 4741 0076 002B     		cmp	r3, #0
 4742 0078 F5DB     		blt	.L296
 4743 007a E5E7     		b	.L295
 4744              	.LVL356:
 4745              	.L301:
1926:Drivers/STM32L4xx_HAL_Driver/Src/stm32l4xx_ll_usb.c ****   }
1927:Drivers/STM32L4xx_HAL_Driver/Src/stm32l4xx_ll_usb.c **** 
1928:Drivers/STM32L4xx_HAL_Driver/Src/stm32l4xx_ll_usb.c ****   /* Clear any pending Host interrupts */
1929:Drivers/STM32L4xx_HAL_Driver/Src/stm32l4xx_ll_usb.c ****   USBx_HOST->HAINT = 0xFFFFFFFFU;
 4746              		.loc 1 1929 3 is_stmt 1 view .LVU1632
 4747              		.loc 1 1929 20 is_stmt 0 view .LVU1633
 4748 007c 4FF0FF33 		mov	r3, #-1
 4749 0080 C4F81434 		str	r3, [r4, #1044]
1930:Drivers/STM32L4xx_HAL_Driver/Src/stm32l4xx_ll_usb.c ****   USBx->GINTSTS = 0xFFFFFFFFU;
 4750              		.loc 1 1930 3 is_stmt 1 view .LVU1634
 4751              		.loc 1 1930 17 is_stmt 0 view .LVU1635
 4752 0084 6361     		str	r3, [r4, #20]
1931:Drivers/STM32L4xx_HAL_Driver/Src/stm32l4xx_ll_usb.c **** 
1932:Drivers/STM32L4xx_HAL_Driver/Src/stm32l4xx_ll_usb.c ****   (void)USB_EnableGlobalInt(USBx);
 4753              		.loc 1 1932 3 is_stmt 1 view .LVU1636
 4754              		.loc 1 1932 9 is_stmt 0 view .LVU1637
 4755 0086 2046     		mov	r0, r4
ARM GAS  /tmp/ccdWnOQF.s 			page 138


 4756 0088 FFF7FEFF 		bl	USB_EnableGlobalInt
 4757              	.LVL357:
1933:Drivers/STM32L4xx_HAL_Driver/Src/stm32l4xx_ll_usb.c **** 
1934:Drivers/STM32L4xx_HAL_Driver/Src/stm32l4xx_ll_usb.c ****   return ret;
 4758              		.loc 1 1934 3 is_stmt 1 view .LVU1638
1935:Drivers/STM32L4xx_HAL_Driver/Src/stm32l4xx_ll_usb.c **** }
 4759              		.loc 1 1935 1 is_stmt 0 view .LVU1639
 4760 008c 2846     		mov	r0, r5
 4761 008e 03B0     		add	sp, sp, #12
 4762              		.cfi_def_cfa_offset 12
 4763              		@ sp needed
 4764 0090 30BD     		pop	{r4, r5, pc}
 4765              		.loc 1 1935 1 view .LVU1640
 4766              		.cfi_endproc
 4767              	.LFE178:
 4769              		.section	.text.USB_ActivateRemoteWakeup,"ax",%progbits
 4770              		.align	1
 4771              		.global	USB_ActivateRemoteWakeup
 4772              		.syntax unified
 4773              		.thumb
 4774              		.thumb_func
 4776              	USB_ActivateRemoteWakeup:
 4777              	.LVL358:
 4778              	.LFB179:
1936:Drivers/STM32L4xx_HAL_Driver/Src/stm32l4xx_ll_usb.c **** 
1937:Drivers/STM32L4xx_HAL_Driver/Src/stm32l4xx_ll_usb.c **** /**
1938:Drivers/STM32L4xx_HAL_Driver/Src/stm32l4xx_ll_usb.c ****   * @brief  USB_ActivateRemoteWakeup active remote wakeup signalling
1939:Drivers/STM32L4xx_HAL_Driver/Src/stm32l4xx_ll_usb.c ****   * @param  USBx Selected device
1940:Drivers/STM32L4xx_HAL_Driver/Src/stm32l4xx_ll_usb.c ****   * @retval HAL status
1941:Drivers/STM32L4xx_HAL_Driver/Src/stm32l4xx_ll_usb.c ****   */
1942:Drivers/STM32L4xx_HAL_Driver/Src/stm32l4xx_ll_usb.c **** HAL_StatusTypeDef USB_ActivateRemoteWakeup(USB_OTG_GlobalTypeDef *USBx)
1943:Drivers/STM32L4xx_HAL_Driver/Src/stm32l4xx_ll_usb.c **** {
 4779              		.loc 1 1943 1 is_stmt 1 view -0
 4780              		.cfi_startproc
 4781              		@ args = 0, pretend = 0, frame = 0
 4782              		@ frame_needed = 0, uses_anonymous_args = 0
 4783              		@ link register save eliminated.
1944:Drivers/STM32L4xx_HAL_Driver/Src/stm32l4xx_ll_usb.c ****   uint32_t USBx_BASE = (uint32_t)USBx;
 4784              		.loc 1 1944 3 view .LVU1642
1945:Drivers/STM32L4xx_HAL_Driver/Src/stm32l4xx_ll_usb.c **** 
1946:Drivers/STM32L4xx_HAL_Driver/Src/stm32l4xx_ll_usb.c ****   if ((USBx_DEVICE->DSTS & USB_OTG_DSTS_SUSPSTS) == USB_OTG_DSTS_SUSPSTS)
 4785              		.loc 1 1946 3 view .LVU1643
 4786              		.loc 1 1946 19 is_stmt 0 view .LVU1644
 4787 0000 D0F80838 		ldr	r3, [r0, #2056]
 4788              		.loc 1 1946 8 view .LVU1645
 4789 0004 00F50060 		add	r0, r0, #2048
 4790              	.LVL359:
 4791              		.loc 1 1946 6 view .LVU1646
 4792 0008 13F0010F 		tst	r3, #1
 4793 000c 03D0     		beq	.L303
1947:Drivers/STM32L4xx_HAL_Driver/Src/stm32l4xx_ll_usb.c ****   {
1948:Drivers/STM32L4xx_HAL_Driver/Src/stm32l4xx_ll_usb.c ****     /* active Remote wakeup signalling */
1949:Drivers/STM32L4xx_HAL_Driver/Src/stm32l4xx_ll_usb.c ****     USBx_DEVICE->DCTL |= USB_OTG_DCTL_RWUSIG;
 4794              		.loc 1 1949 5 is_stmt 1 view .LVU1647
 4795              		.loc 1 1949 16 is_stmt 0 view .LVU1648
 4796 000e 4368     		ldr	r3, [r0, #4]
 4797              		.loc 1 1949 23 view .LVU1649
ARM GAS  /tmp/ccdWnOQF.s 			page 139


 4798 0010 43F00103 		orr	r3, r3, #1
 4799 0014 4360     		str	r3, [r0, #4]
 4800              	.L303:
1950:Drivers/STM32L4xx_HAL_Driver/Src/stm32l4xx_ll_usb.c ****   }
1951:Drivers/STM32L4xx_HAL_Driver/Src/stm32l4xx_ll_usb.c **** 
1952:Drivers/STM32L4xx_HAL_Driver/Src/stm32l4xx_ll_usb.c ****   return HAL_OK;
 4801              		.loc 1 1952 3 is_stmt 1 view .LVU1650
1953:Drivers/STM32L4xx_HAL_Driver/Src/stm32l4xx_ll_usb.c **** }
 4802              		.loc 1 1953 1 is_stmt 0 view .LVU1651
 4803 0016 0020     		movs	r0, #0
 4804              	.LVL360:
 4805              		.loc 1 1953 1 view .LVU1652
 4806 0018 7047     		bx	lr
 4807              		.cfi_endproc
 4808              	.LFE179:
 4810              		.section	.text.USB_DeActivateRemoteWakeup,"ax",%progbits
 4811              		.align	1
 4812              		.global	USB_DeActivateRemoteWakeup
 4813              		.syntax unified
 4814              		.thumb
 4815              		.thumb_func
 4817              	USB_DeActivateRemoteWakeup:
 4818              	.LVL361:
 4819              	.LFB180:
1954:Drivers/STM32L4xx_HAL_Driver/Src/stm32l4xx_ll_usb.c **** 
1955:Drivers/STM32L4xx_HAL_Driver/Src/stm32l4xx_ll_usb.c **** /**
1956:Drivers/STM32L4xx_HAL_Driver/Src/stm32l4xx_ll_usb.c ****   * @brief  USB_DeActivateRemoteWakeup de-active remote wakeup signalling
1957:Drivers/STM32L4xx_HAL_Driver/Src/stm32l4xx_ll_usb.c ****   * @param  USBx Selected device
1958:Drivers/STM32L4xx_HAL_Driver/Src/stm32l4xx_ll_usb.c ****   * @retval HAL status
1959:Drivers/STM32L4xx_HAL_Driver/Src/stm32l4xx_ll_usb.c ****   */
1960:Drivers/STM32L4xx_HAL_Driver/Src/stm32l4xx_ll_usb.c **** HAL_StatusTypeDef USB_DeActivateRemoteWakeup(USB_OTG_GlobalTypeDef *USBx)
1961:Drivers/STM32L4xx_HAL_Driver/Src/stm32l4xx_ll_usb.c **** {
 4820              		.loc 1 1961 1 is_stmt 1 view -0
 4821              		.cfi_startproc
 4822              		@ args = 0, pretend = 0, frame = 0
 4823              		@ frame_needed = 0, uses_anonymous_args = 0
 4824              		@ link register save eliminated.
1962:Drivers/STM32L4xx_HAL_Driver/Src/stm32l4xx_ll_usb.c ****   uint32_t USBx_BASE = (uint32_t)USBx;
 4825              		.loc 1 1962 3 view .LVU1654
1963:Drivers/STM32L4xx_HAL_Driver/Src/stm32l4xx_ll_usb.c **** 
1964:Drivers/STM32L4xx_HAL_Driver/Src/stm32l4xx_ll_usb.c ****   /* active Remote wakeup signalling */
1965:Drivers/STM32L4xx_HAL_Driver/Src/stm32l4xx_ll_usb.c ****   USBx_DEVICE->DCTL &= ~(USB_OTG_DCTL_RWUSIG);
 4826              		.loc 1 1965 3 view .LVU1655
 4827              		.loc 1 1965 14 is_stmt 0 view .LVU1656
 4828 0000 D0F80438 		ldr	r3, [r0, #2052]
 4829              		.loc 1 1965 21 view .LVU1657
 4830 0004 23F00103 		bic	r3, r3, #1
 4831 0008 C0F80438 		str	r3, [r0, #2052]
1966:Drivers/STM32L4xx_HAL_Driver/Src/stm32l4xx_ll_usb.c **** 
1967:Drivers/STM32L4xx_HAL_Driver/Src/stm32l4xx_ll_usb.c ****   return HAL_OK;
 4832              		.loc 1 1967 3 is_stmt 1 view .LVU1658
1968:Drivers/STM32L4xx_HAL_Driver/Src/stm32l4xx_ll_usb.c **** }
 4833              		.loc 1 1968 1 is_stmt 0 view .LVU1659
 4834 000c 0020     		movs	r0, #0
 4835              	.LVL362:
 4836              		.loc 1 1968 1 view .LVU1660
 4837 000e 7047     		bx	lr
ARM GAS  /tmp/ccdWnOQF.s 			page 140


 4838              		.cfi_endproc
 4839              	.LFE180:
 4841              		.text
 4842              	.Letext0:
 4843              		.file 2 "/home/daniels/.config/Code/User/globalStorage/bmd.stm32-for-vscode/@xpack-dev-tools/arm-n
 4844              		.file 3 "/home/daniels/.config/Code/User/globalStorage/bmd.stm32-for-vscode/@xpack-dev-tools/arm-n
 4845              		.file 4 "Drivers/CMSIS/Include/cmsis_gcc.h"
 4846              		.file 5 "Drivers/CMSIS/Device/ST/STM32L4xx/Include/stm32l496xx.h"
 4847              		.file 6 "Drivers/STM32L4xx_HAL_Driver/Inc/stm32l4xx_hal_def.h"
 4848              		.file 7 "Drivers/STM32L4xx_HAL_Driver/Inc/stm32l4xx_ll_usb.h"
 4849              		.file 8 "Drivers/STM32L4xx_HAL_Driver/Inc/stm32l4xx_hal.h"
ARM GAS  /tmp/ccdWnOQF.s 			page 141


DEFINED SYMBOLS
                            *ABS*:0000000000000000 stm32l4xx_ll_usb.c
     /tmp/ccdWnOQF.s:21     .text.USB_CoreReset:0000000000000000 $t
     /tmp/ccdWnOQF.s:26     .text.USB_CoreReset:0000000000000000 USB_CoreReset
     /tmp/ccdWnOQF.s:119    .text.USB_CoreReset:000000000000004c $d
     /tmp/ccdWnOQF.s:124    .text.USB_CoreInit:0000000000000000 $t
     /tmp/ccdWnOQF.s:130    .text.USB_CoreInit:0000000000000000 USB_CoreInit
     /tmp/ccdWnOQF.s:196    .text.USB_SetTurnaroundTime:0000000000000000 $t
     /tmp/ccdWnOQF.s:202    .text.USB_SetTurnaroundTime:0000000000000000 USB_SetTurnaroundTime
     /tmp/ccdWnOQF.s:355    .text.USB_SetTurnaroundTime:00000000000000a8 $d
     /tmp/ccdWnOQF.s:374    .text.USB_EnableGlobalInt:0000000000000000 $t
     /tmp/ccdWnOQF.s:380    .text.USB_EnableGlobalInt:0000000000000000 USB_EnableGlobalInt
     /tmp/ccdWnOQF.s:404    .text.USB_DisableGlobalInt:0000000000000000 $t
     /tmp/ccdWnOQF.s:410    .text.USB_DisableGlobalInt:0000000000000000 USB_DisableGlobalInt
     /tmp/ccdWnOQF.s:434    .text.USB_FlushTxFifo:0000000000000000 $t
     /tmp/ccdWnOQF.s:440    .text.USB_FlushTxFifo:0000000000000000 USB_FlushTxFifo
     /tmp/ccdWnOQF.s:535    .text.USB_FlushTxFifo:000000000000004c $d
     /tmp/ccdWnOQF.s:540    .text.USB_FlushRxFifo:0000000000000000 $t
     /tmp/ccdWnOQF.s:546    .text.USB_FlushRxFifo:0000000000000000 USB_FlushRxFifo
     /tmp/ccdWnOQF.s:637    .text.USB_FlushRxFifo:0000000000000048 $d
     /tmp/ccdWnOQF.s:642    .text.USB_SetDevSpeed:0000000000000000 $t
     /tmp/ccdWnOQF.s:648    .text.USB_SetDevSpeed:0000000000000000 USB_SetDevSpeed
     /tmp/ccdWnOQF.s:675    .text.USB_DevInit:0000000000000000 $t
     /tmp/ccdWnOQF.s:681    .text.USB_DevInit:0000000000000000 USB_DevInit
     /tmp/ccdWnOQF.s:999    .text.USB_DevInit:0000000000000160 $d
     /tmp/ccdWnOQF.s:1004   .text.USB_GetDevSpeed:0000000000000000 $t
     /tmp/ccdWnOQF.s:1010   .text.USB_GetDevSpeed:0000000000000000 USB_GetDevSpeed
     /tmp/ccdWnOQF.s:1057   .text.USB_ActivateEndpoint:0000000000000000 $t
     /tmp/ccdWnOQF.s:1063   .text.USB_ActivateEndpoint:0000000000000000 USB_ActivateEndpoint
     /tmp/ccdWnOQF.s:1178   .text.USB_ActivateDedicatedEndpoint:0000000000000000 $t
     /tmp/ccdWnOQF.s:1184   .text.USB_ActivateDedicatedEndpoint:0000000000000000 USB_ActivateDedicatedEndpoint
     /tmp/ccdWnOQF.s:1308   .text.USB_DeactivateEndpoint:0000000000000000 $t
     /tmp/ccdWnOQF.s:1314   .text.USB_DeactivateEndpoint:0000000000000000 USB_DeactivateEndpoint
     /tmp/ccdWnOQF.s:1482   .text.USB_DeactivateEndpoint:00000000000000d8 $d
     /tmp/ccdWnOQF.s:1488   .text.USB_DeactivateDedicatedEndpoint:0000000000000000 $t
     /tmp/ccdWnOQF.s:1494   .text.USB_DeactivateDedicatedEndpoint:0000000000000000 USB_DeactivateDedicatedEndpoint
     /tmp/ccdWnOQF.s:1623   .text.USB_EP0StartXfer:0000000000000000 $t
     /tmp/ccdWnOQF.s:1629   .text.USB_EP0StartXfer:0000000000000000 USB_EP0StartXfer
     /tmp/ccdWnOQF.s:1836   .text.USB_EPStopXfer:0000000000000000 $t
     /tmp/ccdWnOQF.s:1842   .text.USB_EPStopXfer:0000000000000000 USB_EPStopXfer
     /tmp/ccdWnOQF.s:1999   .text.USB_WritePacket:0000000000000000 $t
     /tmp/ccdWnOQF.s:2005   .text.USB_WritePacket:0000000000000000 USB_WritePacket
     /tmp/ccdWnOQF.s:2066   .text.USB_EPStartXfer:0000000000000000 $t
     /tmp/ccdWnOQF.s:2072   .text.USB_EPStartXfer:0000000000000000 USB_EPStartXfer
     /tmp/ccdWnOQF.s:2392   .text.USB_EPStartXfer:00000000000001a8 $d
     /tmp/ccdWnOQF.s:2397   .text.USB_ReadPacket:0000000000000000 $t
     /tmp/ccdWnOQF.s:2403   .text.USB_ReadPacket:0000000000000000 USB_ReadPacket
     /tmp/ccdWnOQF.s:2501   .text.USB_EPSetStall:0000000000000000 $t
     /tmp/ccdWnOQF.s:2507   .text.USB_EPSetStall:0000000000000000 USB_EPSetStall
     /tmp/ccdWnOQF.s:2590   .text.USB_EPClearStall:0000000000000000 $t
     /tmp/ccdWnOQF.s:2596   .text.USB_EPClearStall:0000000000000000 USB_EPClearStall
     /tmp/ccdWnOQF.s:2681   .text.USB_StopDevice:0000000000000000 $t
     /tmp/ccdWnOQF.s:2687   .text.USB_StopDevice:0000000000000000 USB_StopDevice
     /tmp/ccdWnOQF.s:2767   .text.USB_SetDevAddress:0000000000000000 $t
     /tmp/ccdWnOQF.s:2773   .text.USB_SetDevAddress:0000000000000000 USB_SetDevAddress
     /tmp/ccdWnOQF.s:2809   .text.USB_DevConnect:0000000000000000 $t
     /tmp/ccdWnOQF.s:2815   .text.USB_DevConnect:0000000000000000 USB_DevConnect
ARM GAS  /tmp/ccdWnOQF.s 			page 142


     /tmp/ccdWnOQF.s:2845   .text.USB_DevDisconnect:0000000000000000 $t
     /tmp/ccdWnOQF.s:2851   .text.USB_DevDisconnect:0000000000000000 USB_DevDisconnect
     /tmp/ccdWnOQF.s:2881   .text.USB_ReadInterrupts:0000000000000000 $t
     /tmp/ccdWnOQF.s:2887   .text.USB_ReadInterrupts:0000000000000000 USB_ReadInterrupts
     /tmp/ccdWnOQF.s:2914   .text.USB_ReadDevAllOutEpInterrupt:0000000000000000 $t
     /tmp/ccdWnOQF.s:2920   .text.USB_ReadDevAllOutEpInterrupt:0000000000000000 USB_ReadDevAllOutEpInterrupt
     /tmp/ccdWnOQF.s:2953   .text.USB_ReadDevAllInEpInterrupt:0000000000000000 $t
     /tmp/ccdWnOQF.s:2959   .text.USB_ReadDevAllInEpInterrupt:0000000000000000 USB_ReadDevAllInEpInterrupt
     /tmp/ccdWnOQF.s:2992   .text.USB_ReadDevOutEPInterrupt:0000000000000000 $t
     /tmp/ccdWnOQF.s:2998   .text.USB_ReadDevOutEPInterrupt:0000000000000000 USB_ReadDevOutEPInterrupt
     /tmp/ccdWnOQF.s:3032   .text.USB_ReadDevInEPInterrupt:0000000000000000 $t
     /tmp/ccdWnOQF.s:3038   .text.USB_ReadDevInEPInterrupt:0000000000000000 USB_ReadDevInEPInterrupt
     /tmp/ccdWnOQF.s:3089   .text.USB_ClearInterrupts:0000000000000000 $t
     /tmp/ccdWnOQF.s:3095   .text.USB_ClearInterrupts:0000000000000000 USB_ClearInterrupts
     /tmp/ccdWnOQF.s:3115   .text.USB_GetMode:0000000000000000 $t
     /tmp/ccdWnOQF.s:3121   .text.USB_GetMode:0000000000000000 USB_GetMode
     /tmp/ccdWnOQF.s:3140   .text.USB_SetCurrentMode:0000000000000000 $t
     /tmp/ccdWnOQF.s:3146   .text.USB_SetCurrentMode:0000000000000000 USB_SetCurrentMode
     /tmp/ccdWnOQF.s:3265   .text.USB_ActivateSetup:0000000000000000 $t
     /tmp/ccdWnOQF.s:3271   .text.USB_ActivateSetup:0000000000000000 USB_ActivateSetup
     /tmp/ccdWnOQF.s:3303   .text.USB_EP0_OutStart:0000000000000000 $t
     /tmp/ccdWnOQF.s:3309   .text.USB_EP0_OutStart:0000000000000000 USB_EP0_OutStart
     /tmp/ccdWnOQF.s:3367   .text.USB_EP0_OutStart:0000000000000040 $d
     /tmp/ccdWnOQF.s:3372   .text.USB_HostInit:0000000000000000 $t
     /tmp/ccdWnOQF.s:3378   .text.USB_HostInit:0000000000000000 USB_HostInit
     /tmp/ccdWnOQF.s:3523   .text.USB_HostInit:0000000000000098 $d
     /tmp/ccdWnOQF.s:3529   .text.USB_InitFSLSPClkSel:0000000000000000 $t
     /tmp/ccdWnOQF.s:3535   .text.USB_InitFSLSPClkSel:0000000000000000 USB_InitFSLSPClkSel
     /tmp/ccdWnOQF.s:3592   .text.USB_ResetPort:0000000000000000 $t
     /tmp/ccdWnOQF.s:3598   .text.USB_ResetPort:0000000000000000 USB_ResetPort
     /tmp/ccdWnOQF.s:3664   .text.USB_DriveVbus:0000000000000000 $t
     /tmp/ccdWnOQF.s:3670   .text.USB_DriveVbus:0000000000000000 USB_DriveVbus
     /tmp/ccdWnOQF.s:3746   .text.USB_GetHostSpeed:0000000000000000 $t
     /tmp/ccdWnOQF.s:3752   .text.USB_GetHostSpeed:0000000000000000 USB_GetHostSpeed
     /tmp/ccdWnOQF.s:3788   .text.USB_GetCurrentFrame:0000000000000000 $t
     /tmp/ccdWnOQF.s:3794   .text.USB_GetCurrentFrame:0000000000000000 USB_GetCurrentFrame
     /tmp/ccdWnOQF.s:3817   .text.USB_HC_Init:0000000000000000 $t
     /tmp/ccdWnOQF.s:3823   .text.USB_HC_Init:0000000000000000 USB_HC_Init
     /tmp/ccdWnOQF.s:3864   .text.USB_HC_Init:0000000000000022 $d
     /tmp/ccdWnOQF.s:3868   .text.USB_HC_Init:0000000000000026 $t
     /tmp/ccdWnOQF.s:4056   .text.USB_HC_StartXfer:0000000000000000 $t
     /tmp/ccdWnOQF.s:4062   .text.USB_HC_StartXfer:0000000000000000 USB_HC_StartXfer
     /tmp/ccdWnOQF.s:4234   .text.USB_HC_StartXfer:00000000000000cc $d
     /tmp/ccdWnOQF.s:4238   .text.USB_HC_StartXfer:00000000000000d0 $t
     /tmp/ccdWnOQF.s:4325   .text.USB_HC_StartXfer:000000000000011c $d
     /tmp/ccdWnOQF.s:4330   .text.USB_HC_ReadInterrupt:0000000000000000 $t
     /tmp/ccdWnOQF.s:4336   .text.USB_HC_ReadInterrupt:0000000000000000 USB_HC_ReadInterrupt
     /tmp/ccdWnOQF.s:4359   .text.USB_HC_Halt:0000000000000000 $t
     /tmp/ccdWnOQF.s:4365   .text.USB_HC_Halt:0000000000000000 USB_HC_Halt
     /tmp/ccdWnOQF.s:4552   .text.USB_DoPing:0000000000000000 $t
     /tmp/ccdWnOQF.s:4558   .text.USB_DoPing:0000000000000000 USB_DoPing
     /tmp/ccdWnOQF.s:4598   .text.USB_DoPing:0000000000000020 $d
     /tmp/ccdWnOQF.s:4603   .text.USB_StopHost:0000000000000000 $t
     /tmp/ccdWnOQF.s:4609   .text.USB_StopHost:0000000000000000 USB_StopHost
     /tmp/ccdWnOQF.s:4770   .text.USB_ActivateRemoteWakeup:0000000000000000 $t
     /tmp/ccdWnOQF.s:4776   .text.USB_ActivateRemoteWakeup:0000000000000000 USB_ActivateRemoteWakeup
     /tmp/ccdWnOQF.s:4811   .text.USB_DeActivateRemoteWakeup:0000000000000000 $t
ARM GAS  /tmp/ccdWnOQF.s 			page 143


     /tmp/ccdWnOQF.s:4817   .text.USB_DeActivateRemoteWakeup:0000000000000000 USB_DeActivateRemoteWakeup

UNDEFINED SYMBOLS
HAL_Delay
